	TITLE	Z:\XashXTSRC\client\render\r_opengl.cpp
	.386P
include listing.inc
if @Version gt 510
.model FLAT
else
_TEXT	SEGMENT PARA USE32 PUBLIC 'CODE'
_TEXT	ENDS
_DATA	SEGMENT DWORD USE32 PUBLIC 'DATA'
_DATA	ENDS
CONST	SEGMENT DWORD USE32 PUBLIC 'CONST'
CONST	ENDS
_BSS	SEGMENT PARA USE32 PUBLIC 'BSS'
_BSS	ENDS
$$SYMBOLS	SEGMENT BYTE USE32 'DEBSYM'
$$SYMBOLS	ENDS
$$TYPES	SEGMENT BYTE USE32 'DEBTYP'
$$TYPES	ENDS
_TLS	SEGMENT DWORD USE32 PUBLIC 'TLS'
_TLS	ENDS
;	COMDAT ??_C@_0N@IALK@glClearColor?$AA@
CONST	SEGMENT DWORD USE32 PUBLIC 'CONST'
CONST	ENDS
;	COMDAT ??_C@_07IOIM@glClear?$AA@
CONST	SEGMENT DWORD USE32 PUBLIC 'CONST'
CONST	ENDS
;	COMDAT ??_C@_0M@JBDJ@glAlphaFunc?$AA@
CONST	SEGMENT DWORD USE32 PUBLIC 'CONST'
CONST	ENDS
;	COMDAT ??_C@_0M@PHAI@glBlendFunc?$AA@
CONST	SEGMENT DWORD USE32 PUBLIC 'CONST'
CONST	ENDS
;	COMDAT ??_C@_0L@LIEG@glCullFace?$AA@
CONST	SEGMENT DWORD USE32 PUBLIC 'CONST'
CONST	ENDS
;	COMDAT ??_C@_0N@DBGG@glDrawBuffer?$AA@
CONST	SEGMENT DWORD USE32 PUBLIC 'CONST'
CONST	ENDS
;	COMDAT ??_C@_0N@BMFB@glReadBuffer?$AA@
CONST	SEGMENT DWORD USE32 PUBLIC 'CONST'
CONST	ENDS
;	COMDAT ??_C@_07GKLB@glAccum?$AA@
CONST	SEGMENT DWORD USE32 PUBLIC 'CONST'
CONST	ENDS
;	COMDAT ??_C@_08PHJO@glEnable?$AA@
CONST	SEGMENT DWORD USE32 PUBLIC 'CONST'
CONST	ENDS
;	COMDAT ??_C@_09DADM@glDisable?$AA@
CONST	SEGMENT DWORD USE32 PUBLIC 'CONST'
CONST	ENDS
;	COMDAT ??_C@_0BE@JJFB@glEnableClientState?$AA@
CONST	SEGMENT DWORD USE32 PUBLIC 'CONST'
CONST	ENDS
;	COMDAT ??_C@_0BF@HABO@glDisableClientState?$AA@
CONST	SEGMENT DWORD USE32 PUBLIC 'CONST'
CONST	ENDS
;	COMDAT ??_C@_0O@CEKP@glGetBooleanv?$AA@
CONST	SEGMENT DWORD USE32 PUBLIC 'CONST'
CONST	ENDS
;	COMDAT ??_C@_0N@LJNO@glGetDoublev?$AA@
CONST	SEGMENT DWORD USE32 PUBLIC 'CONST'
CONST	ENDS
;	COMDAT ??_C@_0M@HNHJ@glGetFloatv?$AA@
CONST	SEGMENT DWORD USE32 PUBLIC 'CONST'
CONST	ENDS
;	COMDAT ??_C@_0O@PMHI@glGetIntegerv?$AA@
CONST	SEGMENT DWORD USE32 PUBLIC 'CONST'
CONST	ENDS
;	COMDAT ??_C@_0L@INBB@glGetError?$AA@
CONST	SEGMENT DWORD USE32 PUBLIC 'CONST'
CONST	ENDS
;	COMDAT ??_C@_0M@EJHF@glGetString?$AA@
CONST	SEGMENT DWORD USE32 PUBLIC 'CONST'
CONST	ENDS
;	COMDAT ??_C@_08HFPP@glFinish?$AA@
CONST	SEGMENT DWORD USE32 PUBLIC 'CONST'
CONST	ENDS
;	COMDAT ??_C@_07GAEM@glFlush?$AA@
CONST	SEGMENT DWORD USE32 PUBLIC 'CONST'
CONST	ENDS
;	COMDAT ??_C@_0N@DFBF@glClearDepth?$AA@
CONST	SEGMENT DWORD USE32 PUBLIC 'CONST'
CONST	ENDS
;	COMDAT ??_C@_0M@FDIH@glDepthFunc?$AA@
CONST	SEGMENT DWORD USE32 PUBLIC 'CONST'
CONST	ENDS
;	COMDAT ??_C@_0M@LIJE@glDepthMask?$AA@
CONST	SEGMENT DWORD USE32 PUBLIC 'CONST'
CONST	ENDS
;	COMDAT ??_C@_0N@OLL@glDepthRange?$AA@
CONST	SEGMENT DWORD USE32 PUBLIC 'CONST'
CONST	ENDS
;	COMDAT ??_C@_0M@MJJH@glFrontFace?$AA@
CONST	SEGMENT DWORD USE32 PUBLIC 'CONST'
CONST	ENDS
;	COMDAT ??_C@_0P@EAHC@glDrawElements?$AA@
CONST	SEGMENT DWORD USE32 PUBLIC 'CONST'
CONST	ENDS
;	COMDAT ??_C@_0N@LOLE@glDrawArrays?$AA@
CONST	SEGMENT DWORD USE32 PUBLIC 'CONST'
CONST	ENDS
;	COMDAT ??_C@_0M@LDC@glColorMask?$AA@
CONST	SEGMENT DWORD USE32 PUBLIC 'CONST'
CONST	ENDS
;	COMDAT ??_C@_0P@GIBI@glIndexPointer?$AA@
CONST	SEGMENT DWORD USE32 PUBLIC 'CONST'
CONST	ENDS
;	COMDAT ??_C@_0BA@OGPO@glVertexPointer?$AA@
CONST	SEGMENT DWORD USE32 PUBLIC 'CONST'
CONST	ENDS
;	COMDAT ??_C@_0BA@GJEJ@glNormalPointer?$AA@
CONST	SEGMENT DWORD USE32 PUBLIC 'CONST'
CONST	ENDS
;	COMDAT ??_C@_0P@PPM@glColorPointer?$AA@
CONST	SEGMENT DWORD USE32 PUBLIC 'CONST'
CONST	ENDS
;	COMDAT ??_C@_0BC@EKAK@glTexCoordPointer?$AA@
CONST	SEGMENT DWORD USE32 PUBLIC 'CONST'
CONST	ENDS
;	COMDAT ??_C@_0P@ODMD@glArrayElement?$AA@
CONST	SEGMENT DWORD USE32 PUBLIC 'CONST'
CONST	ENDS
;	COMDAT ??_C@_09NIDD@glColor3f?$AA@
CONST	SEGMENT DWORD USE32 PUBLIC 'CONST'
CONST	ENDS
;	COMDAT ??_C@_0L@OIPK@glColor3fv?$AA@
CONST	SEGMENT DWORD USE32 PUBLIC 'CONST'
CONST	ENDS
;	COMDAT ??_C@_09LJGG@glColor4f?$AA@
CONST	SEGMENT DWORD USE32 PUBLIC 'CONST'
CONST	ENDS
;	COMDAT ??_C@_0L@FGJL@glColor4fv?$AA@
CONST	SEGMENT DWORD USE32 PUBLIC 'CONST'
CONST	ENDS
;	COMDAT ??_C@_0L@LKIA@glColor3ub?$AA@
CONST	SEGMENT DWORD USE32 PUBLIC 'CONST'
CONST	ENDS
;	COMDAT ??_C@_0L@EOB@glColor4ub?$AA@
CONST	SEGMENT DWORD USE32 PUBLIC 'CONST'
CONST	ENDS
;	COMDAT ??_C@_0M@EHCG@glColor4ubv?$AA@
CONST	SEGMENT DWORD USE32 PUBLIC 'CONST'
CONST	ENDS
;	COMDAT ??_C@_0N@MION@glTexCoord1f?$AA@
CONST	SEGMENT DWORD USE32 PUBLIC 'CONST'
CONST	ENDS
;	COMDAT ??_C@_0N@PDBC@glTexCoord2f?$AA@
CONST	SEGMENT DWORD USE32 PUBLIC 'CONST'
CONST	ENDS
;	COMDAT ??_C@_0N@OFLI@glTexCoord3f?$AA@
CONST	SEGMENT DWORD USE32 PUBLIC 'CONST'
CONST	ENDS
;	COMDAT ??_C@_0N@IEON@glTexCoord4f?$AA@
CONST	SEGMENT DWORD USE32 PUBLIC 'CONST'
CONST	ENDS
;	COMDAT ??_C@_0O@BHOK@glTexCoord1fv?$AA@
CONST	SEGMENT DWORD USE32 PUBLIC 'CONST'
CONST	ENDS
;	COMDAT ??_C@_0O@OBNB@glTexCoord2fv?$AA@
CONST	SEGMENT DWORD USE32 PUBLIC 'CONST'
CONST	ENDS
;	COMDAT ??_C@_0O@LDMH@glTexCoord3fv?$AA@
CONST	SEGMENT DWORD USE32 PUBLIC 'CONST'
CONST	ENDS
;	COMDAT ??_C@_0O@NKG@glTexCoord4fv?$AA@
CONST	SEGMENT DWORD USE32 PUBLIC 'CONST'
CONST	ENDS
;	COMDAT ??_C@_09NKIB@glTexGenf?$AA@
CONST	SEGMENT DWORD USE32 PUBLIC 'CONST'
CONST	ENDS
;	COMDAT ??_C@_0L@DDPI@glTexGenfv?$AA@
CONST	SEGMENT DWORD USE32 PUBLIC 'CONST'
CONST	ENDS
;	COMDAT ??_C@_09NLNM@glTexGeni?$AA@
CONST	SEGMENT DWORD USE32 PUBLIC 'CONST'
CONST	ENDS
;	COMDAT ??_C@_0L@DNLP@glVertex2f?$AA@
CONST	SEGMENT DWORD USE32 PUBLIC 'CONST'
CONST	ENDS
;	COMDAT ??_C@_0L@CLBF@glVertex3f?$AA@
CONST	SEGMENT DWORD USE32 PUBLIC 'CONST'
CONST	ENDS
;	COMDAT ??_C@_0M@PAAJ@glVertex3fv?$AA@
CONST	SEGMENT DWORD USE32 PUBLIC 'CONST'
CONST	ENDS
;	COMDAT ??_C@_0L@JOCM@glNormal3f?$AA@
CONST	SEGMENT DWORD USE32 PUBLIC 'CONST'
CONST	ENDS
;	COMDAT ??_C@_0M@DFLM@glNormal3fv?$AA@
CONST	SEGMENT DWORD USE32 PUBLIC 'CONST'
CONST	ENDS
;	COMDAT ??_C@_07GHIG@glBegin?$AA@
CONST	SEGMENT DWORD USE32 PUBLIC 'CONST'
CONST	ENDS
;	COMDAT ??_C@_05FDNN@glEnd?$AA@
CONST	SEGMENT DWORD USE32 PUBLIC 'CONST'
CONST	ENDS
;	COMDAT ??_C@_0M@KCLG@glLineWidth?$AA@
CONST	SEGMENT DWORD USE32 PUBLIC 'CONST'
CONST	ENDS
;	COMDAT ??_C@_0M@JAAI@glPointSize?$AA@
CONST	SEGMENT DWORD USE32 PUBLIC 'CONST'
CONST	ENDS
;	COMDAT ??_C@_0N@JNJF@glMatrixMode?$AA@
CONST	SEGMENT DWORD USE32 PUBLIC 'CONST'
CONST	ENDS
;	COMDAT ??_C@_07ICOP@glOrtho?$AA@
CONST	SEGMENT DWORD USE32 PUBLIC 'CONST'
CONST	ENDS
;	COMDAT ??_C@_0O@HCNK@glRasterPos2f?$AA@
CONST	SEGMENT DWORD USE32 PUBLIC 'CONST'
CONST	ENDS
;	COMDAT ??_C@_09KLFM@glFrustum?$AA@
CONST	SEGMENT DWORD USE32 PUBLIC 'CONST'
CONST	ENDS
;	COMDAT ??_C@_0L@INIC@glViewport?$AA@
CONST	SEGMENT DWORD USE32 PUBLIC 'CONST'
CONST	ENDS
;	COMDAT ??_C@_0N@KEGE@glPushMatrix?$AA@
CONST	SEGMENT DWORD USE32 PUBLIC 'CONST'
CONST	ENDS
;	COMDAT ??_C@_0M@LACG@glPopMatrix?$AA@
CONST	SEGMENT DWORD USE32 PUBLIC 'CONST'
CONST	ENDS
;	COMDAT ??_C@_0N@NFOG@glPushAttrib?$AA@
CONST	SEGMENT DWORD USE32 PUBLIC 'CONST'
CONST	ENDS
;	COMDAT ??_C@_0M@MBKE@glPopAttrib?$AA@
CONST	SEGMENT DWORD USE32 PUBLIC 'CONST'
CONST	ENDS
;	COMDAT ??_C@_0P@MLMG@glLoadIdentity?$AA@
CONST	SEGMENT DWORD USE32 PUBLIC 'CONST'
CONST	ENDS
;	COMDAT ??_C@_0O@PGAL@glLoadMatrixd?$AA@
CONST	SEGMENT DWORD USE32 PUBLIC 'CONST'
CONST	ENDS
;	COMDAT ??_C@_0O@KDCF@glLoadMatrixf?$AA@
CONST	SEGMENT DWORD USE32 PUBLIC 'CONST'
CONST	ENDS
;	COMDAT ??_C@_0O@NKPG@glMultMatrixd?$AA@
CONST	SEGMENT DWORD USE32 PUBLIC 'CONST'
CONST	ENDS
;	COMDAT ??_C@_0O@IPNI@glMultMatrixf?$AA@
CONST	SEGMENT DWORD USE32 PUBLIC 'CONST'
CONST	ENDS
;	COMDAT ??_C@_09OHFF@glRotated?$AA@
CONST	SEGMENT DWORD USE32 PUBLIC 'CONST'
CONST	ENDS
;	COMDAT ??_C@_09LCHL@glRotatef?$AA@
CONST	SEGMENT DWORD USE32 PUBLIC 'CONST'
CONST	ENDS
;	COMDAT ??_C@_08IEGN@glScaled?$AA@
CONST	SEGMENT DWORD USE32 PUBLIC 'CONST'
CONST	ENDS
;	COMDAT ??_C@_08NBED@glScalef?$AA@
CONST	SEGMENT DWORD USE32 PUBLIC 'CONST'
CONST	ENDS
;	COMDAT ??_C@_0N@IPCH@glTranslated?$AA@
CONST	SEGMENT DWORD USE32 PUBLIC 'CONST'
CONST	ENDS
;	COMDAT ??_C@_0N@NKAJ@glTranslatef?$AA@
CONST	SEGMENT DWORD USE32 PUBLIC 'CONST'
CONST	ENDS
;	COMDAT ??_C@_0N@LBPG@glReadPixels?$AA@
CONST	SEGMENT DWORD USE32 PUBLIC 'CONST'
CONST	ENDS
;	COMDAT ??_C@_0N@JMMB@glDrawPixels?$AA@
CONST	SEGMENT DWORD USE32 PUBLIC 'CONST'
CONST	ENDS
;	COMDAT ??_C@_0O@GBFI@glStencilFunc?$AA@
CONST	SEGMENT DWORD USE32 PUBLIC 'CONST'
CONST	ENDS
;	COMDAT ??_C@_0O@IKEL@glStencilMask?$AA@
CONST	SEGMENT DWORD USE32 PUBLIC 'CONST'
CONST	ENDS
;	COMDAT ??_C@_0M@LODB@glStencilOp?$AA@
CONST	SEGMENT DWORD USE32 PUBLIC 'CONST'
CONST	ENDS
;	COMDAT ??_C@_0P@JHOA@glClearStencil?$AA@
CONST	SEGMENT DWORD USE32 PUBLIC 'CONST'
CONST	ENDS
;	COMDAT ??_C@_0M@GNEM@glIsEnabled?$AA@
CONST	SEGMENT DWORD USE32 PUBLIC 'CONST'
CONST	ENDS
;	COMDAT ??_C@_08MENJ@glIsList?$AA@
CONST	SEGMENT DWORD USE32 PUBLIC 'CONST'
CONST	ENDS
;	COMDAT ??_C@_0M@NCFH@glIsTexture?$AA@
CONST	SEGMENT DWORD USE32 PUBLIC 'CONST'
CONST	ENDS
;	COMDAT ??_C@_09CJFG@glTexEnvf?$AA@
CONST	SEGMENT DWORD USE32 PUBLIC 'CONST'
CONST	ENDS
;	COMDAT ??_C@_0L@IHAL@glTexEnvfv?$AA@
CONST	SEGMENT DWORD USE32 PUBLIC 'CONST'
CONST	ENDS
;	COMDAT ??_C@_09CIAL@glTexEnvi?$AA@
CONST	SEGMENT DWORD USE32 PUBLIC 'CONST'
CONST	ENDS
;	COMDAT ??_C@_0BA@CLDA@glTexParameterf?$AA@
CONST	SEGMENT DWORD USE32 PUBLIC 'CONST'
CONST	ENDS
;	COMDAT ??_C@_0BB@NJAJ@glTexParameterfv?$AA@
CONST	SEGMENT DWORD USE32 PUBLIC 'CONST'
CONST	ENDS
;	COMDAT ??_C@_0BA@CKGN@glTexParameteri?$AA@
CONST	SEGMENT DWORD USE32 PUBLIC 'CONST'
CONST	ENDS
;	COMDAT ??_C@_06IKLF@glHint?$AA@
CONST	SEGMENT DWORD USE32 PUBLIC 'CONST'
CONST	ENDS
;	COMDAT ??_C@_0O@ELGF@glPixelStoref?$AA@
CONST	SEGMENT DWORD USE32 PUBLIC 'CONST'
CONST	ENDS
;	COMDAT ??_C@_0O@EKDI@glPixelStorei?$AA@
CONST	SEGMENT DWORD USE32 PUBLIC 'CONST'
CONST	ENDS
;	COMDAT ??_C@_0O@DAHJ@glGenTextures?$AA@
CONST	SEGMENT DWORD USE32 PUBLIC 'CONST'
CONST	ENDS
;	COMDAT ??_C@_0BB@OKAI@glDeleteTextures?$AA@
CONST	SEGMENT DWORD USE32 PUBLIC 'CONST'
CONST	ENDS
;	COMDAT ??_C@_0O@NAMD@glBindTexture?$AA@
CONST	SEGMENT DWORD USE32 PUBLIC 'CONST'
CONST	ENDS
;	COMDAT ??_C@_0N@LLDN@glTexImage1D?$AA@
CONST	SEGMENT DWORD USE32 PUBLIC 'CONST'
CONST	ENDS
;	COMDAT ??_C@_0N@IAMC@glTexImage2D?$AA@
CONST	SEGMENT DWORD USE32 PUBLIC 'CONST'
CONST	ENDS
;	COMDAT ??_C@_0BA@JOPC@glTexSubImage1D?$AA@
CONST	SEGMENT DWORD USE32 PUBLIC 'CONST'
CONST	ENDS
;	COMDAT ??_C@_0BA@KFAN@glTexSubImage2D?$AA@
CONST	SEGMENT DWORD USE32 PUBLIC 'CONST'
CONST	ENDS
;	COMDAT ??_C@_0BB@HNGB@glCopyTexImage1D?$AA@
CONST	SEGMENT DWORD USE32 PUBLIC 'CONST'
CONST	ENDS
;	COMDAT ??_C@_0BB@EGJO@glCopyTexImage2D?$AA@
CONST	SEGMENT DWORD USE32 PUBLIC 'CONST'
CONST	ENDS
;	COMDAT ??_C@_0BE@OMHF@glCopyTexSubImage1D?$AA@
CONST	SEGMENT DWORD USE32 PUBLIC 'CONST'
CONST	ENDS
;	COMDAT ??_C@_0BE@NHIK@glCopyTexSubImage2D?$AA@
CONST	SEGMENT DWORD USE32 PUBLIC 'CONST'
CONST	ENDS
;	COMDAT ??_C@_09HOGJ@glScissor?$AA@
CONST	SEGMENT DWORD USE32 PUBLIC 'CONST'
CONST	ENDS
;	COMDAT ??_C@_0O@HGPI@glGetTexImage?$AA@
CONST	SEGMENT DWORD USE32 PUBLIC 'CONST'
CONST	ENDS
;	COMDAT ??_C@_0O@JDNI@glGetTexEnviv?$AA@
CONST	SEGMENT DWORD USE32 PUBLIC 'CONST'
CONST	ENDS
;	COMDAT ??_C@_0BA@BALB@glPolygonOffset?$AA@
CONST	SEGMENT DWORD USE32 PUBLIC 'CONST'
CONST	ENDS
;	COMDAT ??_C@_0O@FGKK@glPolygonMode?$AA@
CONST	SEGMENT DWORD USE32 PUBLIC 'CONST'
CONST	ENDS
;	COMDAT ??_C@_0BB@FIOF@glPolygonStipple?$AA@
CONST	SEGMENT DWORD USE32 PUBLIC 'CONST'
CONST	ENDS
;	COMDAT ??_C@_0M@KLCG@glClipPlane?$AA@
CONST	SEGMENT DWORD USE32 PUBLIC 'CONST'
CONST	ENDS
;	COMDAT ??_C@_0P@EAOG@glGetClipPlane?$AA@
CONST	SEGMENT DWORD USE32 PUBLIC 'CONST'
CONST	ENDS
;	COMDAT ??_C@_0N@LIFO@glShadeModel?$AA@
CONST	SEGMENT DWORD USE32 PUBLIC 'CONST'
CONST	ENDS
;	COMDAT ??_C@_0BJ@DLL@glGetTexLevelParameteriv?$AA@
CONST	SEGMENT DWORD USE32 PUBLIC 'CONST'
CONST	ENDS
;	COMDAT ??_C@_0BJ@NHLK@glGetTexLevelParameterfv?$AA@
CONST	SEGMENT DWORD USE32 PUBLIC 'CONST'
CONST	ENDS
;	COMDAT ??_C@_07KOOO@glFogfv?$AA@
CONST	SEGMENT DWORD USE32 PUBLIC 'CONST'
CONST	ENDS
;	COMDAT ??_C@_06MMBO@glFogf?$AA@
CONST	SEGMENT DWORD USE32 PUBLIC 'CONST'
CONST	ENDS
;	COMDAT ??_C@_06MNED@glFogi?$AA@
CONST	SEGMENT DWORD USE32 PUBLIC 'CONST'
CONST	ENDS
;	COMDAT ??_C@_0BE@NEHK@glDrawRangeElements?$AA@
CONST	SEGMENT DWORD USE32 PUBLIC 'CONST'
CONST	ENDS
;	COMDAT ??_C@_0BH@DCHD@glDrawRangeElementsEXT?$AA@
CONST	SEGMENT DWORD USE32 PUBLIC 'CONST'
CONST	ENDS
;	COMDAT ??_C@_0BJ@CDAF@glDebugMessageControlARB?$AA@
CONST	SEGMENT DWORD USE32 PUBLIC 'CONST'
CONST	ENDS
;	COMDAT ??_C@_0BI@NDFI@glDebugMessageInsertARB?$AA@
CONST	SEGMENT DWORD USE32 PUBLIC 'CONST'
CONST	ENDS
;	COMDAT ??_C@_0BK@CJJK@glDebugMessageCallbackARB?$AA@
CONST	SEGMENT DWORD USE32 PUBLIC 'CONST'
CONST	ENDS
;	COMDAT ??_C@_0BI@BALA@glGetDebugMessageLogARB?$AA@
CONST	SEGMENT DWORD USE32 PUBLIC 'CONST'
CONST	ENDS
;	COMDAT ??_C@_0BF@JBHE@glMultiTexCoord1fARB?$AA@
CONST	SEGMENT DWORD USE32 PUBLIC 'CONST'
CONST	ENDS
;	COMDAT ??_C@_0BF@HBBL@glMultiTexCoord2fARB?$AA@
CONST	SEGMENT DWORD USE32 PUBLIC 'CONST'
CONST	ENDS
;	COMDAT ??_C@_0BF@NBDO@glMultiTexCoord3fARB?$AA@
CONST	SEGMENT DWORD USE32 PUBLIC 'CONST'
CONST	ENDS
;	COMDAT ??_C@_0BF@LBME@glMultiTexCoord4fARB?$AA@
CONST	SEGMENT DWORD USE32 PUBLIC 'CONST'
CONST	ENDS
;	COMDAT ??_C@_0BD@IJD@glActiveTextureARB?$AA@
CONST	SEGMENT DWORD USE32 PUBLIC 'CONST'
CONST	ENDS
;	COMDAT ??_C@_0BJ@NIEC@glClientActiveTextureARB?$AA@
CONST	SEGMENT DWORD USE32 PUBLIC 'CONST'
CONST	ENDS
;	COMDAT ??_C@_0BA@LIMG@glTexImage3DEXT?$AA@
CONST	SEGMENT DWORD USE32 PUBLIC 'CONST'
CONST	ENDS
;	COMDAT ??_C@_0BD@EEOI@glTexSubImage3DEXT?$AA@
CONST	SEGMENT DWORD USE32 PUBLIC 'CONST'
CONST	ENDS
;	COMDAT ??_C@_0BH@EKCH@glCopyTexSubImage3DEXT?$AA@
CONST	SEGMENT DWORD USE32 PUBLIC 'CONST'
CONST	ENDS
;	COMDAT ??_C@_0BH@KH@glBlendFuncSeparateEXT?$AA@
CONST	SEGMENT DWORD USE32 PUBLIC 'CONST'
CONST	ENDS
;	COMDAT ??_C@_0BD@NDLE@glBlendEquationEXT?$AA@
CONST	SEGMENT DWORD USE32 PUBLIC 'CONST'
CONST	ENDS
;	COMDAT ??_C@_0BC@PIBE@glDeleteObjectARB?$AA@
CONST	SEGMENT DWORD USE32 PUBLIC 'CONST'
CONST	ENDS
;	COMDAT ??_C@_0P@GFKC@glGetHandleARB?$AA@
CONST	SEGMENT DWORD USE32 PUBLIC 'CONST'
CONST	ENDS
;	COMDAT ??_C@_0BC@CBIF@glDetachObjectARB?$AA@
CONST	SEGMENT DWORD USE32 PUBLIC 'CONST'
CONST	ENDS
;	COMDAT ??_C@_0BI@EPLB@glCreateShaderObjectARB?$AA@
CONST	SEGMENT DWORD USE32 PUBLIC 'CONST'
CONST	ENDS
;	COMDAT ??_C@_0BC@NPKF@glShaderSourceARB?$AA@
CONST	SEGMENT DWORD USE32 PUBLIC 'CONST'
CONST	ENDS
;	COMDAT ??_C@_0BD@KHGH@glCompileShaderARB?$AA@
CONST	SEGMENT DWORD USE32 PUBLIC 'CONST'
CONST	ENDS
;	COMDAT ??_C@_0BJ@HCBE@glCreateProgramObjectARB?$AA@
CONST	SEGMENT DWORD USE32 PUBLIC 'CONST'
CONST	ENDS
;	COMDAT ??_C@_0BC@EMOD@glAttachObjectARB?$AA@
CONST	SEGMENT DWORD USE32 PUBLIC 'CONST'
CONST	ENDS
;	COMDAT ??_C@_0BB@PIMF@glLinkProgramARB?$AA@
CONST	SEGMENT DWORD USE32 PUBLIC 'CONST'
CONST	ENDS
;	COMDAT ??_C@_0BG@IGNN@glUseProgramObjectARB?$AA@
CONST	SEGMENT DWORD USE32 PUBLIC 'CONST'
CONST	ENDS
;	COMDAT ??_C@_0BF@LMJF@glValidateProgramARB?$AA@
CONST	SEGMENT DWORD USE32 PUBLIC 'CONST'
CONST	ENDS
;	COMDAT ??_C@_0P@EEMG@glUniform1fARB?$AA@
CONST	SEGMENT DWORD USE32 PUBLIC 'CONST'
CONST	ENDS
;	COMDAT ??_C@_0P@KEKJ@glUniform2fARB?$AA@
CONST	SEGMENT DWORD USE32 PUBLIC 'CONST'
CONST	ENDS
;	COMDAT ??_C@_0P@EIM@glUniform3fARB?$AA@
CONST	SEGMENT DWORD USE32 PUBLIC 'CONST'
CONST	ENDS
;	COMDAT ??_C@_0P@GEHG@glUniform4fARB?$AA@
CONST	SEGMENT DWORD USE32 PUBLIC 'CONST'
CONST	ENDS
;	COMDAT ??_C@_0P@JEOI@glUniform1iARB?$AA@
CONST	SEGMENT DWORD USE32 PUBLIC 'CONST'
CONST	ENDS
;	COMDAT ??_C@_0P@HEIH@glUniform2iARB?$AA@
CONST	SEGMENT DWORD USE32 PUBLIC 'CONST'
CONST	ENDS
;	COMDAT ??_C@_0P@NEKC@glUniform3iARB?$AA@
CONST	SEGMENT DWORD USE32 PUBLIC 'CONST'
CONST	ENDS
;	COMDAT ??_C@_0P@LEFI@glUniform4iARB?$AA@
CONST	SEGMENT DWORD USE32 PUBLIC 'CONST'
CONST	ENDS
;	COMDAT ??_C@_0BA@NAIP@glUniform1fvARB?$AA@
CONST	SEGMENT DWORD USE32 PUBLIC 'CONST'
CONST	ENDS
;	COMDAT ??_C@_0BA@GOGP@glUniform2fvARB?$AA@
CONST	SEGMENT DWORD USE32 PUBLIC 'CONST'
CONST	ENDS
;	COMDAT ??_C@_0BA@PLMP@glUniform3fvARB?$AA@
CONST	SEGMENT DWORD USE32 PUBLIC 'CONST'
CONST	ENDS
;	COMDAT ??_C@_0BA@BDKP@glUniform4fvARB?$AA@
CONST	SEGMENT DWORD USE32 PUBLIC 'CONST'
CONST	ENDS
;	COMDAT ??_C@_0BA@LBFP@glUniform1ivARB?$AA@
CONST	SEGMENT DWORD USE32 PUBLIC 'CONST'
CONST	ENDS
;	COMDAT ??_C@_0BA@PLP@glUniform2ivARB?$AA@
CONST	SEGMENT DWORD USE32 PUBLIC 'CONST'
CONST	ENDS
;	COMDAT ??_C@_0BA@JKBP@glUniform3ivARB?$AA@
CONST	SEGMENT DWORD USE32 PUBLIC 'CONST'
CONST	ENDS
;	COMDAT ??_C@_0BA@HCHP@glUniform4ivARB?$AA@
CONST	SEGMENT DWORD USE32 PUBLIC 'CONST'
CONST	ENDS
;	COMDAT ??_C@_0BG@HEBC@glUniformMatrix2fvARB?$AA@
CONST	SEGMENT DWORD USE32 PUBLIC 'CONST'
CONST	ENDS
;	COMDAT ??_C@_0BG@OBLC@glUniformMatrix3fvARB?$AA@
CONST	SEGMENT DWORD USE32 PUBLIC 'CONST'
CONST	ENDS
;	COMDAT ??_C@_0BG@JNC@glUniformMatrix4fvARB?$AA@
CONST	SEGMENT DWORD USE32 PUBLIC 'CONST'
CONST	ENDS
;	COMDAT ??_C@_0BK@LDGO@glGetObjectParameterfvARB?$AA@
CONST	SEGMENT DWORD USE32 PUBLIC 'CONST'
CONST	ENDS
;	COMDAT ??_C@_0BK@NCLO@glGetObjectParameterivARB?$AA@
CONST	SEGMENT DWORD USE32 PUBLIC 'CONST'
CONST	ENDS
;	COMDAT ??_C@_0BA@CMKF@glGetInfoLogARB?$AA@
CONST	SEGMENT DWORD USE32 PUBLIC 'CONST'
CONST	ENDS
;	COMDAT ??_C@_0BI@GBKL@glGetAttachedObjectsARB?$AA@
CONST	SEGMENT DWORD USE32 PUBLIC 'CONST'
CONST	ENDS
;	COMDAT ??_C@_0BI@IDLL@glGetUniformLocationARB?$AA@
CONST	SEGMENT DWORD USE32 PUBLIC 'CONST'
CONST	ENDS
;	COMDAT ??_C@_0BG@JFEH@glGetActiveUniformARB?$AA@
CONST	SEGMENT DWORD USE32 PUBLIC 'CONST'
CONST	ENDS
;	COMDAT ??_C@_0BC@MDDE@glGetUniformfvARB?$AA@
CONST	SEGMENT DWORD USE32 PUBLIC 'CONST'
CONST	ENDS
;	COMDAT ??_C@_0BC@KCOE@glGetUniformivARB?$AA@
CONST	SEGMENT DWORD USE32 PUBLIC 'CONST'
CONST	ENDS
;	COMDAT ??_C@_0BF@DFJL@glGetShaderSourceARB?$AA@
CONST	SEGMENT DWORD USE32 PUBLIC 'CONST'
CONST	ENDS
;	COMDAT ??_C@_0BJ@BPFA@glVertexAttribPointerARB?$AA@
CONST	SEGMENT DWORD USE32 PUBLIC 'CONST'
CONST	ENDS
;	COMDAT ??_C@_0BN@DJDP@glEnableVertexAttribArrayARB?$AA@
CONST	SEGMENT DWORD USE32 PUBLIC 'CONST'
CONST	ENDS
;	COMDAT ??_C@_0BO@IOBM@glDisableVertexAttribArrayARB?$AA@
CONST	SEGMENT DWORD USE32 PUBLIC 'CONST'
CONST	ENDS
;	COMDAT ??_C@_0BI@IPDI@glBindAttribLocationARB?$AA@
CONST	SEGMENT DWORD USE32 PUBLIC 'CONST'
CONST	ENDS
;	COMDAT ??_C@_0BF@CFAG@glGetActiveAttribARB?$AA@
CONST	SEGMENT DWORD USE32 PUBLIC 'CONST'
CONST	ENDS
;	COMDAT ??_C@_0BH@LMPE@glGetAttribLocationARB?$AA@
CONST	SEGMENT DWORD USE32 PUBLIC 'CONST'
CONST	ENDS
;	COMDAT ??_C@_0BB@GLJM@glVertexAttrib2f?$AA@
CONST	SEGMENT DWORD USE32 PUBLIC 'CONST'
CONST	ENDS
;	COMDAT ??_C@_0BC@OEEJ@glVertexAttrib2fv?$AA@
CONST	SEGMENT DWORD USE32 PUBLIC 'CONST'
CONST	ENDS
;	COMDAT ??_C@_0BC@LGFP@glVertexAttrib3fv?$AA@
CONST	SEGMENT DWORD USE32 PUBLIC 'CONST'
CONST	ENDS
;	COMDAT ??_C@_0BB@BMGD@glVertexAttrib4f?$AA@
CONST	SEGMENT DWORD USE32 PUBLIC 'CONST'
CONST	ENDS
;	COMDAT ??_C@_0BC@IDO@glVertexAttrib4fv?$AA@
CONST	SEGMENT DWORD USE32 PUBLIC 'CONST'
CONST	ENDS
;	COMDAT ??_C@_0BD@IMHI@glVertexAttrib4ubv?$AA@
CONST	SEGMENT DWORD USE32 PUBLIC 'CONST'
CONST	ENDS
;	COMDAT ??_C@_0BA@DLFE@glBindBufferARB?$AA@
CONST	SEGMENT DWORD USE32 PUBLIC 'CONST'
CONST	ENDS
;	COMDAT ??_C@_0BD@NMOF@glDeleteBuffersARB?$AA@
CONST	SEGMENT DWORD USE32 PUBLIC 'CONST'
CONST	ENDS
;	COMDAT ??_C@_0BA@KOEM@glGenBuffersARB?$AA@
CONST	SEGMENT DWORD USE32 PUBLIC 'CONST'
CONST	ENDS
;	COMDAT ??_C@_0O@GDII@glIsBufferARB?$AA@
CONST	SEGMENT DWORD USE32 PUBLIC 'CONST'
CONST	ENDS
;	COMDAT ??_C@_0P@CBOK@glMapBufferARB?$AA@
CONST	SEGMENT DWORD USE32 PUBLIC 'CONST'
CONST	ENDS
;	COMDAT ??_C@_0BB@DPNF@glUnmapBufferARB?$AA@
CONST	SEGMENT DWORD USE32 PUBLIC 'CONST'
CONST	ENDS
;	COMDAT ??_C@_0BA@HHJE@glBufferDataARB?$AA@
CONST	SEGMENT DWORD USE32 PUBLIC 'CONST'
CONST	ENDS
;	COMDAT ??_C@_0BD@FIPI@glBufferSubDataARB?$AA@
CONST	SEGMENT DWORD USE32 PUBLIC 'CONST'
CONST	ENDS
;	COMDAT ??_C@_0BC@GKBG@glBindVertexArray?$AA@
CONST	SEGMENT DWORD USE32 PUBLIC 'CONST'
CONST	ENDS
;	COMDAT ??_C@_0BF@LBKN@glDeleteVertexArrays?$AA@
CONST	SEGMENT DWORD USE32 PUBLIC 'CONST'
CONST	ENDS
;	COMDAT ??_C@_0BC@HLGE@glGenVertexArrays?$AA@
CONST	SEGMENT DWORD USE32 PUBLIC 'CONST'
CONST	ENDS
;	COMDAT ??_C@_0BA@BCOG@glIsVertexArray?$AA@
CONST	SEGMENT DWORD USE32 PUBLIC 'CONST'
CONST	ENDS
;	COMDAT ??_C@_0BB@GNLM@glIsRenderbuffer?$AA@
CONST	SEGMENT DWORD USE32 PUBLIC 'CONST'
CONST	ENDS
;	COMDAT ??_C@_0BD@KHME@glBindRenderbuffer?$AA@
CONST	SEGMENT DWORD USE32 PUBLIC 'CONST'
CONST	ENDS
;	COMDAT ??_C@_0BG@KCGE@glDeleteRenderbuffers?$AA@
CONST	SEGMENT DWORD USE32 PUBLIC 'CONST'
CONST	ENDS
;	COMDAT ??_C@_0BD@PMKO@glGenRenderbuffers?$AA@
CONST	SEGMENT DWORD USE32 PUBLIC 'CONST'
CONST	ENDS
;	COMDAT ??_C@_0BG@HFLO@glRenderbufferStorage?$AA@
CONST	SEGMENT DWORD USE32 PUBLIC 'CONST'
CONST	ENDS
;	COMDAT ??_C@_0BN@IIKB@glGetRenderbufferParameteriv?$AA@
CONST	SEGMENT DWORD USE32 PUBLIC 'CONST'
CONST	ENDS
;	COMDAT ??_C@_0BA@CED@glIsFramebuffer?$AA@
CONST	SEGMENT DWORD USE32 PUBLIC 'CONST'
CONST	ENDS
;	COMDAT ??_C@_0BC@HKLD@glBindFramebuffer?$AA@
CONST	SEGMENT DWORD USE32 PUBLIC 'CONST'
CONST	ENDS
;	COMDAT ??_C@_0BF@DGLN@glDeleteFramebuffers?$AA@
CONST	SEGMENT DWORD USE32 PUBLIC 'CONST'
CONST	ENDS
;	COMDAT ??_C@_0BC@PMHE@glGenFramebuffers?$AA@
CONST	SEGMENT DWORD USE32 PUBLIC 'CONST'
CONST	ENDS
;	COMDAT ??_C@_0BJ@JLAM@glCheckFramebufferStatus?$AA@
CONST	SEGMENT DWORD USE32 PUBLIC 'CONST'
CONST	ENDS
;	COMDAT ??_C@_0BH@ECGF@glFramebufferTexture1D?$AA@
CONST	SEGMENT DWORD USE32 PUBLIC 'CONST'
CONST	ENDS
;	COMDAT ??_C@_0BH@HJJK@glFramebufferTexture2D?$AA@
CONST	SEGMENT DWORD USE32 PUBLIC 'CONST'
CONST	ENDS
;	COMDAT ??_C@_0BH@GPDA@glFramebufferTexture3D?$AA@
CONST	SEGMENT DWORD USE32 PUBLIC 'CONST'
CONST	ENDS
;	COMDAT ??_C@_0BK@JPJE@glFramebufferRenderbuffer?$AA@
CONST	SEGMENT DWORD USE32 PUBLIC 'CONST'
CONST	ENDS
;	COMDAT ??_C@_0CG@CBFL@glGetFramebufferAttachmentParame@
CONST	SEGMENT DWORD USE32 PUBLIC 'CONST'
CONST	ENDS
;	COMDAT ??_C@_0BB@OJAP@glGenerateMipmap?$AA@
CONST	SEGMENT DWORD USE32 PUBLIC 'CONST'
CONST	ENDS
;	COMDAT ??_C@_0BA@NAHP@glGenQueriesARB?$AA@
CONST	SEGMENT DWORD USE32 PUBLIC 'CONST'
CONST	ENDS
;	COMDAT ??_C@_0BD@KCNG@glDeleteQueriesARB?$AA@
CONST	SEGMENT DWORD USE32 PUBLIC 'CONST'
CONST	ENDS
;	COMDAT ??_C@_0N@IHPM@glIsQueryARB?$AA@
CONST	SEGMENT DWORD USE32 PUBLIC 'CONST'
CONST	ENDS
;	COMDAT ??_C@_0BA@OHED@glBeginQueryARB?$AA@
CONST	SEGMENT DWORD USE32 PUBLIC 'CONST'
CONST	ENDS
;	COMDAT ??_C@_0O@ENCE@glEndQueryARB?$AA@
CONST	SEGMENT DWORD USE32 PUBLIC 'CONST'
CONST	ENDS
;	COMDAT ??_C@_0BA@JCEF@glGetQueryivARB?$AA@
CONST	SEGMENT DWORD USE32 PUBLIC 'CONST'
CONST	ENDS
;	COMDAT ??_C@_0BG@LEAK@glGetQueryObjectivARB?$AA@
CONST	SEGMENT DWORD USE32 PUBLIC 'CONST'
CONST	ENDS
;	COMDAT ??_C@_0BH@OAHJ@glGetQueryObjectuivARB?$AA@
CONST	SEGMENT DWORD USE32 PUBLIC 'CONST'
CONST	ENDS
;	COMDAT ??_C@_0BG@IHGG@?$FO1OpenGL?5Error?3?$FO7?5?$CFs?6?$AA@
CONST	SEGMENT DWORD USE32 PUBLIC 'CONST'
CONST	ENDS
;	COMDAT ??_C@_0BI@KBAC@?$FO3OpenGL?5Warning?3?$FO7?5?$CFs?6?$AA@
CONST	SEGMENT DWORD USE32 PUBLIC 'CONST'
CONST	ENDS
;	COMDAT ??_C@_0BH@FJN@OpenGL?5Perfomance?3?5?$CFs?6?$AA@
CONST	SEGMENT DWORD USE32 PUBLIC 'CONST'
CONST	ENDS
;	COMDAT ??_C@_0M@BMCH@OpenGL?3?5?$CFs?6?$AA@
CONST	SEGMENT DWORD USE32 PUBLIC 'CONST'
CONST	ENDS
;	COMDAT ??_C@_0CH@GGOC@GL_SetExtension?3?5invalid?5extensi@
CONST	SEGMENT DWORD USE32 PUBLIC 'CONST'
CONST	ENDS
;	COMDAT ??_C@_0CC@FBCI@GL_Support?3?5invalid?5extension?5?$CFd@
CONST	SEGMENT DWORD USE32 PUBLIC 'CONST'
CONST	ENDS
;	COMDAT ??_C@_0BH@IELL@GL_CheckExtension?3?5?$CFs?5?$AA@
CONST	SEGMENT DWORD USE32 PUBLIC 'CONST'
CONST	ENDS
;	COMDAT ??_C@_0M@JGAI@?9?5?$FO1failed?6?$AA@
CONST	SEGMENT DWORD USE32 PUBLIC 'CONST'
CONST	ENDS
;	COMDAT ??_C@_01FBAH@1?$AA@
CONST	SEGMENT DWORD USE32 PUBLIC 'CONST'
CONST	ENDS
;	COMDAT ??_C@_0M@DJLK@?9?5disabled?6?$AA@
CONST	SEGMENT DWORD USE32 PUBLIC 'CONST'
CONST	ENDS
;	COMDAT ??_C@_0N@NMJC@?9?5?$FO2enabled?6?$AA@
CONST	SEGMENT DWORD USE32 PUBLIC 'CONST'
CONST	ENDS
;	COMDAT ??_C@_0FB@OLOB@too?5old?5version?5of?5Xash3D?5engine@
CONST	SEGMENT DWORD USE32 PUBLIC 'CONST'
CONST	ENDS
;	COMDAT ??_C@_0N@LKKG@OpenGL?51?41?40?$AA@
CONST	SEGMENT DWORD USE32 PUBLIC 'CONST'
CONST	ENDS
;	COMDAT ??_C@_0DJ@PLJ@OpenGL?51?40?5can?8t?5be?5installed?4?5C@
CONST	SEGMENT DWORD USE32 PUBLIC 'CONST'
CONST	ENDS
;	COMDAT ??_C@_07LDAK@geforce?$AA@
CONST	SEGMENT DWORD USE32 PUBLIC 'CONST'
CONST	ENDS
;	COMDAT ??_C@_09CLDH@quadro?5fx?$AA@
CONST	SEGMENT DWORD USE32 PUBLIC 'CONST'
CONST	ENDS
;	COMDAT ??_C@_05MDAL@rv770?$AA@
CONST	SEGMENT DWORD USE32 PUBLIC 'CONST'
CONST	ENDS
;	COMDAT ??_C@_09FNHN@radeon?5hd?$AA@
CONST	SEGMENT DWORD USE32 PUBLIC 'CONST'
CONST	ENDS
;	COMDAT ??_C@_07DHCM@eah4850?$AA@
CONST	SEGMENT DWORD USE32 PUBLIC 'CONST'
CONST	ENDS
;	COMDAT ??_C@_07BKHJ@eah4870?$AA@
CONST	SEGMENT DWORD USE32 PUBLIC 'CONST'
CONST	ENDS
;	COMDAT ??_C@_06EBDE@radeon?$AA@
CONST	SEGMENT DWORD USE32 PUBLIC 'CONST'
CONST	ENDS
;	COMDAT ??_C@_0BE@NIJB@gl_drawrangeelments?$AA@
CONST	SEGMENT DWORD USE32 PUBLIC 'CONST'
CONST	ENDS
;	COMDAT ??_C@_0BL@NAPA@GL_EXT_draw_range_elements?$AA@
CONST	SEGMENT DWORD USE32 PUBLIC 'CONST'
CONST	ENDS
;	COMDAT ??_C@_0EC@CHCD@GL_EXT_draw_range_elements?5not?5s@
CONST	SEGMENT DWORD USE32 PUBLIC 'CONST'
CONST	ENDS
;	COMDAT ??_C@_0BE@FNCD@gl_arb_multitexture?$AA@
CONST	SEGMENT DWORD USE32 PUBLIC 'CONST'
CONST	ENDS
;	COMDAT ??_C@_0BE@EHGK@GL_ARB_multitexture?$AA@
CONST	SEGMENT DWORD USE32 PUBLIC 'CONST'
CONST	ENDS
;	COMDAT ??_C@_0DL@FPBP@GL_ARB_multitexture?5not?5support?4@
CONST	SEGMENT DWORD USE32 PUBLIC 'CONST'
CONST	ENDS
;	COMDAT ??_C@_0O@DAMC@gl_texture_3d?$AA@
CONST	SEGMENT DWORD USE32 PUBLIC 'CONST'
CONST	ENDS
;	COMDAT ??_C@_0BB@JKDM@GL_EXT_texture3D?$AA@
CONST	SEGMENT DWORD USE32 PUBLIC 'CONST'
CONST	ENDS
;	COMDAT ??_C@_0EC@NDJE@GL_EXT_texture3D?5reported?5bogus?5@
CONST	SEGMENT DWORD USE32 PUBLIC 'CONST'
CONST	ENDS
;	COMDAT ??_C@_0BE@PKC@gl_texture_2d_array?$AA@
CONST	SEGMENT DWORD USE32 PUBLIC 'CONST'
CONST	ENDS
;	COMDAT ??_C@_0BF@GPMN@GL_EXT_texture_array?$AA@
CONST	SEGMENT DWORD USE32 PUBLIC 'CONST'
CONST	ENDS
;	COMDAT ??_C@_0EC@GAH@GL_EXT_texture_array?5not?5support@
CONST	SEGMENT DWORD USE32 PUBLIC 'CONST'
CONST	ENDS
;	COMDAT ??_C@_0BD@JPCC@gl_texture_cubemap?$AA@
CONST	SEGMENT DWORD USE32 PUBLIC 'CONST'
CONST	ENDS
;	COMDAT ??_C@_0BI@BMEH@GL_ARB_texture_cube_map?$AA@
CONST	SEGMENT DWORD USE32 PUBLIC 'CONST'
CONST	ENDS
;	COMDAT ??_C@_0FM@JLFB@GL_ARB_texture_cube_map?5not?5supp@
CONST	SEGMENT DWORD USE32 PUBLIC 'CONST'
CONST	ENDS
;	COMDAT ??_C@_0BA@NMAL@gl_texture_npot?$AA@
CONST	SEGMENT DWORD USE32 PUBLIC 'CONST'
CONST	ENDS
;	COMDAT ??_C@_0CA@FJOC@GL_ARB_texture_non_power_of_two?$AA@
CONST	SEGMENT DWORD USE32 PUBLIC 'CONST'
CONST	ENDS
;	COMDAT ??_C@_0BI@OBAB@gl_vertex_buffer_object?$AA@
CONST	SEGMENT DWORD USE32 PUBLIC 'CONST'
CONST	ENDS
;	COMDAT ??_C@_0BM@HCAG@GL_ARB_vertex_buffer_object?$AA@
CONST	SEGMENT DWORD USE32 PUBLIC 'CONST'
CONST	ENDS
;	COMDAT ??_C@_0ED@PDBL@GL_ARB_vertex_buffer_object?5not?5@
CONST	SEGMENT DWORD USE32 PUBLIC 'CONST'
CONST	ENDS
;	COMDAT ??_C@_0BH@DDOL@gl_vertex_array_object?$AA@
CONST	SEGMENT DWORD USE32 PUBLIC 'CONST'
CONST	ENDS
;	COMDAT ??_C@_0BL@DEIH@GL_ARB_vertex_array_object?$AA@
CONST	SEGMENT DWORD USE32 PUBLIC 'CONST'
CONST	ENDS
;	COMDAT ??_C@_0EC@GGIC@GL_ARB_vertex_array_object?5not?5s@
CONST	SEGMENT DWORD USE32 PUBLIC 'CONST'
CONST	ENDS
;	COMDAT ??_C@_0BD@GLDC@gl_ext_gpu_shader4?$AA@
CONST	SEGMENT DWORD USE32 PUBLIC 'CONST'
CONST	ENDS
;	COMDAT ??_C@_0BD@CCBE@GL_EXT_gpu_shader4?$AA@
CONST	SEGMENT DWORD USE32 PUBLIC 'CONST'
CONST	ENDS
;	COMDAT ??_C@_0BE@IKOO@GL_ARB_debug_output?$AA@
CONST	SEGMENT DWORD USE32 PUBLIC 'CONST'
CONST	ENDS
;	COMDAT ??_C@_0BB@MEGL@gl_shaderobjects?$AA@
CONST	SEGMENT DWORD USE32 PUBLIC 'CONST'
CONST	ENDS
;	COMDAT ??_C@_0BG@KEPG@GL_ARB_shader_objects?$AA@
CONST	SEGMENT DWORD USE32 PUBLIC 'CONST'
CONST	ENDS
;	COMDAT ??_C@_0DN@JJGE@GL_ARB_shader_objects?5not?5suppor@
CONST	SEGMENT DWORD USE32 PUBLIC 'CONST'
CONST	ENDS
;	COMDAT ??_C@_0BE@JDFA@gl_shading_language?$AA@
CONST	SEGMENT DWORD USE32 PUBLIC 'CONST'
CONST	ENDS
;	COMDAT ??_C@_0BM@BHKJ@GL_ARB_shading_language_100?$AA@
CONST	SEGMENT DWORD USE32 PUBLIC 'CONST'
CONST	ENDS
;	COMDAT ??_C@_0ED@LPKD@GL_ARB_shading_language_100?5not?5@
CONST	SEGMENT DWORD USE32 PUBLIC 'CONST'
CONST	ENDS
;	COMDAT ??_C@_0BA@FCIN@gl_vertexshader?$AA@
CONST	SEGMENT DWORD USE32 PUBLIC 'CONST'
CONST	ENDS
;	COMDAT ??_C@_0BF@HLIM@GL_ARB_vertex_shader?$AA@
CONST	SEGMENT DWORD USE32 PUBLIC 'CONST'
CONST	ENDS
;	COMDAT ??_C@_0DM@OFIB@GL_ARB_vertex_shader?5not?5support@
CONST	SEGMENT DWORD USE32 PUBLIC 'CONST'
CONST	ENDS
;	COMDAT ??_C@_0P@MEOB@gl_pixelshader?$AA@
CONST	SEGMENT DWORD USE32 PUBLIC 'CONST'
CONST	ENDS
;	COMDAT ??_C@_0BH@KFOL@GL_ARB_fragment_shader?$AA@
CONST	SEGMENT DWORD USE32 PUBLIC 'CONST'
CONST	ENDS
;	COMDAT ??_C@_0DO@EHPP@GL_ARB_fragment_shader?5not?5suppo@
CONST	SEGMENT DWORD USE32 PUBLIC 'CONST'
CONST	ENDS
;	COMDAT ??_C@_0BA@OLNG@gl_depthtexture?$AA@
CONST	SEGMENT DWORD USE32 PUBLIC 'CONST'
CONST	ENDS
;	COMDAT ??_C@_0BF@KPLK@GL_ARB_depth_texture?$AA@
CONST	SEGMENT DWORD USE32 PUBLIC 'CONST'
CONST	ENDS
;	COMDAT ??_C@_0O@EGIH@gl_arb_shadow?$AA@
CONST	SEGMENT DWORD USE32 PUBLIC 'CONST'
CONST	ENDS
;	COMDAT ??_C@_0O@GCPF@GL_ARB_shadow?$AA@
CONST	SEGMENT DWORD USE32 PUBLIC 'CONST'
CONST	ENDS
;	COMDAT ??_C@_0EN@IMBG@GL_ARB_depth_texture?5or?5GL_ARB_s@
CONST	SEGMENT DWORD USE32 PUBLIC 'CONST'
CONST	ENDS
;	COMDAT ??_C@_0BA@FMLF@gl_framebuffers?$AA@
CONST	SEGMENT DWORD USE32 PUBLIC 'CONST'
CONST	ENDS
;	COMDAT ??_C@_0BK@PNNB@GL_ARB_framebuffer_object?$AA@
CONST	SEGMENT DWORD USE32 PUBLIC 'CONST'
CONST	ENDS
;	COMDAT ??_C@_0BC@PPEB@PARANOIA_HACKS_V1?$AA@
CONST	SEGMENT DWORD USE32 PUBLIC 'CONST'
CONST	ENDS
;	COMDAT ??_C@_0DJ@NHKL@Hardware?5Skinning?5not?5support?4?5C@
CONST	SEGMENT DWORD USE32 PUBLIC 'CONST'
CONST	ENDS
;	COMDAT ??_C@_0DD@KJDP@Hardware?5Skinning?5has?5a?5limitati@
CONST	SEGMENT DWORD USE32 PUBLIC 'CONST'
CONST	ENDS
;	COMDAT ??_C@_0CL@LOID@GL_InitExtensions?3?5max?5vertex?5un@
CONST	SEGMENT DWORD USE32 PUBLIC 'CONST'
CONST	ENDS
;	COMDAT ??_C@_0CK@PCHI@GL_InitExtensions?3?5max?5varying?5f@
CONST	SEGMENT DWORD USE32 PUBLIC 'CONST'
CONST	ENDS
;	COMDAT ??_C@_0CI@DGHF@GL_InitExtensions?3?5MaxSkinned?5bo@
CONST	SEGMENT DWORD USE32 PUBLIC 'CONST'
CONST	ENDS
;	COMDAT ??_C@_0L@IMPG@?$CKspotlight?$AA@
CONST	SEGMENT DWORD USE32 PUBLIC 'CONST'
CONST	ENDS
;	COMDAT ??_C@_06KOFE@?$CKacont?$AA@
CONST	SEGMENT DWORD USE32 PUBLIC 'CONST'
CONST	ENDS
;	COMDAT ??_C@_0L@NEOO@?$CKwhiteCube?$AA@
CONST	SEGMENT DWORD USE32 PUBLIC 'CONST'
CONST	ENDS
;	COMDAT ??_C@_08IILE@?$CKdefault?$AA@
CONST	SEGMENT DWORD USE32 PUBLIC 'CONST'
CONST	ENDS
;	COMDAT ??_C@_06DEIA@?$CKwhite?$AA@
CONST	SEGMENT DWORD USE32 PUBLIC 'CONST'
CONST	ENDS
;	COMDAT ??_C@_05MKKJ@?$CKgray?$AA@
CONST	SEGMENT DWORD USE32 PUBLIC 'CONST'
CONST	ENDS
;	COMDAT ??_C@_06PLIK@?$CKdepth?$AA@
CONST	SEGMENT DWORD USE32 PUBLIC 'CONST'
CONST	ENDS
;	COMDAT ??_C@_0M@IPEA@gl_renderer?$AA@
CONST	SEGMENT DWORD USE32 PUBLIC 'CONST'
CONST	ENDS
;	COMDAT ??_C@_0BC@GIMK@GL_STACK_OVERFLOW?$AA@
CONST	SEGMENT DWORD USE32 PUBLIC 'CONST'
CONST	ENDS
;	COMDAT ??_C@_0BD@OFDG@GL_STACK_UNDERFLOW?$AA@
CONST	SEGMENT DWORD USE32 PUBLIC 'CONST'
CONST	ENDS
;	COMDAT ??_C@_0BA@CPMK@GL_INVALID_ENUM?$AA@
CONST	SEGMENT DWORD USE32 PUBLIC 'CONST'
CONST	ENDS
;	COMDAT ??_C@_0BB@IOAE@GL_INVALID_VALUE?$AA@
CONST	SEGMENT DWORD USE32 PUBLIC 'CONST'
CONST	ENDS
;	COMDAT ??_C@_0BF@FONF@GL_INVALID_OPERATION?$AA@
CONST	SEGMENT DWORD USE32 PUBLIC 'CONST'
CONST	ENDS
;	COMDAT ??_C@_0BB@OEHJ@GL_OUT_OF_MEMORY?$AA@
CONST	SEGMENT DWORD USE32 PUBLIC 'CONST'
CONST	ENDS
;	COMDAT ??_C@_0O@DPFN@UNKNOWN?5ERROR?$AA@
CONST	SEGMENT DWORD USE32 PUBLIC 'CONST'
CONST	ENDS
;	COMDAT ??_C@_0CI@BOBI@?$FO3OpenGL?5Error?3?$FO7?5?$CFs?5?$CIcalled?5at?5@
CONST	SEGMENT DWORD USE32 PUBLIC 'CONST'
CONST	ENDS
;	COMDAT ??_C@_0CF@KIKJ@z?3?2xashxtsrc?2game_shared?2utlmemo@
CONST	SEGMENT DWORD USE32 PUBLIC 'CONST'
CONST	ENDS
;	COMDAT ??_C@_0P@MOH@nGrowSize?5?$DO?$DN?50?$AA@
CONST	SEGMENT DWORD USE32 PUBLIC 'CONST'
CONST	ENDS
;	COMDAT ??_C@_0O@KBCN@?$CBIsReadOnly?$CI?$CJ?$AA@
CONST	SEGMENT DWORD USE32 PUBLIC 'CONST'
CONST	ENDS
;	COMDAT ??_C@_0O@MLLF@IsIdxValid?$CIi?$CJ?$AA@
CONST	SEGMENT DWORD USE32 PUBLIC 'CONST'
CONST	ENDS
CRT$XCA	SEGMENT DWORD USE32 PUBLIC 'DATA'
CRT$XCA	ENDS
CRT$XCU	SEGMENT DWORD USE32 PUBLIC 'DATA'
CRT$XCU	ENDS
CRT$XCL	SEGMENT DWORD USE32 PUBLIC 'DATA'
CRT$XCL	ENDS
CRT$XCC	SEGMENT DWORD USE32 PUBLIC 'DATA'
CRT$XCC	ENDS
CRT$XCZ	SEGMENT DWORD USE32 PUBLIC 'DATA'
CRT$XCZ	ENDS
;	COMDAT ??8@YAHABU_GUID@@0@Z
_TEXT	SEGMENT PARA USE32 PUBLIC 'CODE'
_TEXT	ENDS
;	COMDAT ?SinCos@@YAXMPAM0@Z
_TEXT	SEGMENT PARA USE32 PUBLIC 'CODE'
_TEXT	ENDS
;	COMDAT ??0Vector2D@@QAE@XZ
_TEXT	SEGMENT PARA USE32 PUBLIC 'CODE'
_TEXT	ENDS
;	COMDAT ??0Vector2D@@QAE@MM@Z
_TEXT	SEGMENT PARA USE32 PUBLIC 'CODE'
_TEXT	ENDS
;	COMDAT ??DVector2D@@QBE?AV0@M@Z
_TEXT	SEGMENT PARA USE32 PUBLIC 'CODE'
_TEXT	ENDS
;	COMDAT ?Length@Vector2D@@QBEMXZ
_TEXT	SEGMENT PARA USE32 PUBLIC 'CODE'
_TEXT	ENDS
;	COMDAT ??0Vector@@QAE@XZ
_TEXT	SEGMENT PARA USE32 PUBLIC 'CODE'
_TEXT	ENDS
;	COMDAT ??0Vector@@QAE@MMM@Z
_TEXT	SEGMENT PARA USE32 PUBLIC 'CODE'
_TEXT	ENDS
;	COMDAT ??0Vector@@QAE@ABV0@@Z
_TEXT	SEGMENT PARA USE32 PUBLIC 'CODE'
_TEXT	ENDS
;	COMDAT ??0Vector@@QAE@QAM@Z
_TEXT	SEGMENT PARA USE32 PUBLIC 'CODE'
_TEXT	ENDS
;	COMDAT ?Init@Vector@@QAEXMMM@Z
_TEXT	SEGMENT PARA USE32 PUBLIC 'CODE'
_TEXT	ENDS
;	COMDAT ??8Vector@@QBEHABV0@@Z
_TEXT	SEGMENT PARA USE32 PUBLIC 'CODE'
_TEXT	ENDS
;	COMDAT ??DVector@@QBE?AV0@M@Z
_TEXT	SEGMENT PARA USE32 PUBLIC 'CODE'
_TEXT	ENDS
;	COMDAT ?Length@Vector@@QBEMXZ
_TEXT	SEGMENT PARA USE32 PUBLIC 'CODE'
_TEXT	ENDS
;	COMDAT ??BVector@@QAEPAMXZ
_TEXT	SEGMENT PARA USE32 PUBLIC 'CODE'
_TEXT	ENDS
;	COMDAT ??BVector@@QBEPBMXZ
_TEXT	SEGMENT PARA USE32 PUBLIC 'CODE'
_TEXT	ENDS
;	COMDAT ??0Vector4D@@QAE@XZ
_TEXT	SEGMENT PARA USE32 PUBLIC 'CODE'
_TEXT	ENDS
;	COMDAT ??0Vector4D@@QAE@MMMM@Z
_TEXT	SEGMENT PARA USE32 PUBLIC 'CODE'
_TEXT	ENDS
;	COMDAT ??0Vector4D@@QAE@ABV0@@Z
_TEXT	SEGMENT PARA USE32 PUBLIC 'CODE'
_TEXT	ENDS
;	COMDAT ??BVector4D@@QAEPAMXZ
_TEXT	SEGMENT PARA USE32 PUBLIC 'CODE'
_TEXT	ENDS
;	COMDAT ??BVector4D@@QBEPBMXZ
_TEXT	SEGMENT PARA USE32 PUBLIC 'CODE'
_TEXT	ENDS
;	COMDAT ??BVector4D@@QAE?AVVector@@XZ
_TEXT	SEGMENT PARA USE32 PUBLIC 'CODE'
_TEXT	ENDS
;	COMDAT ??BVector4D@@QBE?BVVector@@XZ
_TEXT	SEGMENT PARA USE32 PUBLIC 'CODE'
_TEXT	ENDS
;	COMDAT ?Length@Vector4D@@QBEMXZ
_TEXT	SEGMENT PARA USE32 PUBLIC 'CODE'
_TEXT	ENDS
;	COMDAT ??8Vector4D@@QBE_NABV0@@Z
_TEXT	SEGMENT PARA USE32 PUBLIC 'CODE'
_TEXT	ENDS
;	COMDAT ??0Radian@@QAE@MMM@Z
_TEXT	SEGMENT PARA USE32 PUBLIC 'CODE'
_TEXT	ENDS
;	COMDAT ??BRadian@@QBEPBMXZ
_TEXT	SEGMENT PARA USE32 PUBLIC 'CODE'
_TEXT	ENDS
;	COMDAT ??8Radian@@QBEHABV0@@Z
_TEXT	SEGMENT PARA USE32 PUBLIC 'CODE'
_TEXT	ENDS
;	COMDAT ??0matrix3x3@@QAE@MMMMMMMMM@Z
_TEXT	SEGMENT PARA USE32 PUBLIC 'CODE'
_TEXT	ENDS
;	COMDAT ??Amatrix3x3@@QBEPBMH@Z
_TEXT	SEGMENT PARA USE32 PUBLIC 'CODE'
_TEXT	ENDS
;	COMDAT ??8matrix3x3@@QBEHABV0@@Z
_TEXT	SEGMENT PARA USE32 PUBLIC 'CODE'
_TEXT	ENDS
;	COMDAT ?GetAngles@matrix3x3@@QAE?AVVector@@XZ
_TEXT	SEGMENT PARA USE32 PUBLIC 'CODE'
_TEXT	ENDS
;	COMDAT ??_H@YGXPAXIHP6EX0@Z@Z
_TEXT	SEGMENT PARA USE32 PUBLIC 'CODE'
_TEXT	ENDS
;	COMDAT ??0matrix3x3@@QAE@ABV0@@Z
_TEXT	SEGMENT PARA USE32 PUBLIC 'CODE'
_TEXT	ENDS
;	COMDAT ??0matrix3x4@@QAE@MMMMMMMMMMMM@Z
_TEXT	SEGMENT PARA USE32 PUBLIC 'CODE'
_TEXT	ENDS
;	COMDAT ??Amatrix3x4@@QBEPBMH@Z
_TEXT	SEGMENT PARA USE32 PUBLIC 'CODE'
_TEXT	ENDS
;	COMDAT ??8matrix3x4@@QBEHABV0@@Z
_TEXT	SEGMENT PARA USE32 PUBLIC 'CODE'
_TEXT	ENDS
;	COMDAT ?GetAngles@matrix3x4@@QAE?AVVector@@XZ
_TEXT	SEGMENT PARA USE32 PUBLIC 'CODE'
_TEXT	ENDS
;	COMDAT ??0matrix3x4@@QAE@ABV0@@Z
_TEXT	SEGMENT PARA USE32 PUBLIC 'CODE'
_TEXT	ENDS
;	COMDAT ??0matrix4x4@@QAE@MMMMMMMMMMMMMMMM@Z
_TEXT	SEGMENT PARA USE32 PUBLIC 'CODE'
_TEXT	ENDS
;	COMDAT ??Amatrix4x4@@QBEPBMH@Z
_TEXT	SEGMENT PARA USE32 PUBLIC 'CODE'
_TEXT	ENDS
;	COMDAT ??8matrix4x4@@QBEHABV0@@Z
_TEXT	SEGMENT PARA USE32 PUBLIC 'CODE'
_TEXT	ENDS
;	COMDAT ?GetAngles@matrix4x4@@QAE?AVVector@@XZ
_TEXT	SEGMENT PARA USE32 PUBLIC 'CODE'
_TEXT	ENDS
;	COMDAT ??0matrix4x4@@QAE@ABV0@@Z
_TEXT	SEGMENT PARA USE32 PUBLIC 'CODE'
_TEXT	ENDS
;	COMDAT ?SimpleSpline@@YAMM@Z
_TEXT	SEGMENT PARA USE32 PUBLIC 'CODE'
_TEXT	ENDS
;	COMDAT ?Random@RandomRange@@QAEMXZ
_TEXT	SEGMENT PARA USE32 PUBLIC 'CODE'
_TEXT	ENDS
;	COMDAT ??1CHudBase@@UAE@XZ
_TEXT	SEGMENT PARA USE32 PUBLIC 'CODE'
_TEXT	ENDS
;	COMDAT ?Init@CHudBase@@UAEHXZ
_TEXT	SEGMENT PARA USE32 PUBLIC 'CODE'
_TEXT	ENDS
;	COMDAT ?VidInit@CHudBase@@UAEHXZ
_TEXT	SEGMENT PARA USE32 PUBLIC 'CODE'
_TEXT	ENDS
;	COMDAT ?Draw@CHudBase@@UAEHM@Z
_TEXT	SEGMENT PARA USE32 PUBLIC 'CODE'
_TEXT	ENDS
;	COMDAT ?Think@CHudBase@@UAEXXZ
_TEXT	SEGMENT PARA USE32 PUBLIC 'CODE'
_TEXT	ENDS
;	COMDAT ?Reset@CHudBase@@UAEXXZ
_TEXT	SEGMENT PARA USE32 PUBLIC 'CODE'
_TEXT	ENDS
;	COMDAT ?InitHUDData@CHudBase@@UAEXXZ
_TEXT	SEGMENT PARA USE32 PUBLIC 'CODE'
_TEXT	ENDS
;	COMDAT ??_GCHudBase@@UAEPAXI@Z
_TEXT	SEGMENT PARA USE32 PUBLIC 'CODE'
_TEXT	ENDS
;	COMDAT ??0CHudAmmo@@QAE@XZ
_TEXT	SEGMENT PARA USE32 PUBLIC 'CODE'
_TEXT	ENDS
;	COMDAT ??1CHudAmmo@@UAE@XZ
_TEXT	SEGMENT PARA USE32 PUBLIC 'CODE'
_TEXT	ENDS
;	COMDAT ??0CHudHealth@@QAE@XZ
_TEXT	SEGMENT PARA USE32 PUBLIC 'CODE'
_TEXT	ENDS
;	COMDAT ??1CHudHealth@@UAE@XZ
_TEXT	SEGMENT PARA USE32 PUBLIC 'CODE'
_TEXT	ENDS
;	COMDAT ??0CHudGeiger@@QAE@XZ
_TEXT	SEGMENT PARA USE32 PUBLIC 'CODE'
_TEXT	ENDS
;	COMDAT ??1CHudGeiger@@UAE@XZ
_TEXT	SEGMENT PARA USE32 PUBLIC 'CODE'
_TEXT	ENDS
;	COMDAT ??0CHudBattery@@QAE@XZ
_TEXT	SEGMENT PARA USE32 PUBLIC 'CODE'
_TEXT	ENDS
;	COMDAT ??1CHudBattery@@UAE@XZ
_TEXT	SEGMENT PARA USE32 PUBLIC 'CODE'
_TEXT	ENDS
;	COMDAT ??0CHudTrain@@QAE@XZ
_TEXT	SEGMENT PARA USE32 PUBLIC 'CODE'
_TEXT	ENDS
;	COMDAT ??1CHudTrain@@UAE@XZ
_TEXT	SEGMENT PARA USE32 PUBLIC 'CODE'
_TEXT	ENDS
;	COMDAT ??0CHudFlashlight@@QAE@XZ
_TEXT	SEGMENT PARA USE32 PUBLIC 'CODE'
_TEXT	ENDS
;	COMDAT ??1CHudFlashlight@@UAE@XZ
_TEXT	SEGMENT PARA USE32 PUBLIC 'CODE'
_TEXT	ENDS
;	COMDAT ??0CHudMessage@@QAE@XZ
_TEXT	SEGMENT PARA USE32 PUBLIC 'CODE'
_TEXT	ENDS
;	COMDAT ??1CHudMessage@@UAE@XZ
_TEXT	SEGMENT PARA USE32 PUBLIC 'CODE'
_TEXT	ENDS
;	COMDAT ??0CHudScoreboard@@QAE@XZ
_TEXT	SEGMENT PARA USE32 PUBLIC 'CODE'
_TEXT	ENDS
;	COMDAT ??1CHudScoreboard@@UAE@XZ
_TEXT	SEGMENT PARA USE32 PUBLIC 'CODE'
_TEXT	ENDS
;	COMDAT ??0CHudStatusBar@@QAE@XZ
_TEXT	SEGMENT PARA USE32 PUBLIC 'CODE'
_TEXT	ENDS
;	COMDAT ??1CHudStatusBar@@UAE@XZ
_TEXT	SEGMENT PARA USE32 PUBLIC 'CODE'
_TEXT	ENDS
;	COMDAT ??0CHudDeathNotice@@QAE@XZ
_TEXT	SEGMENT PARA USE32 PUBLIC 'CODE'
_TEXT	ENDS
;	COMDAT ??1CHudDeathNotice@@UAE@XZ
_TEXT	SEGMENT PARA USE32 PUBLIC 'CODE'
_TEXT	ENDS
;	COMDAT ??0CHudSayText@@QAE@XZ
_TEXT	SEGMENT PARA USE32 PUBLIC 'CODE'
_TEXT	ENDS
;	COMDAT ??1CHudSayText@@UAE@XZ
_TEXT	SEGMENT PARA USE32 PUBLIC 'CODE'
_TEXT	ENDS
;	COMDAT ??0CHudMenu@@QAE@XZ
_TEXT	SEGMENT PARA USE32 PUBLIC 'CODE'
_TEXT	ENDS
;	COMDAT ??1CHudMenu@@UAE@XZ
_TEXT	SEGMENT PARA USE32 PUBLIC 'CODE'
_TEXT	ENDS
;	COMDAT ??0CHudAmmoSecondary@@QAE@XZ
_TEXT	SEGMENT PARA USE32 PUBLIC 'CODE'
_TEXT	ENDS
;	COMDAT ??1CHudAmmoSecondary@@UAE@XZ
_TEXT	SEGMENT PARA USE32 PUBLIC 'CODE'
_TEXT	ENDS
;	COMDAT ??0CHudTextMessage@@QAE@XZ
_TEXT	SEGMENT PARA USE32 PUBLIC 'CODE'
_TEXT	ENDS
;	COMDAT ??1CHudTextMessage@@UAE@XZ
_TEXT	SEGMENT PARA USE32 PUBLIC 'CODE'
_TEXT	ENDS
;	COMDAT ??0CHudStatusIcons@@QAE@XZ
_TEXT	SEGMENT PARA USE32 PUBLIC 'CODE'
_TEXT	ENDS
;	COMDAT ??1CHudStatusIcons@@UAE@XZ
_TEXT	SEGMENT PARA USE32 PUBLIC 'CODE'
_TEXT	ENDS
;	COMDAT ??0CHudMOTD@@QAE@XZ
_TEXT	SEGMENT PARA USE32 PUBLIC 'CODE'
_TEXT	ENDS
;	COMDAT ??1CHudMOTD@@UAE@XZ
_TEXT	SEGMENT PARA USE32 PUBLIC 'CODE'
_TEXT	ENDS
;	COMDAT ??0ViewSmoothingData_t@@QAE@XZ
_TEXT	SEGMENT PARA USE32 PUBLIC 'CODE'
_TEXT	ENDS
;	COMDAT ??_GCHudAmmo@@UAEPAXI@Z
_TEXT	SEGMENT PARA USE32 PUBLIC 'CODE'
_TEXT	ENDS
;	COMDAT ??0CHudBase@@QAE@XZ
_TEXT	SEGMENT PARA USE32 PUBLIC 'CODE'
_TEXT	ENDS
;	COMDAT ??_GCHudHealth@@UAEPAXI@Z
_TEXT	SEGMENT PARA USE32 PUBLIC 'CODE'
_TEXT	ENDS
;	COMDAT ??_GCHudGeiger@@UAEPAXI@Z
_TEXT	SEGMENT PARA USE32 PUBLIC 'CODE'
_TEXT	ENDS
;	COMDAT ??_GCHudBattery@@UAEPAXI@Z
_TEXT	SEGMENT PARA USE32 PUBLIC 'CODE'
_TEXT	ENDS
;	COMDAT ??_GCHudTrain@@UAEPAXI@Z
_TEXT	SEGMENT PARA USE32 PUBLIC 'CODE'
_TEXT	ENDS
;	COMDAT ??_GCHudFlashlight@@UAEPAXI@Z
_TEXT	SEGMENT PARA USE32 PUBLIC 'CODE'
_TEXT	ENDS
;	COMDAT ??_GCHudMessage@@UAEPAXI@Z
_TEXT	SEGMENT PARA USE32 PUBLIC 'CODE'
_TEXT	ENDS
;	COMDAT ??_GCHudScoreboard@@UAEPAXI@Z
_TEXT	SEGMENT PARA USE32 PUBLIC 'CODE'
_TEXT	ENDS
;	COMDAT ??_GCHudStatusBar@@UAEPAXI@Z
_TEXT	SEGMENT PARA USE32 PUBLIC 'CODE'
_TEXT	ENDS
;	COMDAT ??_GCHudDeathNotice@@UAEPAXI@Z
_TEXT	SEGMENT PARA USE32 PUBLIC 'CODE'
_TEXT	ENDS
;	COMDAT ??_GCHudSayText@@UAEPAXI@Z
_TEXT	SEGMENT PARA USE32 PUBLIC 'CODE'
_TEXT	ENDS
;	COMDAT ??_GCHudMenu@@UAEPAXI@Z
_TEXT	SEGMENT PARA USE32 PUBLIC 'CODE'
_TEXT	ENDS
;	COMDAT ??_GCHudAmmoSecondary@@UAEPAXI@Z
_TEXT	SEGMENT PARA USE32 PUBLIC 'CODE'
_TEXT	ENDS
;	COMDAT ??_GCHudTextMessage@@UAEPAXI@Z
_TEXT	SEGMENT PARA USE32 PUBLIC 'CODE'
_TEXT	ENDS
;	COMDAT ??_GCHudStatusIcons@@UAEPAXI@Z
_TEXT	SEGMENT PARA USE32 PUBLIC 'CODE'
_TEXT	ENDS
;	COMDAT ??_GCHudMOTD@@UAEPAXI@Z
_TEXT	SEGMENT PARA USE32 PUBLIC 'CODE'
_TEXT	ENDS
;	COMDAT ?pHitboxSet@CStudioBoneSetup@@QBEPAUmstudiohitboxset_t@@H@Z
_TEXT	SEGMENT PARA USE32 PUBLIC 'CODE'
_TEXT	ENDS
;	COMDAT ?InitBoneWeights@CStudioBoneSetup@@AAEXXZ
_TEXT	SEGMENT PARA USE32 PUBLIC 'CODE'
_TEXT	ENDS
;	COMDAT ?debugMsg@CStudioBoneSetup@@UAAXPADZZ
_TEXT	SEGMENT PARA USE32 PUBLIC 'CODE'
_TEXT	ENDS
;	COMDAT ?debugLine@CStudioBoneSetup@@UAEXABVVector@@0HHH_NM@Z
_TEXT	SEGMENT PARA USE32 PUBLIC 'CODE'
_TEXT	ENDS
;	COMDAT _$E13
_TEXT	SEGMENT PARA USE32 PUBLIC 'CODE'
_TEXT	ENDS
;	COMDAT _$E14
_TEXT	SEGMENT PARA USE32 PUBLIC 'CODE'
_TEXT	ENDS
;	COMDAT ??0glState_t@@QAE@XZ
_TEXT	SEGMENT PARA USE32 PUBLIC 'CODE'
_TEXT	ENDS
;	COMDAT ??0ref_instance_t@@QAE@XZ
_TEXT	SEGMENT PARA USE32 PUBLIC 'CODE'
_TEXT	ENDS
;	COMDAT ??0CFrustum@@QAE@XZ
_TEXT	SEGMENT PARA USE32 PUBLIC 'CODE'
_TEXT	ENDS
;	COMDAT ??0mplane_s@@QAE@XZ
_TEXT	SEGMENT PARA USE32 PUBLIC 'CODE'
_TEXT	ENDS
;	COMDAT ?GL_DebugOutput@@YGXIIIIHPBDPAX@Z
_TEXT	SEGMENT PARA USE32 PUBLIC 'CODE'
_TEXT	ENDS
;	COMDAT ?GL_SetExtension@@YAXHH@Z
_TEXT	SEGMENT PARA USE32 PUBLIC 'CODE'
_TEXT	ENDS
;	COMDAT ?GL_Support@@YA_NH@Z
_TEXT	SEGMENT PARA USE32 PUBLIC 'CODE'
_TEXT	ENDS
;	COMDAT ?GL_CheckExtension@@YAXPBDPBUdllfunc_s@@0H_N@Z
_TEXT	SEGMENT PARA USE32 PUBLIC 'CODE'
_TEXT	ENDS
;	COMDAT ?GL_InitExtensions@@YAXXZ
_TEXT	SEGMENT PARA USE32 PUBLIC 'CODE'
_TEXT	ENDS
;	COMDAT ?GL_SetDefaultState@@YAXXZ
_TEXT	SEGMENT PARA USE32 PUBLIC 'CODE'
_TEXT	ENDS
;	COMDAT ?R_CreateSpotLightTexture@@YAXXZ
_TEXT	SEGMENT PARA USE32 PUBLIC 'CODE'
_TEXT	ENDS
;	COMDAT ?R_InitAlphaContrast@@YAXXZ
_TEXT	SEGMENT PARA USE32 PUBLIC 'CODE'
_TEXT	ENDS
;	COMDAT ?R_InitWhiteCubemap@@YAXXZ
_TEXT	SEGMENT PARA USE32 PUBLIC 'CODE'
_TEXT	ENDS
;	COMDAT ?GL_InitTextures@@YAXXZ
_TEXT	SEGMENT PARA USE32 PUBLIC 'CODE'
_TEXT	ENDS
;	COMDAT ?R_Init@@YA_NXZ
_TEXT	SEGMENT PARA USE32 PUBLIC 'CODE'
_TEXT	ENDS
;	COMDAT ?R_Shutdown@@YAXXZ
_TEXT	SEGMENT PARA USE32 PUBLIC 'CODE'
_TEXT	ENDS
;	COMDAT ?GL_CheckForErrors_@@YAXPBDH@Z
_TEXT	SEGMENT PARA USE32 PUBLIC 'CODE'
_TEXT	ENDS
;	COMDAT ??0?$CUtlLinkedList@UJiggleData@@G@@QAE@HH@Z
_TEXT	SEGMENT PARA USE32 PUBLIC 'CODE'
_TEXT	ENDS
;	COMDAT ??1?$CUtlLinkedList@UJiggleData@@G@@QAE@XZ
_TEXT	SEGMENT PARA USE32 PUBLIC 'CODE'
_TEXT	ENDS
;	COMDAT ?RemoveAll@?$CUtlLinkedList@UJiggleData@@G@@QAEXXZ
_TEXT	SEGMENT PARA USE32 PUBLIC 'CODE'
_TEXT	ENDS
;	COMDAT ?Count@?$CUtlLinkedList@UModelInstance_t@CStudioModelRenderer@@G@@QBEHXZ
_TEXT	SEGMENT PARA USE32 PUBLIC 'CODE'
_TEXT	ENDS
;	COMDAT ?InvalidIndex@?$CUtlLinkedList@UJiggleData@@G@@SAGXZ
_TEXT	SEGMENT PARA USE32 PUBLIC 'CODE'
_TEXT	ENDS
;	COMDAT ?InternalElement@?$CUtlLinkedList@UJiggleData@@G@@IAEAAUListElem_t@1@G@Z
_TEXT	SEGMENT PARA USE32 PUBLIC 'CODE'
_TEXT	ENDS
;	COMDAT ?ResetDbgInfo@?$CUtlLinkedList@UJiggleData@@G@@IAEXXZ
_TEXT	SEGMENT PARA USE32 PUBLIC 'CODE'
_TEXT	ENDS
;	COMDAT ?Element@?$CUtlLinkedList@UJiggleData@@G@@QAEAAUJiggleData@@G@Z
_TEXT	SEGMENT PARA USE32 PUBLIC 'CODE'
_TEXT	ENDS
;	COMDAT ?IsValidIndex@?$CUtlLinkedList@UJiggleData@@G@@QBE_NG@Z
_TEXT	SEGMENT PARA USE32 PUBLIC 'CODE'
_TEXT	ENDS
;	COMDAT ?ConstructList@?$CUtlLinkedList@UJiggleData@@G@@IAEXXZ
_TEXT	SEGMENT PARA USE32 PUBLIC 'CODE'
_TEXT	ENDS
;	COMDAT ??0?$CUtlMemory@UListElem_t@?$CUtlLinkedList@UJiggleData@@G@@H@@QAE@HH@Z
_TEXT	SEGMENT PARA USE32 PUBLIC 'CODE'
_TEXT	ENDS
;	COMDAT ??1?$CUtlMemory@UListElem_t@?$CUtlLinkedList@UJiggleData@@G@@H@@QAE@XZ
_TEXT	SEGMENT PARA USE32 PUBLIC 'CODE'
_TEXT	ENDS
;	COMDAT ??A?$CUtlMemory@UListElem_t@?$CUtlLinkedList@UJiggleData@@G@@H@@QAEAAUListElem_t@?$CUtlLinkedList@UJiggleData@@G@@H@Z
_TEXT	SEGMENT PARA USE32 PUBLIC 'CODE'
_TEXT	ENDS
;	COMDAT ?Base@?$CUtlMemory@UListElem_t@?$CUtlLinkedList@UJiggleData@@G@@H@@QAEPAUListElem_t@?$CUtlLinkedList@UJiggleData@@G@@XZ
_TEXT	SEGMENT PARA USE32 PUBLIC 'CODE'
_TEXT	ENDS
;	COMDAT ?Destruct@@YAXPAUJiggleData@@@Z
_TEXT	SEGMENT PARA USE32 PUBLIC 'CODE'
_TEXT	ENDS
;	COMDAT ?ValidateGrowSize@?$CUtlMemory@UListElem_t@?$CUtlLinkedList@UJiggleData@@G@@H@@IAEXXZ
_TEXT	SEGMENT PARA USE32 PUBLIC 'CODE'
_TEXT	ENDS
;	COMDAT ??A?$CUtlMemory@UListElem_t@?$CUtlLinkedList@UJiggleData@@G@@H@@QBEABUListElem_t@?$CUtlLinkedList@UJiggleData@@G@@H@Z
_TEXT	SEGMENT PARA USE32 PUBLIC 'CODE'
_TEXT	ENDS
;	COMDAT ?IsIdxValid@?$CUtlMemory@UListElem_t@?$CUtlLinkedList@UJiggleData@@G@@H@@QBE_NH@Z
_TEXT	SEGMENT PARA USE32 PUBLIC 'CODE'
_TEXT	ENDS
;	COMDAT ?Purge@?$CUtlMemory@UListElem_t@?$CUtlLinkedList@UJiggleData@@G@@H@@QAEXXZ
_TEXT	SEGMENT PARA USE32 PUBLIC 'CODE'
_TEXT	ENDS
;	COMDAT ?IsReadOnly@?$CUtlMemory@UListElem_t@?$CUtlLinkedList@UJiggleData@@G@@H@@QBE_NXZ
_TEXT	SEGMENT PARA USE32 PUBLIC 'CODE'
_TEXT	ENDS
;	COMDAT ?IsExternallyAllocated@?$CUtlMemory@UListElem_t@?$CUtlLinkedList@UJiggleData@@G@@H@@QBE_NXZ
_TEXT	SEGMENT PARA USE32 PUBLIC 'CODE'
_TEXT	ENDS
;	COMDAT ??_7CHudBase@@6B@
CONST	SEGMENT DWORD USE32 PUBLIC 'CONST'
CONST	ENDS
;	COMDAT ??_7CStudioBoneSetup@@6B@
CONST	SEGMENT DWORD USE32 PUBLIC 'CONST'
CONST	ENDS
;	COMDAT ??_7CHudSayText@@6B@
CONST	SEGMENT DWORD USE32 PUBLIC 'CONST'
CONST	ENDS
;	COMDAT ??_7CHudFlashlight@@6B@
CONST	SEGMENT DWORD USE32 PUBLIC 'CONST'
CONST	ENDS
;	COMDAT ??_7CHudGeiger@@6B@
CONST	SEGMENT DWORD USE32 PUBLIC 'CONST'
CONST	ENDS
;	COMDAT ??_7CHudDeathNotice@@6B@
CONST	SEGMENT DWORD USE32 PUBLIC 'CONST'
CONST	ENDS
;	COMDAT ??_7CHudBattery@@6B@
CONST	SEGMENT DWORD USE32 PUBLIC 'CONST'
CONST	ENDS
;	COMDAT ??_7CHudTrain@@6B@
CONST	SEGMENT DWORD USE32 PUBLIC 'CONST'
CONST	ENDS
;	COMDAT ??_7CHudMenu@@6B@
CONST	SEGMENT DWORD USE32 PUBLIC 'CONST'
CONST	ENDS
;	COMDAT ??_7CHudTextMessage@@6B@
CONST	SEGMENT DWORD USE32 PUBLIC 'CONST'
CONST	ENDS
;	COMDAT ??_7CHudAmmo@@6B@
CONST	SEGMENT DWORD USE32 PUBLIC 'CONST'
CONST	ENDS
;	COMDAT ??_7CHudHealth@@6B@
CONST	SEGMENT DWORD USE32 PUBLIC 'CONST'
CONST	ENDS
;	COMDAT ??_7CHudStatusIcons@@6B@
CONST	SEGMENT DWORD USE32 PUBLIC 'CONST'
CONST	ENDS
;	COMDAT ??_7CHudAmmoSecondary@@6B@
CONST	SEGMENT DWORD USE32 PUBLIC 'CONST'
CONST	ENDS
;	COMDAT ??_7CHudStatusBar@@6B@
CONST	SEGMENT DWORD USE32 PUBLIC 'CONST'
CONST	ENDS
;	COMDAT ??_7CHudMessage@@6B@
CONST	SEGMENT DWORD USE32 PUBLIC 'CONST'
CONST	ENDS
;	COMDAT ??_7CHudMOTD@@6B@
CONST	SEGMENT DWORD USE32 PUBLIC 'CONST'
CONST	ENDS
;	COMDAT ??_7CHudScoreboard@@6B@
CONST	SEGMENT DWORD USE32 PUBLIC 'CONST'
CONST	ENDS
FLAT	GROUP _DATA, CONST, _BSS, CRT$XCA, CRT$XCU, CRT$XCL, CRT$XCC, CRT$XCZ
	ASSUME	CS: FLAT, DS: FLAT, SS: FLAT
endif
PUBLIC	?pglTexImage2D@@3P6GXIHHHHHIIPBX@ZA		; pglTexImage2D
PUBLIC	?pglTexParameterf@@3P6GXIIM@ZA			; pglTexParameterf
PUBLIC	?pglTexParameterfv@@3P6GXIIPBM@ZA		; pglTexParameterfv
PUBLIC	?pglTexParameteri@@3P6GXIIH@ZA			; pglTexParameteri
PUBLIC	?pglTexParameteriv@@3P6GXIIPBH@ZA		; pglTexParameteriv
PUBLIC	?pglTexSubImage1D@@3P6GXIHHHIIPBX@ZA		; pglTexSubImage1D
PUBLIC	?pglTexSubImage2D@@3P6GXIHHHHHIIPBX@ZA		; pglTexSubImage2D
PUBLIC	?pglTranslated@@3P6GXNNN@ZA			; pglTranslated
PUBLIC	?pglTranslatef@@3P6GXMMM@ZA			; pglTranslatef
PUBLIC	?pglVertex2d@@3P6GXNN@ZA			; pglVertex2d
PUBLIC	?pglVertex2dv@@3P6GXPBN@ZA			; pglVertex2dv
PUBLIC	?pglGetError@@3P6GIXZA				; pglGetError
PUBLIC	?pglVertex2f@@3P6GXMM@ZA			; pglVertex2f
PUBLIC	?pglGetString@@3P6GPBDI@ZA			; pglGetString
PUBLIC	?pglVertex2fv@@3P6GXPBM@ZA			; pglVertex2fv
PUBLIC	?pglVertex2i@@3P6GXHH@ZA			; pglVertex2i
PUBLIC	?pglAccum@@3P6GXIM@ZA				; pglAccum
PUBLIC	?pglVertex2iv@@3P6GXPBH@ZA			; pglVertex2iv
PUBLIC	?pglAlphaFunc@@3P6GXIM@ZA			; pglAlphaFunc
PUBLIC	?pglBegin@@3P6GXI@ZA				; pglBegin
PUBLIC	?pglVertex2s@@3P6GXFF@ZA			; pglVertex2s
PUBLIC	?pglVertex2sv@@3P6GXPBF@ZA			; pglVertex2sv
PUBLIC	?pglBindTexture@@3P6GXII@ZA			; pglBindTexture
PUBLIC	?pglVertex3d@@3P6GXNNN@ZA			; pglVertex3d
PUBLIC	?pglVertex3dv@@3P6GXPBN@ZA			; pglVertex3dv
PUBLIC	?pglBitmap@@3P6GXHHMMMMPBE@ZA			; pglBitmap
PUBLIC	?pglVertex3f@@3P6GXMMM@ZA			; pglVertex3f
PUBLIC	?pglVertex3fv@@3P6GXPBM@ZA			; pglVertex3fv
PUBLIC	?pglBlendFunc@@3P6GXII@ZA			; pglBlendFunc
PUBLIC	?pglCallList@@3P6GXI@ZA				; pglCallList
PUBLIC	?pglVertex3i@@3P6GXHHH@ZA			; pglVertex3i
PUBLIC	?pglCallLists@@3P6GXHIPBX@ZA			; pglCallLists
PUBLIC	?pglVertex3iv@@3P6GXPBH@ZA			; pglVertex3iv
PUBLIC	?pglClear@@3P6GXI@ZA				; pglClear
PUBLIC	?pglVertex3s@@3P6GXFFF@ZA			; pglVertex3s
PUBLIC	?pglVertex3sv@@3P6GXPBF@ZA			; pglVertex3sv
PUBLIC	?pglClearAccum@@3P6GXMMMM@ZA			; pglClearAccum
PUBLIC	?pglVertex4d@@3P6GXNNNN@ZA			; pglVertex4d
PUBLIC	?pglClearColor@@3P6GXMMMM@ZA			; pglClearColor
PUBLIC	?pglVertex4dv@@3P6GXPBN@ZA			; pglVertex4dv
PUBLIC	?pglClearDepth@@3P6GXN@ZA			; pglClearDepth
PUBLIC	?pglClearIndex@@3P6GXM@ZA			; pglClearIndex
PUBLIC	?pglClearStencil@@3P6GXH@ZA			; pglClearStencil
PUBLIC	?pglVertex4f@@3P6GXMMMM@ZA			; pglVertex4f
PUBLIC	?pglIsEnabled@@3P6GEI@ZA			; pglIsEnabled
PUBLIC	?pglVertex4fv@@3P6GXPBM@ZA			; pglVertex4fv
PUBLIC	?pglIsList@@3P6GEI@ZA				; pglIsList
PUBLIC	?pglIsTexture@@3P6GEI@ZA			; pglIsTexture
PUBLIC	?pglVertex4i@@3P6GXHHHH@ZA			; pglVertex4i
PUBLIC	?pglClipPlane@@3P6GXIPBN@ZA			; pglClipPlane
PUBLIC	?pglVertex4iv@@3P6GXPBH@ZA			; pglVertex4iv
PUBLIC	?pglColor3b@@3P6GXCCC@ZA			; pglColor3b
PUBLIC	?pglVertex4s@@3P6GXFFFF@ZA			; pglVertex4s
PUBLIC	?pglColor3bv@@3P6GXPBC@ZA			; pglColor3bv
PUBLIC	?pglVertex4sv@@3P6GXPBF@ZA			; pglVertex4sv
PUBLIC	?pglColor3d@@3P6GXNNN@ZA			; pglColor3d
PUBLIC	?pglColor3dv@@3P6GXPBN@ZA			; pglColor3dv
PUBLIC	?pglViewport@@3P6GXHHHH@ZA			; pglViewport
PUBLIC	?pglPointParameterfEXT@@3P6GXIM@ZA		; pglPointParameterfEXT
PUBLIC	?pglColor3f@@3P6GXMMM@ZA			; pglColor3f
PUBLIC	?pglColor3fv@@3P6GXPBM@ZA			; pglColor3fv
PUBLIC	?pglPointParameterfvEXT@@3P6GXIPBM@ZA		; pglPointParameterfvEXT
PUBLIC	?pglLockArraysEXT@@3P6GXHH@ZA			; pglLockArraysEXT
PUBLIC	?pglColor3i@@3P6GXHHH@ZA			; pglColor3i
PUBLIC	?pglUnlockArraysEXT@@3P6GXXZA			; pglUnlockArraysEXT
PUBLIC	?pglColor3iv@@3P6GXPBH@ZA			; pglColor3iv
PUBLIC	?pglActiveTextureARB@@3P6GXI@ZA			; pglActiveTextureARB
PUBLIC	?pglClientActiveTextureARB@@3P6GXI@ZA		; pglClientActiveTextureARB
PUBLIC	?pglColor3s@@3P6GXFFF@ZA			; pglColor3s
PUBLIC	?pglColor3sv@@3P6GXPBF@ZA			; pglColor3sv
PUBLIC	?pglGetCompressedTexImage@@3P6GXIHPBX@ZA	; pglGetCompressedTexImage
PUBLIC	?pglColor3ub@@3P6GXEEE@ZA			; pglColor3ub
PUBLIC	?pglColor3ubv@@3P6GXPBE@ZA			; pglColor3ubv
PUBLIC	?pglDrawRangeElements@@3P6GXIIIHIPBX@ZA		; pglDrawRangeElements
PUBLIC	?pglColor3ui@@3P6GXIII@ZA			; pglColor3ui
PUBLIC	?pglColor3uiv@@3P6GXPBI@ZA			; pglColor3uiv
PUBLIC	?pglDrawRangeElementsEXT@@3P6GXIIIHIPBX@ZA	; pglDrawRangeElementsEXT
PUBLIC	?pglColor3us@@3P6GXGGG@ZA			; pglColor3us
PUBLIC	?pglColor3usv@@3P6GXPBG@ZA			; pglColor3usv
PUBLIC	?pglDrawElements@@3P6GXIHIPBX@ZA		; pglDrawElements
PUBLIC	?pglColor4b@@3P6GXCCCC@ZA			; pglColor4b
PUBLIC	?pglColor4bv@@3P6GXPBC@ZA			; pglColor4bv
PUBLIC	?pglVertexPointer@@3P6GXHIHPBX@ZA		; pglVertexPointer
PUBLIC	?pglNormalPointer@@3P6GXIHPBX@ZA		; pglNormalPointer
PUBLIC	?pglColor4d@@3P6GXNNNN@ZA			; pglColor4d
PUBLIC	?pglColor4dv@@3P6GXPBN@ZA			; pglColor4dv
PUBLIC	?pglColorPointer@@3P6GXHIHPBX@ZA		; pglColorPointer
PUBLIC	?pglColor4f@@3P6GXMMMM@ZA			; pglColor4f
PUBLIC	?pglColor4fv@@3P6GXPBM@ZA			; pglColor4fv
PUBLIC	?pglTexCoordPointer@@3P6GXHIHPBX@ZA		; pglTexCoordPointer
PUBLIC	?pglArrayElement@@3P6GXH@ZA			; pglArrayElement
PUBLIC	?pglColor4i@@3P6GXHHHH@ZA			; pglColor4i
PUBLIC	?pglMultiTexCoord1f@@3P6GXIM@ZA			; pglMultiTexCoord1f
PUBLIC	?pglColor4iv@@3P6GXPBH@ZA			; pglColor4iv
PUBLIC	?pglMultiTexCoord2f@@3P6GXIMM@ZA		; pglMultiTexCoord2f
PUBLIC	?pglColor4s@@3P6GXFFFF@ZA			; pglColor4s
PUBLIC	?pglColor4sv@@3P6GXPBF@ZA			; pglColor4sv
PUBLIC	?pglMultiTexCoord3f@@3P6GXIMMM@ZA		; pglMultiTexCoord3f
PUBLIC	?pglColor4ub@@3P6GXEEEE@ZA			; pglColor4ub
PUBLIC	?pglMultiTexCoord4f@@3P6GXIMMMM@ZA		; pglMultiTexCoord4f
PUBLIC	?pglColor4ubv@@3P6GXPBE@ZA			; pglColor4ubv
PUBLIC	?pglActiveTexture@@3P6GXI@ZA			; pglActiveTexture
PUBLIC	?pglClientActiveTexture@@3P6GXI@ZA		; pglClientActiveTexture
PUBLIC	?pglColor4ui@@3P6GXIIII@ZA			; pglColor4ui
PUBLIC	?pglColor4uiv@@3P6GXPBI@ZA			; pglColor4uiv
PUBLIC	?pglColor4us@@3P6GXGGGG@ZA			; pglColor4us
PUBLIC	?pglCompressedTexImage3DARB@@3P6GXIHIHHHHHPBX@ZA ; pglCompressedTexImage3DARB
PUBLIC	?pglColor4usv@@3P6GXPBG@ZA			; pglColor4usv
PUBLIC	?pglColorMask@@3P6GXEEEE@ZA			; pglColorMask
PUBLIC	?pglCompressedTexImage2DARB@@3P6GXIHIHHHHPBX@ZA	; pglCompressedTexImage2DARB
PUBLIC	?pglColorMaterial@@3P6GXII@ZA			; pglColorMaterial
PUBLIC	?pglCopyPixels@@3P6GXHHHHI@ZA			; pglCopyPixels
PUBLIC	?pglCompressedTexImage1DARB@@3P6GXIHIHHHPBX@ZA	; pglCompressedTexImage1DARB
PUBLIC	?pglCopyTexImage1D@@3P6GXIHIHHHH@ZA		; pglCopyTexImage1D
PUBLIC	?pglCompressedTexSubImage3DARB@@3P6GXIHHHHHHHIHPBX@ZA ; pglCompressedTexSubImage3DARB
PUBLIC	?pglCopyTexImage2D@@3P6GXIHIHHHHH@ZA		; pglCopyTexImage2D
PUBLIC	?pglCompressedTexSubImage2DARB@@3P6GXIHHHHHIHPBX@ZA ; pglCompressedTexSubImage2DARB
PUBLIC	?pglCopyTexSubImage1D@@3P6GXIHHHHH@ZA		; pglCopyTexSubImage1D
PUBLIC	?pglCompressedTexSubImage1DARB@@3P6GXIHHHIHPBX@ZA ; pglCompressedTexSubImage1DARB
PUBLIC	?pglCopyTexSubImage2D@@3P6GXIHHHHHHH@ZA		; pglCopyTexSubImage2D
PUBLIC	?pglDeleteObjectARB@@3P6GXI@ZA			; pglDeleteObjectARB
PUBLIC	?pglCullFace@@3P6GXI@ZA				; pglCullFace
PUBLIC	?pglGetHandleARB@@3P6GII@ZA			; pglGetHandleARB
PUBLIC	?pglDeleteLists@@3P6GXIH@ZA			; pglDeleteLists
PUBLIC	?pglDetachObjectARB@@3P6GXII@ZA			; pglDetachObjectARB
PUBLIC	?pglDeleteTextures@@3P6GXHPBI@ZA		; pglDeleteTextures
PUBLIC	?pglCreateShaderObjectARB@@3P6GII@ZA		; pglCreateShaderObjectARB
PUBLIC	?pglDepthFunc@@3P6GXI@ZA			; pglDepthFunc
PUBLIC	?pglDepthMask@@3P6GXE@ZA			; pglDepthMask
PUBLIC	?pglShaderSourceARB@@3P6GXIHPAPBDPBH@ZA		; pglShaderSourceARB
PUBLIC	?pglCompileShaderARB@@3P6GXI@ZA			; pglCompileShaderARB
PUBLIC	?pglDepthRange@@3P6GXNN@ZA			; pglDepthRange
PUBLIC	?pglDisable@@3P6GXI@ZA				; pglDisable
PUBLIC	?pglCreateProgramObjectARB@@3P6GIXZA		; pglCreateProgramObjectARB
PUBLIC	?pglDisableClientState@@3P6GXI@ZA		; pglDisableClientState
PUBLIC	?pglAttachObjectARB@@3P6GXII@ZA			; pglAttachObjectARB
PUBLIC	?pglLinkProgramARB@@3P6GXI@ZA			; pglLinkProgramARB
PUBLIC	?pglDrawArrays@@3P6GXIHH@ZA			; pglDrawArrays
PUBLIC	?pglUseProgramObjectARB@@3P6GXI@ZA		; pglUseProgramObjectARB
PUBLIC	?pglDrawBuffer@@3P6GXI@ZA			; pglDrawBuffer
PUBLIC	?pglValidateProgramARB@@3P6GXI@ZA		; pglValidateProgramARB
PUBLIC	?pglBindProgramARB@@3P6GXII@ZA			; pglBindProgramARB
PUBLIC	?pglDrawPixels@@3P6GXHHIIPBX@ZA			; pglDrawPixels
PUBLIC	?pglDeleteProgramsARB@@3P6GXHPBI@ZA		; pglDeleteProgramsARB
PUBLIC	?pglEdgeFlag@@3P6GXE@ZA				; pglEdgeFlag
PUBLIC	?pglGenProgramsARB@@3P6GXHPAI@ZA		; pglGenProgramsARB
PUBLIC	?pglEdgeFlagPointer@@3P6GXHPBX@ZA		; pglEdgeFlagPointer
PUBLIC	?pglEdgeFlagv@@3P6GXPBE@ZA			; pglEdgeFlagv
PUBLIC	?pglProgramStringARB@@3P6GXIIHPBX@ZA		; pglProgramStringARB
PUBLIC	?pglEnable@@3P6GXI@ZA				; pglEnable
PUBLIC	?pglEnableClientState@@3P6GXI@ZA		; pglEnableClientState
PUBLIC	?pglEnd@@3P6GXXZA				; pglEnd
PUBLIC	?pglEndList@@3P6GXXZA				; pglEndList
PUBLIC	?pglProgramEnvParameter4fARB@@3P6GXIIMMMM@ZA	; pglProgramEnvParameter4fARB
PUBLIC	?pglEvalCoord1d@@3P6GXN@ZA			; pglEvalCoord1d
PUBLIC	?pglEvalCoord1dv@@3P6GXPBN@ZA			; pglEvalCoord1dv
PUBLIC	?pglEvalCoord1f@@3P6GXM@ZA			; pglEvalCoord1f
PUBLIC	?pglEvalCoord1fv@@3P6GXPBM@ZA			; pglEvalCoord1fv
PUBLIC	?pglProgramLocalParameter4fARB@@3P6GXIIMMMM@ZA	; pglProgramLocalParameter4fARB
PUBLIC	?pglEvalCoord2d@@3P6GXNN@ZA			; pglEvalCoord2d
PUBLIC	?pglGetProgramivARB@@3P6GXIIPAH@ZA		; pglGetProgramivARB
PUBLIC	?pglEvalCoord2dv@@3P6GXPBN@ZA			; pglEvalCoord2dv
PUBLIC	?pglUniform1fARB@@3P6GXHM@ZA			; pglUniform1fARB
PUBLIC	?pglEvalCoord2f@@3P6GXMM@ZA			; pglEvalCoord2f
PUBLIC	?pglEvalCoord2fv@@3P6GXPBM@ZA			; pglEvalCoord2fv
PUBLIC	?pglUniform2fARB@@3P6GXHMM@ZA			; pglUniform2fARB
PUBLIC	?pglEvalMesh1@@3P6GXIHH@ZA			; pglEvalMesh1
PUBLIC	?pglUniform3fARB@@3P6GXHMMM@ZA			; pglUniform3fARB
PUBLIC	?pglEvalMesh2@@3P6GXIHHHH@ZA			; pglEvalMesh2
PUBLIC	?pglEvalPoint1@@3P6GXH@ZA			; pglEvalPoint1
PUBLIC	?pglUniform4fARB@@3P6GXHMMMM@ZA			; pglUniform4fARB
PUBLIC	?pglEvalPoint2@@3P6GXHH@ZA			; pglEvalPoint2
PUBLIC	?pglUniform1iARB@@3P6GXHH@ZA			; pglUniform1iARB
PUBLIC	?pglFeedbackBuffer@@3P6GXHIPAM@ZA		; pglFeedbackBuffer
PUBLIC	?pglUniform2iARB@@3P6GXHHH@ZA			; pglUniform2iARB
PUBLIC	?pglFinish@@3P6GXXZA				; pglFinish
PUBLIC	?pglFlush@@3P6GXXZA				; pglFlush
PUBLIC	?pglUniform3iARB@@3P6GXHHHH@ZA			; pglUniform3iARB
PUBLIC	?pglFogf@@3P6GXIM@ZA				; pglFogf
PUBLIC	?pglFogfv@@3P6GXIPBM@ZA				; pglFogfv
PUBLIC	?pglUniform4iARB@@3P6GXHHHHH@ZA			; pglUniform4iARB
PUBLIC	?pglFogi@@3P6GXIH@ZA				; pglFogi
PUBLIC	?pglUniform1fvARB@@3P6GXHHPBM@ZA		; pglUniform1fvARB
PUBLIC	?pglFogiv@@3P6GXIPBH@ZA				; pglFogiv
PUBLIC	?pglFrontFace@@3P6GXI@ZA			; pglFrontFace
PUBLIC	?pglUniform2fvARB@@3P6GXHHPBM@ZA		; pglUniform2fvARB
PUBLIC	?pglUniform3fvARB@@3P6GXHHPBM@ZA		; pglUniform3fvARB
PUBLIC	?pglFrustum@@3P6GXNNNNNN@ZA			; pglFrustum
PUBLIC	?pglUniform4fvARB@@3P6GXHHPBM@ZA		; pglUniform4fvARB
PUBLIC	?pglGenTextures@@3P6GXHPAI@ZA			; pglGenTextures
PUBLIC	?pglGetBooleanv@@3P6GXIPAE@ZA			; pglGetBooleanv
PUBLIC	?pglUniform1ivARB@@3P6GXHHPBH@ZA		; pglUniform1ivARB
PUBLIC	?pglGetClipPlane@@3P6GXIPAN@ZA			; pglGetClipPlane
PUBLIC	?pglUniform2ivARB@@3P6GXHHPBH@ZA		; pglUniform2ivARB
PUBLIC	?pglGetDoublev@@3P6GXIPAN@ZA			; pglGetDoublev
PUBLIC	?pglUniform3ivARB@@3P6GXHHPBH@ZA		; pglUniform3ivARB
PUBLIC	?pglGetFloatv@@3P6GXIPAM@ZA			; pglGetFloatv
PUBLIC	?pglUniform4ivARB@@3P6GXHHPBH@ZA		; pglUniform4ivARB
PUBLIC	?pglGetIntegerv@@3P6GXIPAH@ZA			; pglGetIntegerv
PUBLIC	?pglGetLightfv@@3P6GXIIPAM@ZA			; pglGetLightfv
PUBLIC	?pglUniformMatrix2fvARB@@3P6GXHHEPBM@ZA		; pglUniformMatrix2fvARB
PUBLIC	?pglGetLightiv@@3P6GXIIPAH@ZA			; pglGetLightiv
PUBLIC	?pglUniformMatrix3fvARB@@3P6GXHHEPBM@ZA		; pglUniformMatrix3fvARB
PUBLIC	?pglGetMapdv@@3P6GXIIPAN@ZA			; pglGetMapdv
PUBLIC	?pglUniformMatrix4fvARB@@3P6GXHHEPBM@ZA		; pglUniformMatrix4fvARB
PUBLIC	?pglGetMapfv@@3P6GXIIPAM@ZA			; pglGetMapfv
PUBLIC	?pglGetObjectParameterfvARB@@3P6GXIIPAM@ZA	; pglGetObjectParameterfvARB
PUBLIC	?pglGetMapiv@@3P6GXIIPAH@ZA			; pglGetMapiv
PUBLIC	?pglGetObjectParameterivARB@@3P6GXIIPAH@ZA	; pglGetObjectParameterivARB
PUBLIC	?pglGetMaterialfv@@3P6GXIIPAM@ZA		; pglGetMaterialfv
PUBLIC	?pglGetInfoLogARB@@3P6GXIHPAHPAD@ZA		; pglGetInfoLogARB
PUBLIC	?pglGetMaterialiv@@3P6GXIIPAH@ZA		; pglGetMaterialiv
PUBLIC	?pglGetPixelMapfv@@3P6GXIPAM@ZA			; pglGetPixelMapfv
PUBLIC	?pglGetAttachedObjectsARB@@3P6GXIHPAHPAI@ZA	; pglGetAttachedObjectsARB
PUBLIC	?pglGetPixelMapuiv@@3P6GXIPAI@ZA		; pglGetPixelMapuiv
PUBLIC	?pglGetUniformLocationARB@@3P6GHIPBD@ZA		; pglGetUniformLocationARB
PUBLIC	?pglGetPixelMapusv@@3P6GXIPAG@ZA		; pglGetPixelMapusv
PUBLIC	?pglGetPointerv@@3P6GXIPAPAX@ZA			; pglGetPointerv
PUBLIC	?pglGetPolygonStipple@@3P6GXPAE@ZA		; pglGetPolygonStipple
PUBLIC	?pglGetActiveUniformARB@@3P6GXIIHPAH0PAIPAD@ZA	; pglGetActiveUniformARB
PUBLIC	?pglGetTexEnvfv@@3P6GXIIPAM@ZA			; pglGetTexEnvfv
PUBLIC	?pglGetUniformfvARB@@3P6GXIHPAM@ZA		; pglGetUniformfvARB
PUBLIC	?pglGetTexEnviv@@3P6GXIIPAH@ZA			; pglGetTexEnviv
PUBLIC	?pglGetUniformivARB@@3P6GXIHPAH@ZA		; pglGetUniformivARB
PUBLIC	?pglGetTexGendv@@3P6GXIIPAN@ZA			; pglGetTexGendv
PUBLIC	?pglGetShaderSourceARB@@3P6GXIHPAHPAD@ZA	; pglGetShaderSourceARB
PUBLIC	?pglGetTexGenfv@@3P6GXIIPAM@ZA			; pglGetTexGenfv
PUBLIC	?pglGetTexGeniv@@3P6GXIIPAH@ZA			; pglGetTexGeniv
PUBLIC	?pglGetTexImage@@3P6GXIHIIPAX@ZA		; pglGetTexImage
PUBLIC	?pglTexImage3D@@3P6GXIHIHHHHIIPBX@ZA		; pglTexImage3D
PUBLIC	?pglGetTexLevelParameterfv@@3P6GXIHIPAM@ZA	; pglGetTexLevelParameterfv
PUBLIC	?pglGetTexLevelParameteriv@@3P6GXIHIPAH@ZA	; pglGetTexLevelParameteriv
PUBLIC	?pglTexSubImage3D@@3P6GXIHHHHHHHIIPBX@ZA	; pglTexSubImage3D
PUBLIC	?pglGetTexParameterfv@@3P6GXIIPAM@ZA		; pglGetTexParameterfv
PUBLIC	?pglGetTexParameteriv@@3P6GXIIPAH@ZA		; pglGetTexParameteriv
PUBLIC	?pglHint@@3P6GXII@ZA				; pglHint
PUBLIC	?pglCopyTexSubImage3D@@3P6GXIHHHHHHHH@ZA	; pglCopyTexSubImage3D
PUBLIC	?pglIndexMask@@3P6GXI@ZA			; pglIndexMask
PUBLIC	?pglBlendEquationEXT@@3P6GXI@ZA			; pglBlendEquationEXT
PUBLIC	?pglIndexPointer@@3P6GXIHPBX@ZA			; pglIndexPointer
PUBLIC	?pglStencilOpSeparate@@3P6GXIIII@ZA		; pglStencilOpSeparate
PUBLIC	?pglIndexd@@3P6GXN@ZA				; pglIndexd
PUBLIC	?pglIndexdv@@3P6GXPBN@ZA			; pglIndexdv
PUBLIC	?pglIndexf@@3P6GXM@ZA				; pglIndexf
PUBLIC	?pglStencilFuncSeparate@@3P6GXIIHI@ZA		; pglStencilFuncSeparate
PUBLIC	?pglIndexfv@@3P6GXPBM@ZA			; pglIndexfv
PUBLIC	?pglActiveStencilFaceEXT@@3P6GXI@ZA		; pglActiveStencilFaceEXT
PUBLIC	?pglIndexi@@3P6GXH@ZA				; pglIndexi
PUBLIC	?pglIndexiv@@3P6GXPBH@ZA			; pglIndexiv
PUBLIC	?pglBlendFuncSeparate@@3P6GXIIII@ZA		; pglBlendFuncSeparate
PUBLIC	?pglIndexs@@3P6GXF@ZA				; pglIndexs
PUBLIC	?pglIndexsv@@3P6GXPBF@ZA			; pglIndexsv
PUBLIC	?pglIndexub@@3P6GXE@ZA				; pglIndexub
PUBLIC	?pglIndexubv@@3P6GXPBE@ZA			; pglIndexubv
PUBLIC	?pglVertexAttribPointerARB@@3P6GXIHIEHPBX@ZA	; pglVertexAttribPointerARB
PUBLIC	?pglInitNames@@3P6GXXZA				; pglInitNames
PUBLIC	?pglEnableVertexAttribArrayARB@@3P6GXI@ZA	; pglEnableVertexAttribArrayARB
PUBLIC	?pglDisableVertexAttribArrayARB@@3P6GXI@ZA	; pglDisableVertexAttribArrayARB
PUBLIC	?pglInterleavedArrays@@3P6GXIHPBX@ZA		; pglInterleavedArrays
PUBLIC	?pglLightModelf@@3P6GXIM@ZA			; pglLightModelf
PUBLIC	?pglBindAttribLocationARB@@3P6GXIIPBD@ZA	; pglBindAttribLocationARB
PUBLIC	?pglLightModelfv@@3P6GXIPBM@ZA			; pglLightModelfv
PUBLIC	?pglLightModeli@@3P6GXIH@ZA			; pglLightModeli
PUBLIC	?pglGetActiveAttribARB@@3P6GXIIHPAH0PAIPAD@ZA	; pglGetActiveAttribARB
PUBLIC	?pglLightModeliv@@3P6GXIPBH@ZA			; pglLightModeliv
PUBLIC	?pglGetAttribLocationARB@@3P6GHIPBD@ZA		; pglGetAttribLocationARB
PUBLIC	?pglLightf@@3P6GXIIM@ZA				; pglLightf
PUBLIC	?pglBindFragDataLocation@@3P6GXIIPBD@ZA		; pglBindFragDataLocation
PUBLIC	?pglLightfv@@3P6GXIIPBM@ZA			; pglLightfv
PUBLIC	?pglVertexAttrib2fARB@@3P6GXIMM@ZA		; pglVertexAttrib2fARB
PUBLIC	??_C@_0N@IALK@glClearColor?$AA@			; `string'
PUBLIC	?pglLighti@@3P6GXIIH@ZA				; pglLighti
PUBLIC	?pglVertexAttrib2fvARB@@3P6GXIPBM@ZA		; pglVertexAttrib2fvARB
PUBLIC	??_C@_07IOIM@glClear?$AA@			; `string'
PUBLIC	??_C@_0M@JBDJ@glAlphaFunc?$AA@			; `string'
PUBLIC	?pglLightiv@@3P6GXIIPBH@ZA			; pglLightiv
PUBLIC	?pglVertexAttrib3fvARB@@3P6GXIPBM@ZA		; pglVertexAttrib3fvARB
PUBLIC	??_C@_0M@PHAI@glBlendFunc?$AA@			; `string'
PUBLIC	?pglLineStipple@@3P6GXHG@ZA			; pglLineStipple
PUBLIC	??_C@_0L@LIEG@glCullFace?$AA@			; `string'
PUBLIC	?pglLineWidth@@3P6GXM@ZA			; pglLineWidth
PUBLIC	??_C@_0N@DBGG@glDrawBuffer?$AA@			; `string'
PUBLIC	?pglVertexAttrib4fARB@@3P6GXIMMMM@ZA		; pglVertexAttrib4fARB
PUBLIC	?pglListBase@@3P6GXI@ZA				; pglListBase
PUBLIC	??_C@_0N@BMFB@glReadBuffer?$AA@			; `string'
PUBLIC	?pglVertexAttrib4fvARB@@3P6GXIPBM@ZA		; pglVertexAttrib4fvARB
PUBLIC	?pglLoadIdentity@@3P6GXXZA			; pglLoadIdentity
PUBLIC	??_C@_07GKLB@glAccum?$AA@			; `string'
PUBLIC	?pglLoadMatrixd@@3P6GXPBN@ZA			; pglLoadMatrixd
PUBLIC	??_C@_08PHJO@glEnable?$AA@			; `string'
PUBLIC	?pglVertexAttrib4ubvARB@@3P6GXIPBE@ZA		; pglVertexAttrib4ubvARB
PUBLIC	?pglLoadMatrixf@@3P6GXPBM@ZA			; pglLoadMatrixf
PUBLIC	??_C@_09DADM@glDisable?$AA@			; `string'
PUBLIC	?pglLoadName@@3P6GXI@ZA				; pglLoadName
PUBLIC	?pglBindBufferARB@@3P6GXII@ZA			; pglBindBufferARB
PUBLIC	??_C@_0BE@JJFB@glEnableClientState?$AA@		; `string'
PUBLIC	?pglLogicOp@@3P6GXI@ZA				; pglLogicOp
PUBLIC	??_C@_0BF@HABO@glDisableClientState?$AA@	; `string'
PUBLIC	?pglDeleteBuffersARB@@3P6GXHPBI@ZA		; pglDeleteBuffersARB
PUBLIC	??_C@_0O@CEKP@glGetBooleanv?$AA@		; `string'
PUBLIC	?pglGenBuffersARB@@3P6GXHPAI@ZA			; pglGenBuffersARB
PUBLIC	??_C@_0N@LJNO@glGetDoublev?$AA@			; `string'
PUBLIC	?pglIsBufferARB@@3P6GEI@ZA			; pglIsBufferARB
PUBLIC	??_C@_0M@HNHJ@glGetFloatv?$AA@			; `string'
PUBLIC	?pglMap1d@@3P6GXINNHHPBN@ZA			; pglMap1d
PUBLIC	??_C@_0O@PMHI@glGetIntegerv?$AA@		; `string'
PUBLIC	?pglMapBufferARB@@3P6GPAXII@ZA			; pglMapBufferARB
PUBLIC	??_C@_0L@INBB@glGetError?$AA@			; `string'
PUBLIC	?pglUnmapBufferARB@@3P6GEI@ZA			; pglUnmapBufferARB
PUBLIC	??_C@_0M@EJHF@glGetString?$AA@			; `string'
PUBLIC	?pglMap1f@@3P6GXIMMHHPBM@ZA			; pglMap1f
PUBLIC	??_C@_08HFPP@glFinish?$AA@			; `string'
PUBLIC	?pglBufferDataARB@@3P6GXIHPBXI@ZA		; pglBufferDataARB
PUBLIC	??_C@_07GAEM@glFlush?$AA@			; `string'
PUBLIC	??_C@_0N@DFBF@glClearDepth?$AA@			; `string'
PUBLIC	??_C@_0M@FDIH@glDepthFunc?$AA@			; `string'
PUBLIC	?pglBufferSubDataARB@@3P6GXIHHPBX@ZA		; pglBufferSubDataARB
PUBLIC	??_C@_0M@LIJE@glDepthMask?$AA@			; `string'
PUBLIC	?pglGenQueriesARB@@3P6GXHPAI@ZA			; pglGenQueriesARB
PUBLIC	??_C@_0N@OLL@glDepthRange?$AA@			; `string'
PUBLIC	?pglMap2d@@3P6GXINNHHNNHHPBN@ZA			; pglMap2d
PUBLIC	??_C@_0M@MJJH@glFrontFace?$AA@			; `string'
PUBLIC	?pglDeleteQueriesARB@@3P6GXHPBI@ZA		; pglDeleteQueriesARB
PUBLIC	??_C@_0P@EAHC@glDrawElements?$AA@		; `string'
PUBLIC	?pglIsQueryARB@@3P6GEI@ZA			; pglIsQueryARB
PUBLIC	??_C@_0N@LOLE@glDrawArrays?$AA@			; `string'
PUBLIC	?pglBeginQueryARB@@3P6GXII@ZA			; pglBeginQueryARB
PUBLIC	??_C@_0M@LDC@glColorMask?$AA@			; `string'
PUBLIC	?pglEndQueryARB@@3P6GXI@ZA			; pglEndQueryARB
PUBLIC	??_C@_0P@GIBI@glIndexPointer?$AA@		; `string'
PUBLIC	?pglMap2f@@3P6GXIMMHHMMHHPBM@ZA			; pglMap2f
PUBLIC	??_C@_0BA@OGPO@glVertexPointer?$AA@		; `string'
PUBLIC	?pglGetQueryivARB@@3P6GXIIPAH@ZA		; pglGetQueryivARB
PUBLIC	??_C@_0BA@GJEJ@glNormalPointer?$AA@		; `string'
PUBLIC	?pglMapGrid1d@@3P6GXHNN@ZA			; pglMapGrid1d
PUBLIC	??_C@_0P@PPM@glColorPointer?$AA@		; `string'
PUBLIC	?pglGetQueryObjectivARB@@3P6GXIIPAH@ZA		; pglGetQueryObjectivARB
PUBLIC	??_C@_0BC@EKAK@glTexCoordPointer?$AA@		; `string'
PUBLIC	?pglMapGrid1f@@3P6GXHMM@ZA			; pglMapGrid1f
PUBLIC	??_C@_0P@ODMD@glArrayElement?$AA@		; `string'
PUBLIC	?pglGetQueryObjectuivARB@@3P6GXIIPAI@ZA		; pglGetQueryObjectuivARB
PUBLIC	??_C@_09NIDD@glColor3f?$AA@			; `string'
PUBLIC	?pglSelectTextureSGIS@@3P6GXI@ZA		; pglSelectTextureSGIS
PUBLIC	??_C@_0L@OIPK@glColor3fv?$AA@			; `string'
PUBLIC	??_C@_09LJGG@glColor4f?$AA@			; `string'
PUBLIC	?pglMapGrid2d@@3P6GXHNNHNN@ZA			; pglMapGrid2d
PUBLIC	?pglMTexCoord2fSGIS@@3P6GXIMM@ZA		; pglMTexCoord2fSGIS
PUBLIC	??_C@_0L@FGJL@glColor4fv?$AA@			; `string'
PUBLIC	?pglSwapInterval@@3P6GXH@ZA			; pglSwapInterval
PUBLIC	??_C@_0L@LKIA@glColor3ub?$AA@			; `string'
PUBLIC	?pglIsRenderbuffer@@3P6GEI@ZA			; pglIsRenderbuffer
PUBLIC	??_C@_0L@EOB@glColor4ub?$AA@			; `string'
PUBLIC	?pglMapGrid2f@@3P6GXHMMHMM@ZA			; pglMapGrid2f
PUBLIC	??_C@_0M@EHCG@glColor4ubv?$AA@			; `string'
PUBLIC	?pglBindRenderbuffer@@3P6GXII@ZA		; pglBindRenderbuffer
PUBLIC	??_C@_0N@MION@glTexCoord1f?$AA@			; `string'
PUBLIC	?pglDeleteRenderbuffers@@3P6GXHPBI@ZA		; pglDeleteRenderbuffers
PUBLIC	?pglMaterialf@@3P6GXIIM@ZA			; pglMaterialf
PUBLIC	??_C@_0N@PDBC@glTexCoord2f?$AA@			; `string'
PUBLIC	??_C@_0N@OFLI@glTexCoord3f?$AA@			; `string'
PUBLIC	?pglGenRenderbuffers@@3P6GXHPAI@ZA		; pglGenRenderbuffers
PUBLIC	?pglMaterialfv@@3P6GXIIPBM@ZA			; pglMaterialfv
PUBLIC	??_C@_0N@IEON@glTexCoord4f?$AA@			; `string'
PUBLIC	??_C@_0O@BHOK@glTexCoord1fv?$AA@		; `string'
PUBLIC	?pglRenderbufferStorage@@3P6GXIIHH@ZA		; pglRenderbufferStorage
PUBLIC	?pglMateriali@@3P6GXIIH@ZA			; pglMateriali
PUBLIC	??_C@_0O@OBNB@glTexCoord2fv?$AA@		; `string'
PUBLIC	??_C@_0O@LDMH@glTexCoord3fv?$AA@		; `string'
PUBLIC	?pglMaterialiv@@3P6GXIIPBH@ZA			; pglMaterialiv
PUBLIC	??_C@_0O@NKG@glTexCoord4fv?$AA@			; `string'
PUBLIC	?pglMatrixMode@@3P6GXI@ZA			; pglMatrixMode
PUBLIC	?pglRenderbufferStorageMultisample@@3P6GXIHIHH@ZA ; pglRenderbufferStorageMultisample
PUBLIC	??_C@_09NKIB@glTexGenf?$AA@			; `string'
PUBLIC	?pglMultMatrixd@@3P6GXPBN@ZA			; pglMultMatrixd
PUBLIC	??_C@_0L@DDPI@glTexGenfv?$AA@			; `string'
PUBLIC	?pglGetRenderbufferParameteriv@@3P6GXIIPAH@ZA	; pglGetRenderbufferParameteriv
PUBLIC	?pglMultMatrixf@@3P6GXPBM@ZA			; pglMultMatrixf
PUBLIC	??_C@_09NLNM@glTexGeni?$AA@			; `string'
PUBLIC	?pglIsFramebuffer@@3P6GEI@ZA			; pglIsFramebuffer
PUBLIC	??_C@_0L@DNLP@glVertex2f?$AA@			; `string'
PUBLIC	?pglNewList@@3P6GXII@ZA				; pglNewList
PUBLIC	??_C@_0L@CLBF@glVertex3f?$AA@			; `string'
PUBLIC	?pglBindFramebuffer@@3P6GXII@ZA			; pglBindFramebuffer
PUBLIC	??_C@_0M@PAAJ@glVertex3fv?$AA@			; `string'
PUBLIC	?pglNormal3b@@3P6GXCCC@ZA			; pglNormal3b
PUBLIC	?pglDeleteFramebuffers@@3P6GXHPBI@ZA		; pglDeleteFramebuffers
PUBLIC	??_C@_0L@JOCM@glNormal3f?$AA@			; `string'
PUBLIC	?pglNormal3bv@@3P6GXPBC@ZA			; pglNormal3bv
PUBLIC	??_C@_0M@DFLM@glNormal3fv?$AA@			; `string'
PUBLIC	?pglGenFramebuffers@@3P6GXHPAI@ZA		; pglGenFramebuffers
PUBLIC	??_C@_07GHIG@glBegin?$AA@			; `string'
PUBLIC	?pglCheckFramebufferStatus@@3P6GII@ZA		; pglCheckFramebufferStatus
PUBLIC	?pglNormal3d@@3P6GXNNN@ZA			; pglNormal3d
PUBLIC	??_C@_05FDNN@glEnd?$AA@				; `string'
PUBLIC	?pglNormal3dv@@3P6GXPBN@ZA			; pglNormal3dv
PUBLIC	??_C@_0M@KCLG@glLineWidth?$AA@			; `string'
PUBLIC	??_C@_0M@JAAI@glPointSize?$AA@			; `string'
PUBLIC	?pglFramebufferTexture1D@@3P6GXIIIIH@ZA		; pglFramebufferTexture1D
PUBLIC	?pglNormal3f@@3P6GXMMM@ZA			; pglNormal3f
PUBLIC	??_C@_0N@JNJF@glMatrixMode?$AA@			; `string'
PUBLIC	?pglNormal3fv@@3P6GXPBM@ZA			; pglNormal3fv
PUBLIC	??_C@_07ICOP@glOrtho?$AA@			; `string'
PUBLIC	??_C@_0O@HCNK@glRasterPos2f?$AA@		; `string'
PUBLIC	?pglFramebufferTexture2D@@3P6GXIIIIH@ZA		; pglFramebufferTexture2D
PUBLIC	?pglNormal3i@@3P6GXHHH@ZA			; pglNormal3i
PUBLIC	??_C@_09KLFM@glFrustum?$AA@			; `string'
PUBLIC	?pglNormal3iv@@3P6GXPBH@ZA			; pglNormal3iv
PUBLIC	??_C@_0L@INIC@glViewport?$AA@			; `string'
PUBLIC	??_C@_0N@KEGE@glPushMatrix?$AA@			; `string'
PUBLIC	?pglNormal3s@@3P6GXFFF@ZA			; pglNormal3s
PUBLIC	?pglFramebufferTexture3D@@3P6GXIIIIHH@ZA	; pglFramebufferTexture3D
PUBLIC	??_C@_0M@LACG@glPopMatrix?$AA@			; `string'
PUBLIC	?pglNormal3sv@@3P6GXPBF@ZA			; pglNormal3sv
PUBLIC	??_C@_0N@NFOG@glPushAttrib?$AA@			; `string'
PUBLIC	??_C@_0M@MBKE@glPopAttrib?$AA@			; `string'
PUBLIC	?pglFramebufferTextureLayer@@3P6GXIIIHH@ZA	; pglFramebufferTextureLayer
PUBLIC	??_C@_0P@MLMG@glLoadIdentity?$AA@		; `string'
PUBLIC	?pglOrtho@@3P6GXNNNNNN@ZA			; pglOrtho
PUBLIC	??_C@_0O@PGAL@glLoadMatrixd?$AA@		; `string'
PUBLIC	?pglPassThrough@@3P6GXM@ZA			; pglPassThrough
PUBLIC	??_C@_0O@KDCF@glLoadMatrixf?$AA@		; `string'
PUBLIC	?pglFramebufferRenderbuffer@@3P6GXIIII@ZA	; pglFramebufferRenderbuffer
PUBLIC	??_C@_0O@NKPG@glMultMatrixd?$AA@		; `string'
PUBLIC	?pglPixelMapfv@@3P6GXIHPBM@ZA			; pglPixelMapfv
PUBLIC	??_C@_0O@IPNI@glMultMatrixf?$AA@		; `string'
PUBLIC	?pglGetFramebufferAttachmentParameteriv@@3P6GXIIIPAH@ZA ; pglGetFramebufferAttachmentParameteriv
PUBLIC	??_C@_09OHFF@glRotated?$AA@			; `string'
PUBLIC	?pglPixelMapuiv@@3P6GXIHPBI@ZA			; pglPixelMapuiv
PUBLIC	??_C@_09LCHL@glRotatef?$AA@			; `string'
PUBLIC	??_C@_08IEGN@glScaled?$AA@			; `string'
PUBLIC	?pglPixelMapusv@@3P6GXIHPBG@ZA			; pglPixelMapusv
PUBLIC	??_C@_08NBED@glScalef?$AA@			; `string'
PUBLIC	??_C@_0N@IPCH@glTranslated?$AA@			; `string'
PUBLIC	?pglPixelStoref@@3P6GXIM@ZA			; pglPixelStoref
PUBLIC	??_C@_0N@NKAJ@glTranslatef?$AA@			; `string'
PUBLIC	?pglBlitFramebuffer@@3P6GXHHHHHHHHII@ZA		; pglBlitFramebuffer
PUBLIC	?pglPixelStorei@@3P6GXIH@ZA			; pglPixelStorei
PUBLIC	??_C@_0N@LBPG@glReadPixels?$AA@			; `string'
PUBLIC	??_C@_0N@JMMB@glDrawPixels?$AA@			; `string'
PUBLIC	?pglPixelTransferf@@3P6GXIM@ZA			; pglPixelTransferf
PUBLIC	??_C@_0O@GBFI@glStencilFunc?$AA@		; `string'
PUBLIC	?pglPixelTransferi@@3P6GXIH@ZA			; pglPixelTransferi
PUBLIC	??_C@_0O@IKEL@glStencilMask?$AA@		; `string'
PUBLIC	??_C@_0M@LODB@glStencilOp?$AA@			; `string'
PUBLIC	?pglPixelZoom@@3P6GXMM@ZA			; pglPixelZoom
PUBLIC	??_C@_0P@JHOA@glClearStencil?$AA@		; `string'
PUBLIC	?pglPointSize@@3P6GXM@ZA			; pglPointSize
PUBLIC	??_C@_0M@GNEM@glIsEnabled?$AA@			; `string'
PUBLIC	?pglPolygonMode@@3P6GXII@ZA			; pglPolygonMode
PUBLIC	??_C@_08MENJ@glIsList?$AA@			; `string'
PUBLIC	?pglCopyImageSubData@@3P6GXIIHHHHIIHHHHHHH@ZA	; pglCopyImageSubData
PUBLIC	??_C@_0M@NCFH@glIsTexture?$AA@			; `string'
PUBLIC	?pglPolygonOffset@@3P6GXMM@ZA			; pglPolygonOffset
PUBLIC	?pglGenerateMipmap@@3P6GXI@ZA			; pglGenerateMipmap
PUBLIC	??_C@_09CJFG@glTexEnvf?$AA@			; `string'
PUBLIC	?pglPolygonStipple@@3P6GXPBE@ZA			; pglPolygonStipple
PUBLIC	?pwglGetProcAddress@@3P6GP6GHXZPBD@ZA		; pwglGetProcAddress
PUBLIC	??_C@_0L@IHAL@glTexEnvfv?$AA@			; `string'
PUBLIC	?pglPopAttrib@@3P6GXXZA				; pglPopAttrib
PUBLIC	?pglBindVertexArray@@3P6GXI@ZA			; pglBindVertexArray
PUBLIC	??_C@_09CIAL@glTexEnvi?$AA@			; `string'
PUBLIC	?pglPopClientAttrib@@3P6GXXZA			; pglPopClientAttrib
PUBLIC	?pglDeleteVertexArrays@@3P6GXHPBI@ZA		; pglDeleteVertexArrays
PUBLIC	??_C@_0BA@CLDA@glTexParameterf?$AA@		; `string'
PUBLIC	?pglPopMatrix@@3P6GXXZA				; pglPopMatrix
PUBLIC	??_C@_0BB@NJAJ@glTexParameterfv?$AA@		; `string'
PUBLIC	?pglGenVertexArrays@@3P6GXHPBI@ZA		; pglGenVertexArrays
PUBLIC	?pglPopName@@3P6GXXZA				; pglPopName
PUBLIC	??_C@_0BA@CKGN@glTexParameteri?$AA@		; `string'
PUBLIC	?pglIsVertexArray@@3P6GEI@ZA			; pglIsVertexArray
PUBLIC	?pglPushAttrib@@3P6GXI@ZA			; pglPushAttrib
PUBLIC	??_C@_06IKLF@glHint?$AA@			; `string'
PUBLIC	?pglPushClientAttrib@@3P6GXI@ZA			; pglPushClientAttrib
PUBLIC	??_C@_0O@ELGF@glPixelStoref?$AA@		; `string'
PUBLIC	?pglPushMatrix@@3P6GXXZA			; pglPushMatrix
PUBLIC	??_C@_0O@EKDI@glPixelStorei?$AA@		; `string'
PUBLIC	?pglPushName@@3P6GXI@ZA				; pglPushName
PUBLIC	??_C@_0O@DAHJ@glGenTextures?$AA@		; `string'
PUBLIC	?pglRasterPos2d@@3P6GXNN@ZA			; pglRasterPos2d
PUBLIC	??_C@_0BB@OKAI@glDeleteTextures?$AA@		; `string'
PUBLIC	?pglRasterPos2dv@@3P6GXPBN@ZA			; pglRasterPos2dv
PUBLIC	??_C@_0O@NAMD@glBindTexture?$AA@		; `string'
PUBLIC	??_C@_0N@LLDN@glTexImage1D?$AA@			; `string'
PUBLIC	?pglRasterPos2f@@3P6GXMM@ZA			; pglRasterPos2f
PUBLIC	?pglDebugMessageControlARB@@3P6GXIIIHPBIE@ZA	; pglDebugMessageControlARB
PUBLIC	??_C@_0N@IAMC@glTexImage2D?$AA@			; `string'
PUBLIC	?pglRasterPos2fv@@3P6GXPBM@ZA			; pglRasterPos2fv
PUBLIC	??_C@_0BA@JOPC@glTexSubImage1D?$AA@		; `string'
PUBLIC	?pglRasterPos2i@@3P6GXHH@ZA			; pglRasterPos2i
PUBLIC	??_C@_0BA@KFAN@glTexSubImage2D?$AA@		; `string'
PUBLIC	?pglRasterPos2iv@@3P6GXPBH@ZA			; pglRasterPos2iv
PUBLIC	??_C@_0BB@HNGB@glCopyTexImage1D?$AA@		; `string'
PUBLIC	?pglDebugMessageInsertARB@@3P6GXIIIIHPBD@ZA	; pglDebugMessageInsertARB
PUBLIC	??_C@_0BB@EGJO@glCopyTexImage2D?$AA@		; `string'
PUBLIC	?pglRasterPos2s@@3P6GXFF@ZA			; pglRasterPos2s
PUBLIC	?pglDebugMessageCallbackARB@@3P6GXP6GXIIIIHPBDPAX@Z1@ZA ; pglDebugMessageCallbackARB
PUBLIC	??_C@_0BE@OMHF@glCopyTexSubImage1D?$AA@		; `string'
PUBLIC	?pglRasterPos2sv@@3P6GXPBF@ZA			; pglRasterPos2sv
PUBLIC	??_C@_0BE@NHIK@glCopyTexSubImage2D?$AA@		; `string'
PUBLIC	??_C@_09HOGJ@glScissor?$AA@			; `string'
PUBLIC	?pglRasterPos3d@@3P6GXNNN@ZA			; pglRasterPos3d
PUBLIC	??_C@_0O@HGPI@glGetTexImage?$AA@		; `string'
PUBLIC	?pglRasterPos3dv@@3P6GXPBN@ZA			; pglRasterPos3dv
PUBLIC	??_C@_0O@JDNI@glGetTexEnviv?$AA@		; `string'
PUBLIC	?pglGetDebugMessageLogARB@@3P6GIIHPAI000PAHPAD@ZA ; pglGetDebugMessageLogARB
PUBLIC	??_C@_0BA@BALB@glPolygonOffset?$AA@		; `string'
PUBLIC	?pglRasterPos3f@@3P6GXMMM@ZA			; pglRasterPos3f
PUBLIC	??_C@_0O@FGKK@glPolygonMode?$AA@		; `string'
PUBLIC	?pglRasterPos3fv@@3P6GXPBM@ZA			; pglRasterPos3fv
PUBLIC	??_C@_0BB@FIOF@glPolygonStipple?$AA@		; `string'
PUBLIC	??_C@_0M@KLCG@glClipPlane?$AA@			; `string'
PUBLIC	?pglRasterPos3i@@3P6GXHHH@ZA			; pglRasterPos3i
PUBLIC	??_C@_0P@EAOG@glGetClipPlane?$AA@		; `string'
PUBLIC	?pglRasterPos3iv@@3P6GXPBH@ZA			; pglRasterPos3iv
PUBLIC	??_C@_0N@LIFO@glShadeModel?$AA@			; `string'
PUBLIC	??_C@_0BJ@DLL@glGetTexLevelParameteriv?$AA@	; `string'
PUBLIC	?pglRasterPos3s@@3P6GXFFF@ZA			; pglRasterPos3s
PUBLIC	??_C@_0BJ@NHLK@glGetTexLevelParameterfv?$AA@	; `string'
PUBLIC	?pglRasterPos3sv@@3P6GXPBF@ZA			; pglRasterPos3sv
PUBLIC	??_C@_07KOOO@glFogfv?$AA@			; `string'
PUBLIC	??_C@_06MMBO@glFogf?$AA@			; `string'
PUBLIC	?pglRasterPos4d@@3P6GXNNNN@ZA			; pglRasterPos4d
PUBLIC	??_C@_06MNED@glFogi?$AA@			; `string'
PUBLIC	?pglRasterPos4dv@@3P6GXPBN@ZA			; pglRasterPos4dv
PUBLIC	??_C@_0BE@NEHK@glDrawRangeElements?$AA@		; `string'
PUBLIC	??_C@_0BH@DCHD@glDrawRangeElementsEXT?$AA@	; `string'
PUBLIC	?pglRasterPos4f@@3P6GXMMMM@ZA			; pglRasterPos4f
PUBLIC	?pglRasterPos4fv@@3P6GXPBM@ZA			; pglRasterPos4fv
PUBLIC	??_C@_0BJ@CDAF@glDebugMessageControlARB?$AA@	; `string'
PUBLIC	??_C@_0BI@NDFI@glDebugMessageInsertARB?$AA@	; `string'
PUBLIC	??_C@_0BK@CJJK@glDebugMessageCallbackARB?$AA@	; `string'
PUBLIC	?pglRasterPos4i@@3P6GXHHHH@ZA			; pglRasterPos4i
PUBLIC	??_C@_0BI@BALA@glGetDebugMessageLogARB?$AA@	; `string'
PUBLIC	?pglRasterPos4iv@@3P6GXPBH@ZA			; pglRasterPos4iv
PUBLIC	??_C@_0BF@JBHE@glMultiTexCoord1fARB?$AA@	; `string'
PUBLIC	??_C@_0BF@HBBL@glMultiTexCoord2fARB?$AA@	; `string'
PUBLIC	?pglRasterPos4s@@3P6GXFFFF@ZA			; pglRasterPos4s
PUBLIC	??_C@_0BF@NBDO@glMultiTexCoord3fARB?$AA@	; `string'
PUBLIC	?pglRasterPos4sv@@3P6GXPBF@ZA			; pglRasterPos4sv
PUBLIC	??_C@_0BF@LBME@glMultiTexCoord4fARB?$AA@	; `string'
PUBLIC	?pglReadBuffer@@3P6GXI@ZA			; pglReadBuffer
PUBLIC	??_C@_0BD@IJD@glActiveTextureARB?$AA@		; `string'
PUBLIC	??_C@_0BJ@NIEC@glClientActiveTextureARB?$AA@	; `string'
PUBLIC	?pglReadPixels@@3P6GXHHHHIIPAX@ZA		; pglReadPixels
PUBLIC	??_C@_0BA@LIMG@glTexImage3DEXT?$AA@		; `string'
PUBLIC	??_C@_0BD@EEOI@glTexSubImage3DEXT?$AA@		; `string'
PUBLIC	??_C@_0BH@EKCH@glCopyTexSubImage3DEXT?$AA@	; `string'
PUBLIC	?pglRectd@@3P6GXNNNN@ZA				; pglRectd
PUBLIC	??_C@_0BH@KH@glBlendFuncSeparateEXT?$AA@	; `string'
PUBLIC	?pglRectdv@@3P6GXPBN0@ZA			; pglRectdv
PUBLIC	??_C@_0BD@NDLE@glBlendEquationEXT?$AA@		; `string'
PUBLIC	?pglRectf@@3P6GXMMMM@ZA				; pglRectf
PUBLIC	??_C@_0BC@PIBE@glDeleteObjectARB?$AA@		; `string'
PUBLIC	??_C@_0P@GFKC@glGetHandleARB?$AA@		; `string'
PUBLIC	?pglRectfv@@3P6GXPBM0@ZA			; pglRectfv
PUBLIC	??_C@_0BC@CBIF@glDetachObjectARB?$AA@		; `string'
PUBLIC	??_C@_0BI@EPLB@glCreateShaderObjectARB?$AA@	; `string'
PUBLIC	?pglRecti@@3P6GXHHHH@ZA				; pglRecti
PUBLIC	??_C@_0BC@NPKF@glShaderSourceARB?$AA@		; `string'
PUBLIC	??_C@_0BD@KHGH@glCompileShaderARB?$AA@		; `string'
PUBLIC	?pglRectiv@@3P6GXPBH0@ZA			; pglRectiv
PUBLIC	??_C@_0BJ@HCBE@glCreateProgramObjectARB?$AA@	; `string'
PUBLIC	??_C@_0BC@EMOD@glAttachObjectARB?$AA@		; `string'
PUBLIC	?pglRects@@3P6GXFFFF@ZA				; pglRects
PUBLIC	??_C@_0BB@PIMF@glLinkProgramARB?$AA@		; `string'
PUBLIC	??_C@_0BG@IGNN@glUseProgramObjectARB?$AA@	; `string'
PUBLIC	?pglRectsv@@3P6GXPBF0@ZA			; pglRectsv
PUBLIC	??_C@_0BF@LMJF@glValidateProgramARB?$AA@	; `string'
PUBLIC	??_C@_0P@EEMG@glUniform1fARB?$AA@		; `string'
PUBLIC	?pglRotated@@3P6GXNNNN@ZA			; pglRotated
PUBLIC	??_C@_0P@KEKJ@glUniform2fARB?$AA@		; `string'
PUBLIC	??_C@_0P@EIM@glUniform3fARB?$AA@		; `string'
PUBLIC	??_C@_0P@GEHG@glUniform4fARB?$AA@		; `string'
PUBLIC	?pglRotatef@@3P6GXMMMM@ZA			; pglRotatef
PUBLIC	??_C@_0P@JEOI@glUniform1iARB?$AA@		; `string'
PUBLIC	??_C@_0P@HEIH@glUniform2iARB?$AA@		; `string'
PUBLIC	?pglScaled@@3P6GXNNN@ZA				; pglScaled
PUBLIC	??_C@_0P@NEKC@glUniform3iARB?$AA@		; `string'
PUBLIC	??_C@_0P@LEFI@glUniform4iARB?$AA@		; `string'
PUBLIC	?pglScalef@@3P6GXMMM@ZA				; pglScalef
PUBLIC	??_C@_0BA@NAIP@glUniform1fvARB?$AA@		; `string'
PUBLIC	??_C@_0BA@GOGP@glUniform2fvARB?$AA@		; `string'
PUBLIC	?pglScissor@@3P6GXHHHH@ZA			; pglScissor
PUBLIC	??_C@_0BA@PLMP@glUniform3fvARB?$AA@		; `string'
PUBLIC	??_C@_0BA@BDKP@glUniform4fvARB?$AA@		; `string'
PUBLIC	?pglSelectBuffer@@3P6GXHPAI@ZA			; pglSelectBuffer
PUBLIC	??_C@_0BA@LBFP@glUniform1ivARB?$AA@		; `string'
PUBLIC	?pglShadeModel@@3P6GXI@ZA			; pglShadeModel
PUBLIC	??_C@_0BA@PLP@glUniform2ivARB?$AA@		; `string'
PUBLIC	??_C@_0BA@JKBP@glUniform3ivARB?$AA@		; `string'
PUBLIC	?pglStencilFunc@@3P6GXIHI@ZA			; pglStencilFunc
PUBLIC	??_C@_0BA@HCHP@glUniform4ivARB?$AA@		; `string'
PUBLIC	?pglStencilMask@@3P6GXI@ZA			; pglStencilMask
PUBLIC	??_C@_0BG@HEBC@glUniformMatrix2fvARB?$AA@	; `string'
PUBLIC	??_C@_0BG@OBLC@glUniformMatrix3fvARB?$AA@	; `string'
PUBLIC	?pglStencilOp@@3P6GXIII@ZA			; pglStencilOp
PUBLIC	??_C@_0BG@JNC@glUniformMatrix4fvARB?$AA@	; `string'
PUBLIC	?pglTexCoord1d@@3P6GXN@ZA			; pglTexCoord1d
PUBLIC	??_C@_0BK@LDGO@glGetObjectParameterfvARB?$AA@	; `string'
PUBLIC	?pglTexCoord1dv@@3P6GXPBN@ZA			; pglTexCoord1dv
PUBLIC	??_C@_0BK@NCLO@glGetObjectParameterivARB?$AA@	; `string'
PUBLIC	?pglTexCoord1f@@3P6GXM@ZA			; pglTexCoord1f
PUBLIC	??_C@_0BA@CMKF@glGetInfoLogARB?$AA@		; `string'
PUBLIC	?pglTexCoord1fv@@3P6GXPBM@ZA			; pglTexCoord1fv
PUBLIC	??_C@_0BI@GBKL@glGetAttachedObjectsARB?$AA@	; `string'
PUBLIC	?pglTexCoord1i@@3P6GXH@ZA			; pglTexCoord1i
PUBLIC	??_C@_0BI@IDLL@glGetUniformLocationARB?$AA@	; `string'
PUBLIC	?pglTexCoord1iv@@3P6GXPBH@ZA			; pglTexCoord1iv
PUBLIC	??_C@_0BG@JFEH@glGetActiveUniformARB?$AA@	; `string'
PUBLIC	?pglTexCoord1s@@3P6GXF@ZA			; pglTexCoord1s
PUBLIC	??_C@_0BC@MDDE@glGetUniformfvARB?$AA@		; `string'
PUBLIC	?pglTexCoord1sv@@3P6GXPBF@ZA			; pglTexCoord1sv
PUBLIC	??_C@_0BC@KCOE@glGetUniformivARB?$AA@		; `string'
PUBLIC	?pglTexCoord2d@@3P6GXNN@ZA			; pglTexCoord2d
PUBLIC	??_C@_0BF@DFJL@glGetShaderSourceARB?$AA@	; `string'
PUBLIC	?pglTexCoord2dv@@3P6GXPBN@ZA			; pglTexCoord2dv
PUBLIC	??_C@_0BJ@BPFA@glVertexAttribPointerARB?$AA@	; `string'
PUBLIC	??_C@_0BN@DJDP@glEnableVertexAttribArrayARB?$AA@ ; `string'
PUBLIC	?pglTexCoord2f@@3P6GXMM@ZA			; pglTexCoord2f
PUBLIC	??_C@_0BO@IOBM@glDisableVertexAttribArrayARB?$AA@ ; `string'
PUBLIC	?pglTexCoord2fv@@3P6GXPBM@ZA			; pglTexCoord2fv
PUBLIC	??_C@_0BI@IPDI@glBindAttribLocationARB?$AA@	; `string'
PUBLIC	?pglTexCoord2i@@3P6GXHH@ZA			; pglTexCoord2i
PUBLIC	??_C@_0BF@CFAG@glGetActiveAttribARB?$AA@	; `string'
PUBLIC	?pglTexCoord2iv@@3P6GXPBH@ZA			; pglTexCoord2iv
PUBLIC	??_C@_0BH@LMPE@glGetAttribLocationARB?$AA@	; `string'
PUBLIC	??_C@_0BB@GLJM@glVertexAttrib2f?$AA@		; `string'
PUBLIC	?pglTexCoord2s@@3P6GXFF@ZA			; pglTexCoord2s
PUBLIC	??_C@_0BC@OEEJ@glVertexAttrib2fv?$AA@		; `string'
PUBLIC	?pglTexCoord2sv@@3P6GXPBF@ZA			; pglTexCoord2sv
PUBLIC	??_C@_0BC@LGFP@glVertexAttrib3fv?$AA@		; `string'
PUBLIC	??_C@_0BB@BMGD@glVertexAttrib4f?$AA@		; `string'
PUBLIC	?pglTexCoord3d@@3P6GXNNN@ZA			; pglTexCoord3d
PUBLIC	??_C@_0BC@IDO@glVertexAttrib4fv?$AA@		; `string'
PUBLIC	?pglTexCoord3dv@@3P6GXPBN@ZA			; pglTexCoord3dv
PUBLIC	??_C@_0BD@IMHI@glVertexAttrib4ubv?$AA@		; `string'
PUBLIC	?pglTexCoord3f@@3P6GXMMM@ZA			; pglTexCoord3f
PUBLIC	?pglTexCoord3fv@@3P6GXPBM@ZA			; pglTexCoord3fv
PUBLIC	?pglTexCoord3i@@3P6GXHHH@ZA			; pglTexCoord3i
PUBLIC	??_C@_0BA@DLFE@glBindBufferARB?$AA@		; `string'
PUBLIC	?pglTexCoord3iv@@3P6GXPBH@ZA			; pglTexCoord3iv
PUBLIC	??_C@_0BD@NMOF@glDeleteBuffersARB?$AA@		; `string'
PUBLIC	??_C@_0BA@KOEM@glGenBuffersARB?$AA@		; `string'
PUBLIC	?pglTexCoord3s@@3P6GXFFF@ZA			; pglTexCoord3s
PUBLIC	?glState@@3UglState_t@@A			; glState
PUBLIC	??_C@_0O@GDII@glIsBufferARB?$AA@		; `string'
PUBLIC	?glConfig@@3UglConfig_t@@A			; glConfig
PUBLIC	?pglTexCoord3sv@@3P6GXPBF@ZA			; pglTexCoord3sv
PUBLIC	??_C@_0P@CBOK@glMapBufferARB?$AA@		; `string'
PUBLIC	??_C@_0BB@DPNF@glUnmapBufferARB?$AA@		; `string'
PUBLIC	?pglTexCoord4d@@3P6GXNNNN@ZA			; pglTexCoord4d
PUBLIC	??_C@_0BA@HHJE@glBufferDataARB?$AA@		; `string'
PUBLIC	?pglTexCoord4dv@@3P6GXPBN@ZA			; pglTexCoord4dv
PUBLIC	??_C@_0BD@FIPI@glBufferSubDataARB?$AA@		; `string'
PUBLIC	??_C@_0BC@GKBG@glBindVertexArray?$AA@		; `string'
PUBLIC	?pglTexCoord4f@@3P6GXMMMM@ZA			; pglTexCoord4f
PUBLIC	??_C@_0BF@LBKN@glDeleteVertexArrays?$AA@	; `string'
PUBLIC	?pglTexCoord4fv@@3P6GXPBM@ZA			; pglTexCoord4fv
PUBLIC	??_C@_0BC@HLGE@glGenVertexArrays?$AA@		; `string'
PUBLIC	??_C@_0BA@BCOG@glIsVertexArray?$AA@		; `string'
PUBLIC	?pglTexCoord4i@@3P6GXHHHH@ZA			; pglTexCoord4i
PUBLIC	??_C@_0BB@GNLM@glIsRenderbuffer?$AA@		; `string'
PUBLIC	?pglTexCoord4iv@@3P6GXPBH@ZA			; pglTexCoord4iv
PUBLIC	??_C@_0BD@KHME@glBindRenderbuffer?$AA@		; `string'
PUBLIC	??_C@_0BG@KCGE@glDeleteRenderbuffers?$AA@	; `string'
PUBLIC	??_C@_0BD@PMKO@glGenRenderbuffers?$AA@		; `string'
PUBLIC	?pglTexCoord4s@@3P6GXFFFF@ZA			; pglTexCoord4s
PUBLIC	??_C@_0BG@HFLO@glRenderbufferStorage?$AA@	; `string'
PUBLIC	?pglTexCoord4sv@@3P6GXPBF@ZA			; pglTexCoord4sv
PUBLIC	??_C@_0BN@IIKB@glGetRenderbufferParameteriv?$AA@ ; `string'
PUBLIC	??_C@_0BA@CED@glIsFramebuffer?$AA@		; `string'
PUBLIC	?pglTexEnvf@@3P6GXIIM@ZA			; pglTexEnvf
PUBLIC	??_C@_0BC@HKLD@glBindFramebuffer?$AA@		; `string'
PUBLIC	??_C@_0BF@DGLN@glDeleteFramebuffers?$AA@	; `string'
PUBLIC	?pglTexEnvfv@@3P6GXIIPBM@ZA			; pglTexEnvfv
PUBLIC	??_C@_0BC@PMHE@glGenFramebuffers?$AA@		; `string'
PUBLIC	??_C@_0BJ@JLAM@glCheckFramebufferStatus?$AA@	; `string'
PUBLIC	?pglTexEnvi@@3P6GXIIH@ZA			; pglTexEnvi
PUBLIC	??_C@_0BH@ECGF@glFramebufferTexture1D?$AA@	; `string'
PUBLIC	??_C@_0BH@HJJK@glFramebufferTexture2D?$AA@	; `string'
PUBLIC	?pglTexEnviv@@3P6GXIIPBH@ZA			; pglTexEnviv
PUBLIC	??_C@_0BH@GPDA@glFramebufferTexture3D?$AA@	; `string'
PUBLIC	??_C@_0BK@JPJE@glFramebufferRenderbuffer?$AA@	; `string'
PUBLIC	?pglTexGend@@3P6GXIIN@ZA			; pglTexGend
PUBLIC	??_C@_0CG@CBFL@glGetFramebufferAttachmentParame@ ; `string'
PUBLIC	??_C@_0BB@OJAP@glGenerateMipmap?$AA@		; `string'
PUBLIC	?pglTexGendv@@3P6GXIIPBN@ZA			; pglTexGendv
PUBLIC	??_C@_0BA@NAHP@glGenQueriesARB?$AA@		; `string'
PUBLIC	?pglTexGenf@@3P6GXIIM@ZA			; pglTexGenf
PUBLIC	??_C@_0BD@KCNG@glDeleteQueriesARB?$AA@		; `string'
PUBLIC	??_C@_0N@IHPM@glIsQueryARB?$AA@			; `string'
PUBLIC	?pglTexGenfv@@3P6GXIIPBM@ZA			; pglTexGenfv
PUBLIC	??_C@_0BA@OHED@glBeginQueryARB?$AA@		; `string'
PUBLIC	??_C@_0O@ENCE@glEndQueryARB?$AA@		; `string'
PUBLIC	?pglTexGeni@@3P6GXIIH@ZA			; pglTexGeni
PUBLIC	??_C@_0BA@JCEF@glGetQueryivARB?$AA@		; `string'
PUBLIC	??_C@_0BG@LEAK@glGetQueryObjectivARB?$AA@	; `string'
PUBLIC	?pglTexGeniv@@3P6GXIIPBH@ZA			; pglTexGeniv
PUBLIC	??_C@_0BH@OAHJ@glGetQueryObjectuivARB?$AA@	; `string'
PUBLIC	?pglTexImage1D@@3P6GXIHHHHIIPBX@ZA		; pglTexImage1D
_BSS	SEGMENT
?pglTexImage2D@@3P6GXIHHHHHIIPBX@ZA DD 01H DUP (?)	; pglTexImage2D
?pglTexParameterf@@3P6GXIIM@ZA DD 01H DUP (?)		; pglTexParameterf
?pglTexParameterfv@@3P6GXIIPBM@ZA DD 01H DUP (?)	; pglTexParameterfv
?pglTexParameteri@@3P6GXIIH@ZA DD 01H DUP (?)		; pglTexParameteri
?pglTexParameteriv@@3P6GXIIPBH@ZA DD 01H DUP (?)	; pglTexParameteriv
?pglTexSubImage1D@@3P6GXIHHHIIPBX@ZA DD 01H DUP (?)	; pglTexSubImage1D
?pglTexSubImage2D@@3P6GXIHHHHHIIPBX@ZA DD 01H DUP (?)	; pglTexSubImage2D
?pglTranslated@@3P6GXNNN@ZA DD 01H DUP (?)		; pglTranslated
?pglTranslatef@@3P6GXMMM@ZA DD 01H DUP (?)		; pglTranslatef
?pglVertex2d@@3P6GXNN@ZA DD 01H DUP (?)			; pglVertex2d
?pglVertex2dv@@3P6GXPBN@ZA DD 01H DUP (?)		; pglVertex2dv
?pglGetError@@3P6GIXZA DD 01H DUP (?)			; pglGetError
?pglVertex2f@@3P6GXMM@ZA DD 01H DUP (?)			; pglVertex2f
?pglGetString@@3P6GPBDI@ZA DD 01H DUP (?)		; pglGetString
?pglVertex2fv@@3P6GXPBM@ZA DD 01H DUP (?)		; pglVertex2fv
?pglVertex2i@@3P6GXHH@ZA DD 01H DUP (?)			; pglVertex2i
?pglAccum@@3P6GXIM@ZA DD 01H DUP (?)			; pglAccum
?pglVertex2iv@@3P6GXPBH@ZA DD 01H DUP (?)		; pglVertex2iv
?pglAlphaFunc@@3P6GXIM@ZA DD 01H DUP (?)		; pglAlphaFunc
?pglBegin@@3P6GXI@ZA DD 01H DUP (?)			; pglBegin
?pglVertex2s@@3P6GXFF@ZA DD 01H DUP (?)			; pglVertex2s
?pglVertex2sv@@3P6GXPBF@ZA DD 01H DUP (?)		; pglVertex2sv
?pglBindTexture@@3P6GXII@ZA DD 01H DUP (?)		; pglBindTexture
?pglVertex3d@@3P6GXNNN@ZA DD 01H DUP (?)		; pglVertex3d
?pglVertex3dv@@3P6GXPBN@ZA DD 01H DUP (?)		; pglVertex3dv
?pglBitmap@@3P6GXHHMMMMPBE@ZA DD 01H DUP (?)		; pglBitmap
?pglVertex3f@@3P6GXMMM@ZA DD 01H DUP (?)		; pglVertex3f
?pglVertex3fv@@3P6GXPBM@ZA DD 01H DUP (?)		; pglVertex3fv
?pglBlendFunc@@3P6GXII@ZA DD 01H DUP (?)		; pglBlendFunc
?pglCallList@@3P6GXI@ZA DD 01H DUP (?)			; pglCallList
?pglVertex3i@@3P6GXHHH@ZA DD 01H DUP (?)		; pglVertex3i
?pglCallLists@@3P6GXHIPBX@ZA DD 01H DUP (?)		; pglCallLists
?pglVertex3iv@@3P6GXPBH@ZA DD 01H DUP (?)		; pglVertex3iv
?pglClear@@3P6GXI@ZA DD 01H DUP (?)			; pglClear
?pglVertex3s@@3P6GXFFF@ZA DD 01H DUP (?)		; pglVertex3s
?pglVertex3sv@@3P6GXPBF@ZA DD 01H DUP (?)		; pglVertex3sv
?pglClearAccum@@3P6GXMMMM@ZA DD 01H DUP (?)		; pglClearAccum
?pglVertex4d@@3P6GXNNNN@ZA DD 01H DUP (?)		; pglVertex4d
?pglClearColor@@3P6GXMMMM@ZA DD 01H DUP (?)		; pglClearColor
?pglVertex4dv@@3P6GXPBN@ZA DD 01H DUP (?)		; pglVertex4dv
?pglClearDepth@@3P6GXN@ZA DD 01H DUP (?)		; pglClearDepth
?pglClearIndex@@3P6GXM@ZA DD 01H DUP (?)		; pglClearIndex
?pglClearStencil@@3P6GXH@ZA DD 01H DUP (?)		; pglClearStencil
?pglVertex4f@@3P6GXMMMM@ZA DD 01H DUP (?)		; pglVertex4f
?pglIsEnabled@@3P6GEI@ZA DD 01H DUP (?)			; pglIsEnabled
?pglVertex4fv@@3P6GXPBM@ZA DD 01H DUP (?)		; pglVertex4fv
?pglIsList@@3P6GEI@ZA DD 01H DUP (?)			; pglIsList
?pglIsTexture@@3P6GEI@ZA DD 01H DUP (?)			; pglIsTexture
?pglVertex4i@@3P6GXHHHH@ZA DD 01H DUP (?)		; pglVertex4i
?pglClipPlane@@3P6GXIPBN@ZA DD 01H DUP (?)		; pglClipPlane
?pglVertex4iv@@3P6GXPBH@ZA DD 01H DUP (?)		; pglVertex4iv
?pglColor3b@@3P6GXCCC@ZA DD 01H DUP (?)			; pglColor3b
?pglVertex4s@@3P6GXFFFF@ZA DD 01H DUP (?)		; pglVertex4s
?pglColor3bv@@3P6GXPBC@ZA DD 01H DUP (?)		; pglColor3bv
?pglVertex4sv@@3P6GXPBF@ZA DD 01H DUP (?)		; pglVertex4sv
?pglColor3d@@3P6GXNNN@ZA DD 01H DUP (?)			; pglColor3d
?pglColor3dv@@3P6GXPBN@ZA DD 01H DUP (?)		; pglColor3dv
?pglViewport@@3P6GXHHHH@ZA DD 01H DUP (?)		; pglViewport
?pglPointParameterfEXT@@3P6GXIM@ZA DD 01H DUP (?)	; pglPointParameterfEXT
?pglColor3f@@3P6GXMMM@ZA DD 01H DUP (?)			; pglColor3f
?pglColor3fv@@3P6GXPBM@ZA DD 01H DUP (?)		; pglColor3fv
?pglPointParameterfvEXT@@3P6GXIPBM@ZA DD 01H DUP (?)	; pglPointParameterfvEXT
?pglLockArraysEXT@@3P6GXHH@ZA DD 01H DUP (?)		; pglLockArraysEXT
?pglColor3i@@3P6GXHHH@ZA DD 01H DUP (?)			; pglColor3i
?pglUnlockArraysEXT@@3P6GXXZA DD 01H DUP (?)		; pglUnlockArraysEXT
?pglColor3iv@@3P6GXPBH@ZA DD 01H DUP (?)		; pglColor3iv
?pglActiveTextureARB@@3P6GXI@ZA DD 01H DUP (?)		; pglActiveTextureARB
?pglClientActiveTextureARB@@3P6GXI@ZA DD 01H DUP (?)	; pglClientActiveTextureARB
?pglColor3s@@3P6GXFFF@ZA DD 01H DUP (?)			; pglColor3s
?pglColor3sv@@3P6GXPBF@ZA DD 01H DUP (?)		; pglColor3sv
?pglGetCompressedTexImage@@3P6GXIHPBX@ZA DD 01H DUP (?)	; pglGetCompressedTexImage
?pglColor3ub@@3P6GXEEE@ZA DD 01H DUP (?)		; pglColor3ub
?pglColor3ubv@@3P6GXPBE@ZA DD 01H DUP (?)		; pglColor3ubv
?pglDrawRangeElements@@3P6GXIIIHIPBX@ZA DD 01H DUP (?)	; pglDrawRangeElements
?pglColor3ui@@3P6GXIII@ZA DD 01H DUP (?)		; pglColor3ui
?pglColor3uiv@@3P6GXPBI@ZA DD 01H DUP (?)		; pglColor3uiv
?pglDrawRangeElementsEXT@@3P6GXIIIHIPBX@ZA DD 01H DUP (?) ; pglDrawRangeElementsEXT
?pglColor3us@@3P6GXGGG@ZA DD 01H DUP (?)		; pglColor3us
?pglColor3usv@@3P6GXPBG@ZA DD 01H DUP (?)		; pglColor3usv
?pglDrawElements@@3P6GXIHIPBX@ZA DD 01H DUP (?)		; pglDrawElements
?pglColor4b@@3P6GXCCCC@ZA DD 01H DUP (?)		; pglColor4b
?pglColor4bv@@3P6GXPBC@ZA DD 01H DUP (?)		; pglColor4bv
?pglVertexPointer@@3P6GXHIHPBX@ZA DD 01H DUP (?)	; pglVertexPointer
?pglNormalPointer@@3P6GXIHPBX@ZA DD 01H DUP (?)		; pglNormalPointer
?pglColor4d@@3P6GXNNNN@ZA DD 01H DUP (?)		; pglColor4d
?pglColor4dv@@3P6GXPBN@ZA DD 01H DUP (?)		; pglColor4dv
?pglColorPointer@@3P6GXHIHPBX@ZA DD 01H DUP (?)		; pglColorPointer
?pglColor4f@@3P6GXMMMM@ZA DD 01H DUP (?)		; pglColor4f
?pglColor4fv@@3P6GXPBM@ZA DD 01H DUP (?)		; pglColor4fv
?pglTexCoordPointer@@3P6GXHIHPBX@ZA DD 01H DUP (?)	; pglTexCoordPointer
?pglArrayElement@@3P6GXH@ZA DD 01H DUP (?)		; pglArrayElement
?pglColor4i@@3P6GXHHHH@ZA DD 01H DUP (?)		; pglColor4i
?pglMultiTexCoord1f@@3P6GXIM@ZA DD 01H DUP (?)		; pglMultiTexCoord1f
?pglColor4iv@@3P6GXPBH@ZA DD 01H DUP (?)		; pglColor4iv
?pglMultiTexCoord2f@@3P6GXIMM@ZA DD 01H DUP (?)		; pglMultiTexCoord2f
?pglColor4s@@3P6GXFFFF@ZA DD 01H DUP (?)		; pglColor4s
?pglColor4sv@@3P6GXPBF@ZA DD 01H DUP (?)		; pglColor4sv
?pglMultiTexCoord3f@@3P6GXIMMM@ZA DD 01H DUP (?)	; pglMultiTexCoord3f
?pglColor4ub@@3P6GXEEEE@ZA DD 01H DUP (?)		; pglColor4ub
?pglMultiTexCoord4f@@3P6GXIMMMM@ZA DD 01H DUP (?)	; pglMultiTexCoord4f
?pglColor4ubv@@3P6GXPBE@ZA DD 01H DUP (?)		; pglColor4ubv
?pglActiveTexture@@3P6GXI@ZA DD 01H DUP (?)		; pglActiveTexture
?pglClientActiveTexture@@3P6GXI@ZA DD 01H DUP (?)	; pglClientActiveTexture
?pglColor4ui@@3P6GXIIII@ZA DD 01H DUP (?)		; pglColor4ui
?pglColor4uiv@@3P6GXPBI@ZA DD 01H DUP (?)		; pglColor4uiv
?pglColor4us@@3P6GXGGGG@ZA DD 01H DUP (?)		; pglColor4us
?pglCompressedTexImage3DARB@@3P6GXIHIHHHHHPBX@ZA DD 01H DUP (?) ; pglCompressedTexImage3DARB
?pglColor4usv@@3P6GXPBG@ZA DD 01H DUP (?)		; pglColor4usv
?pglColorMask@@3P6GXEEEE@ZA DD 01H DUP (?)		; pglColorMask
?pglCompressedTexImage2DARB@@3P6GXIHIHHHHPBX@ZA DD 01H DUP (?) ; pglCompressedTexImage2DARB
?pglColorMaterial@@3P6GXII@ZA DD 01H DUP (?)		; pglColorMaterial
?pglCopyPixels@@3P6GXHHHHI@ZA DD 01H DUP (?)		; pglCopyPixels
?pglCompressedTexImage1DARB@@3P6GXIHIHHHPBX@ZA DD 01H DUP (?) ; pglCompressedTexImage1DARB
?pglCopyTexImage1D@@3P6GXIHIHHHH@ZA DD 01H DUP (?)	; pglCopyTexImage1D
?pglCompressedTexSubImage3DARB@@3P6GXIHHHHHHHIHPBX@ZA DD 01H DUP (?) ; pglCompressedTexSubImage3DARB
?pglCopyTexImage2D@@3P6GXIHIHHHHH@ZA DD 01H DUP (?)	; pglCopyTexImage2D
?pglCompressedTexSubImage2DARB@@3P6GXIHHHHHIHPBX@ZA DD 01H DUP (?) ; pglCompressedTexSubImage2DARB
?pglCopyTexSubImage1D@@3P6GXIHHHHH@ZA DD 01H DUP (?)	; pglCopyTexSubImage1D
?pglCompressedTexSubImage1DARB@@3P6GXIHHHIHPBX@ZA DD 01H DUP (?) ; pglCompressedTexSubImage1DARB
?pglCopyTexSubImage2D@@3P6GXIHHHHHHH@ZA DD 01H DUP (?)	; pglCopyTexSubImage2D
?pglDeleteObjectARB@@3P6GXI@ZA DD 01H DUP (?)		; pglDeleteObjectARB
?pglCullFace@@3P6GXI@ZA DD 01H DUP (?)			; pglCullFace
?pglGetHandleARB@@3P6GII@ZA DD 01H DUP (?)		; pglGetHandleARB
?pglDeleteLists@@3P6GXIH@ZA DD 01H DUP (?)		; pglDeleteLists
?pglDetachObjectARB@@3P6GXII@ZA DD 01H DUP (?)		; pglDetachObjectARB
?pglDeleteTextures@@3P6GXHPBI@ZA DD 01H DUP (?)		; pglDeleteTextures
?pglCreateShaderObjectARB@@3P6GII@ZA DD 01H DUP (?)	; pglCreateShaderObjectARB
?pglDepthFunc@@3P6GXI@ZA DD 01H DUP (?)			; pglDepthFunc
?pglDepthMask@@3P6GXE@ZA DD 01H DUP (?)			; pglDepthMask
?pglShaderSourceARB@@3P6GXIHPAPBDPBH@ZA DD 01H DUP (?)	; pglShaderSourceARB
?pglCompileShaderARB@@3P6GXI@ZA DD 01H DUP (?)		; pglCompileShaderARB
?pglDepthRange@@3P6GXNN@ZA DD 01H DUP (?)		; pglDepthRange
?pglDisable@@3P6GXI@ZA DD 01H DUP (?)			; pglDisable
?pglCreateProgramObjectARB@@3P6GIXZA DD 01H DUP (?)	; pglCreateProgramObjectARB
?pglDisableClientState@@3P6GXI@ZA DD 01H DUP (?)	; pglDisableClientState
?pglAttachObjectARB@@3P6GXII@ZA DD 01H DUP (?)		; pglAttachObjectARB
?pglLinkProgramARB@@3P6GXI@ZA DD 01H DUP (?)		; pglLinkProgramARB
?pglDrawArrays@@3P6GXIHH@ZA DD 01H DUP (?)		; pglDrawArrays
?pglUseProgramObjectARB@@3P6GXI@ZA DD 01H DUP (?)	; pglUseProgramObjectARB
?pglDrawBuffer@@3P6GXI@ZA DD 01H DUP (?)		; pglDrawBuffer
?pglValidateProgramARB@@3P6GXI@ZA DD 01H DUP (?)	; pglValidateProgramARB
?pglBindProgramARB@@3P6GXII@ZA DD 01H DUP (?)		; pglBindProgramARB
?pglDrawPixels@@3P6GXHHIIPBX@ZA DD 01H DUP (?)		; pglDrawPixels
?pglDeleteProgramsARB@@3P6GXHPBI@ZA DD 01H DUP (?)	; pglDeleteProgramsARB
?pglEdgeFlag@@3P6GXE@ZA DD 01H DUP (?)			; pglEdgeFlag
?pglGenProgramsARB@@3P6GXHPAI@ZA DD 01H DUP (?)		; pglGenProgramsARB
?pglEdgeFlagPointer@@3P6GXHPBX@ZA DD 01H DUP (?)	; pglEdgeFlagPointer
?pglEdgeFlagv@@3P6GXPBE@ZA DD 01H DUP (?)		; pglEdgeFlagv
?pglProgramStringARB@@3P6GXIIHPBX@ZA DD 01H DUP (?)	; pglProgramStringARB
?pglEnable@@3P6GXI@ZA DD 01H DUP (?)			; pglEnable
?pglEnableClientState@@3P6GXI@ZA DD 01H DUP (?)		; pglEnableClientState
?pglEnd@@3P6GXXZA DD 01H DUP (?)			; pglEnd
?pglEndList@@3P6GXXZA DD 01H DUP (?)			; pglEndList
?pglProgramEnvParameter4fARB@@3P6GXIIMMMM@ZA DD 01H DUP (?) ; pglProgramEnvParameter4fARB
?pglEvalCoord1d@@3P6GXN@ZA DD 01H DUP (?)		; pglEvalCoord1d
?pglEvalCoord1dv@@3P6GXPBN@ZA DD 01H DUP (?)		; pglEvalCoord1dv
?pglEvalCoord1f@@3P6GXM@ZA DD 01H DUP (?)		; pglEvalCoord1f
?pglEvalCoord1fv@@3P6GXPBM@ZA DD 01H DUP (?)		; pglEvalCoord1fv
?pglProgramLocalParameter4fARB@@3P6GXIIMMMM@ZA DD 01H DUP (?) ; pglProgramLocalParameter4fARB
?pglEvalCoord2d@@3P6GXNN@ZA DD 01H DUP (?)		; pglEvalCoord2d
?pglGetProgramivARB@@3P6GXIIPAH@ZA DD 01H DUP (?)	; pglGetProgramivARB
?pglEvalCoord2dv@@3P6GXPBN@ZA DD 01H DUP (?)		; pglEvalCoord2dv
?pglUniform1fARB@@3P6GXHM@ZA DD 01H DUP (?)		; pglUniform1fARB
?pglEvalCoord2f@@3P6GXMM@ZA DD 01H DUP (?)		; pglEvalCoord2f
?pglEvalCoord2fv@@3P6GXPBM@ZA DD 01H DUP (?)		; pglEvalCoord2fv
?pglUniform2fARB@@3P6GXHMM@ZA DD 01H DUP (?)		; pglUniform2fARB
?pglEvalMesh1@@3P6GXIHH@ZA DD 01H DUP (?)		; pglEvalMesh1
?pglUniform3fARB@@3P6GXHMMM@ZA DD 01H DUP (?)		; pglUniform3fARB
?pglEvalMesh2@@3P6GXIHHHH@ZA DD 01H DUP (?)		; pglEvalMesh2
?pglEvalPoint1@@3P6GXH@ZA DD 01H DUP (?)		; pglEvalPoint1
?pglUniform4fARB@@3P6GXHMMMM@ZA DD 01H DUP (?)		; pglUniform4fARB
?pglEvalPoint2@@3P6GXHH@ZA DD 01H DUP (?)		; pglEvalPoint2
?pglUniform1iARB@@3P6GXHH@ZA DD 01H DUP (?)		; pglUniform1iARB
?pglFeedbackBuffer@@3P6GXHIPAM@ZA DD 01H DUP (?)	; pglFeedbackBuffer
?pglUniform2iARB@@3P6GXHHH@ZA DD 01H DUP (?)		; pglUniform2iARB
?pglFinish@@3P6GXXZA DD 01H DUP (?)			; pglFinish
?pglFlush@@3P6GXXZA DD 01H DUP (?)			; pglFlush
?pglUniform3iARB@@3P6GXHHHH@ZA DD 01H DUP (?)		; pglUniform3iARB
?pglFogf@@3P6GXIM@ZA DD 01H DUP (?)			; pglFogf
?pglFogfv@@3P6GXIPBM@ZA DD 01H DUP (?)			; pglFogfv
?pglUniform4iARB@@3P6GXHHHHH@ZA DD 01H DUP (?)		; pglUniform4iARB
?pglFogi@@3P6GXIH@ZA DD 01H DUP (?)			; pglFogi
?pglUniform1fvARB@@3P6GXHHPBM@ZA DD 01H DUP (?)		; pglUniform1fvARB
?pglFogiv@@3P6GXIPBH@ZA DD 01H DUP (?)			; pglFogiv
?pglFrontFace@@3P6GXI@ZA DD 01H DUP (?)			; pglFrontFace
?pglUniform2fvARB@@3P6GXHHPBM@ZA DD 01H DUP (?)		; pglUniform2fvARB
?pglUniform3fvARB@@3P6GXHHPBM@ZA DD 01H DUP (?)		; pglUniform3fvARB
?pglFrustum@@3P6GXNNNNNN@ZA DD 01H DUP (?)		; pglFrustum
?pglUniform4fvARB@@3P6GXHHPBM@ZA DD 01H DUP (?)		; pglUniform4fvARB
?pglGenTextures@@3P6GXHPAI@ZA DD 01H DUP (?)		; pglGenTextures
?pglGetBooleanv@@3P6GXIPAE@ZA DD 01H DUP (?)		; pglGetBooleanv
?pglUniform1ivARB@@3P6GXHHPBH@ZA DD 01H DUP (?)		; pglUniform1ivARB
?pglGetClipPlane@@3P6GXIPAN@ZA DD 01H DUP (?)		; pglGetClipPlane
?pglUniform2ivARB@@3P6GXHHPBH@ZA DD 01H DUP (?)		; pglUniform2ivARB
?pglGetDoublev@@3P6GXIPAN@ZA DD 01H DUP (?)		; pglGetDoublev
?pglUniform3ivARB@@3P6GXHHPBH@ZA DD 01H DUP (?)		; pglUniform3ivARB
?pglGetFloatv@@3P6GXIPAM@ZA DD 01H DUP (?)		; pglGetFloatv
?pglUniform4ivARB@@3P6GXHHPBH@ZA DD 01H DUP (?)		; pglUniform4ivARB
?pglGetIntegerv@@3P6GXIPAH@ZA DD 01H DUP (?)		; pglGetIntegerv
?pglGetLightfv@@3P6GXIIPAM@ZA DD 01H DUP (?)		; pglGetLightfv
?pglUniformMatrix2fvARB@@3P6GXHHEPBM@ZA DD 01H DUP (?)	; pglUniformMatrix2fvARB
?pglGetLightiv@@3P6GXIIPAH@ZA DD 01H DUP (?)		; pglGetLightiv
?pglUniformMatrix3fvARB@@3P6GXHHEPBM@ZA DD 01H DUP (?)	; pglUniformMatrix3fvARB
?pglGetMapdv@@3P6GXIIPAN@ZA DD 01H DUP (?)		; pglGetMapdv
?pglUniformMatrix4fvARB@@3P6GXHHEPBM@ZA DD 01H DUP (?)	; pglUniformMatrix4fvARB
?pglGetMapfv@@3P6GXIIPAM@ZA DD 01H DUP (?)		; pglGetMapfv
?pglGetObjectParameterfvARB@@3P6GXIIPAM@ZA DD 01H DUP (?) ; pglGetObjectParameterfvARB
?pglGetMapiv@@3P6GXIIPAH@ZA DD 01H DUP (?)		; pglGetMapiv
?pglGetObjectParameterivARB@@3P6GXIIPAH@ZA DD 01H DUP (?) ; pglGetObjectParameterivARB
?pglGetMaterialfv@@3P6GXIIPAM@ZA DD 01H DUP (?)		; pglGetMaterialfv
?pglGetInfoLogARB@@3P6GXIHPAHPAD@ZA DD 01H DUP (?)	; pglGetInfoLogARB
?pglGetMaterialiv@@3P6GXIIPAH@ZA DD 01H DUP (?)		; pglGetMaterialiv
?pglGetPixelMapfv@@3P6GXIPAM@ZA DD 01H DUP (?)		; pglGetPixelMapfv
?pglGetAttachedObjectsARB@@3P6GXIHPAHPAI@ZA DD 01H DUP (?) ; pglGetAttachedObjectsARB
?pglGetPixelMapuiv@@3P6GXIPAI@ZA DD 01H DUP (?)		; pglGetPixelMapuiv
?pglGetUniformLocationARB@@3P6GHIPBD@ZA DD 01H DUP (?)	; pglGetUniformLocationARB
?pglGetPixelMapusv@@3P6GXIPAG@ZA DD 01H DUP (?)		; pglGetPixelMapusv
?pglGetPointerv@@3P6GXIPAPAX@ZA DD 01H DUP (?)		; pglGetPointerv
?pglGetPolygonStipple@@3P6GXPAE@ZA DD 01H DUP (?)	; pglGetPolygonStipple
?pglGetActiveUniformARB@@3P6GXIIHPAH0PAIPAD@ZA DD 01H DUP (?) ; pglGetActiveUniformARB
?pglGetTexEnvfv@@3P6GXIIPAM@ZA DD 01H DUP (?)		; pglGetTexEnvfv
?pglGetUniformfvARB@@3P6GXIHPAM@ZA DD 01H DUP (?)	; pglGetUniformfvARB
?pglGetTexEnviv@@3P6GXIIPAH@ZA DD 01H DUP (?)		; pglGetTexEnviv
?pglGetUniformivARB@@3P6GXIHPAH@ZA DD 01H DUP (?)	; pglGetUniformivARB
?pglGetTexGendv@@3P6GXIIPAN@ZA DD 01H DUP (?)		; pglGetTexGendv
?pglGetShaderSourceARB@@3P6GXIHPAHPAD@ZA DD 01H DUP (?)	; pglGetShaderSourceARB
?pglGetTexGenfv@@3P6GXIIPAM@ZA DD 01H DUP (?)		; pglGetTexGenfv
?pglGetTexGeniv@@3P6GXIIPAH@ZA DD 01H DUP (?)		; pglGetTexGeniv
?pglGetTexImage@@3P6GXIHIIPAX@ZA DD 01H DUP (?)		; pglGetTexImage
?pglTexImage3D@@3P6GXIHIHHHHIIPBX@ZA DD 01H DUP (?)	; pglTexImage3D
?pglGetTexLevelParameterfv@@3P6GXIHIPAM@ZA DD 01H DUP (?) ; pglGetTexLevelParameterfv
?pglGetTexLevelParameteriv@@3P6GXIHIPAH@ZA DD 01H DUP (?) ; pglGetTexLevelParameteriv
?pglTexSubImage3D@@3P6GXIHHHHHHHIIPBX@ZA DD 01H DUP (?)	; pglTexSubImage3D
?pglGetTexParameterfv@@3P6GXIIPAM@ZA DD 01H DUP (?)	; pglGetTexParameterfv
?pglGetTexParameteriv@@3P6GXIIPAH@ZA DD 01H DUP (?)	; pglGetTexParameteriv
?pglHint@@3P6GXII@ZA DD 01H DUP (?)			; pglHint
?pglCopyTexSubImage3D@@3P6GXIHHHHHHHH@ZA DD 01H DUP (?)	; pglCopyTexSubImage3D
?pglIndexMask@@3P6GXI@ZA DD 01H DUP (?)			; pglIndexMask
?pglBlendEquationEXT@@3P6GXI@ZA DD 01H DUP (?)		; pglBlendEquationEXT
?pglIndexPointer@@3P6GXIHPBX@ZA DD 01H DUP (?)		; pglIndexPointer
?pglStencilOpSeparate@@3P6GXIIII@ZA DD 01H DUP (?)	; pglStencilOpSeparate
?pglIndexd@@3P6GXN@ZA DD 01H DUP (?)			; pglIndexd
?pglIndexdv@@3P6GXPBN@ZA DD 01H DUP (?)			; pglIndexdv
?pglIndexf@@3P6GXM@ZA DD 01H DUP (?)			; pglIndexf
?pglStencilFuncSeparate@@3P6GXIIHI@ZA DD 01H DUP (?)	; pglStencilFuncSeparate
?pglIndexfv@@3P6GXPBM@ZA DD 01H DUP (?)			; pglIndexfv
?pglActiveStencilFaceEXT@@3P6GXI@ZA DD 01H DUP (?)	; pglActiveStencilFaceEXT
?pglIndexi@@3P6GXH@ZA DD 01H DUP (?)			; pglIndexi
?pglIndexiv@@3P6GXPBH@ZA DD 01H DUP (?)			; pglIndexiv
?pglBlendFuncSeparate@@3P6GXIIII@ZA DD 01H DUP (?)	; pglBlendFuncSeparate
?pglIndexs@@3P6GXF@ZA DD 01H DUP (?)			; pglIndexs
?pglIndexsv@@3P6GXPBF@ZA DD 01H DUP (?)			; pglIndexsv
?pglIndexub@@3P6GXE@ZA DD 01H DUP (?)			; pglIndexub
?pglIndexubv@@3P6GXPBE@ZA DD 01H DUP (?)		; pglIndexubv
?pglVertexAttribPointerARB@@3P6GXIHIEHPBX@ZA DD 01H DUP (?) ; pglVertexAttribPointerARB
?pglInitNames@@3P6GXXZA DD 01H DUP (?)			; pglInitNames
?pglEnableVertexAttribArrayARB@@3P6GXI@ZA DD 01H DUP (?) ; pglEnableVertexAttribArrayARB
?pglDisableVertexAttribArrayARB@@3P6GXI@ZA DD 01H DUP (?) ; pglDisableVertexAttribArrayARB
?pglInterleavedArrays@@3P6GXIHPBX@ZA DD 01H DUP (?)	; pglInterleavedArrays
?pglLightModelf@@3P6GXIM@ZA DD 01H DUP (?)		; pglLightModelf
?pglBindAttribLocationARB@@3P6GXIIPBD@ZA DD 01H DUP (?)	; pglBindAttribLocationARB
?pglLightModelfv@@3P6GXIPBM@ZA DD 01H DUP (?)		; pglLightModelfv
?pglLightModeli@@3P6GXIH@ZA DD 01H DUP (?)		; pglLightModeli
?pglGetActiveAttribARB@@3P6GXIIHPAH0PAIPAD@ZA DD 01H DUP (?) ; pglGetActiveAttribARB
?pglLightModeliv@@3P6GXIPBH@ZA DD 01H DUP (?)		; pglLightModeliv
?pglGetAttribLocationARB@@3P6GHIPBD@ZA DD 01H DUP (?)	; pglGetAttribLocationARB
?pglLightf@@3P6GXIIM@ZA DD 01H DUP (?)			; pglLightf
?pglBindFragDataLocation@@3P6GXIIPBD@ZA DD 01H DUP (?)	; pglBindFragDataLocation
?pglLightfv@@3P6GXIIPBM@ZA DD 01H DUP (?)		; pglLightfv
?pglVertexAttrib2fARB@@3P6GXIMM@ZA DD 01H DUP (?)	; pglVertexAttrib2fARB
?pglLighti@@3P6GXIIH@ZA DD 01H DUP (?)			; pglLighti
?pglVertexAttrib2fvARB@@3P6GXIPBM@ZA DD 01H DUP (?)	; pglVertexAttrib2fvARB
?pglLightiv@@3P6GXIIPBH@ZA DD 01H DUP (?)		; pglLightiv
?pglVertexAttrib3fvARB@@3P6GXIPBM@ZA DD 01H DUP (?)	; pglVertexAttrib3fvARB
?pglLineStipple@@3P6GXHG@ZA DD 01H DUP (?)		; pglLineStipple
?pglLineWidth@@3P6GXM@ZA DD 01H DUP (?)			; pglLineWidth
?pglVertexAttrib4fARB@@3P6GXIMMMM@ZA DD 01H DUP (?)	; pglVertexAttrib4fARB
?pglListBase@@3P6GXI@ZA DD 01H DUP (?)			; pglListBase
?pglVertexAttrib4fvARB@@3P6GXIPBM@ZA DD 01H DUP (?)	; pglVertexAttrib4fvARB
?pglLoadIdentity@@3P6GXXZA DD 01H DUP (?)		; pglLoadIdentity
?pglLoadMatrixd@@3P6GXPBN@ZA DD 01H DUP (?)		; pglLoadMatrixd
?pglVertexAttrib4ubvARB@@3P6GXIPBE@ZA DD 01H DUP (?)	; pglVertexAttrib4ubvARB
?pglLoadMatrixf@@3P6GXPBM@ZA DD 01H DUP (?)		; pglLoadMatrixf
?pglLoadName@@3P6GXI@ZA DD 01H DUP (?)			; pglLoadName
?pglBindBufferARB@@3P6GXII@ZA DD 01H DUP (?)		; pglBindBufferARB
?pglLogicOp@@3P6GXI@ZA DD 01H DUP (?)			; pglLogicOp
?pglDeleteBuffersARB@@3P6GXHPBI@ZA DD 01H DUP (?)	; pglDeleteBuffersARB
?pglGenBuffersARB@@3P6GXHPAI@ZA DD 01H DUP (?)		; pglGenBuffersARB
?pglIsBufferARB@@3P6GEI@ZA DD 01H DUP (?)		; pglIsBufferARB
?pglMap1d@@3P6GXINNHHPBN@ZA DD 01H DUP (?)		; pglMap1d
?pglMapBufferARB@@3P6GPAXII@ZA DD 01H DUP (?)		; pglMapBufferARB
?pglUnmapBufferARB@@3P6GEI@ZA DD 01H DUP (?)		; pglUnmapBufferARB
?pglMap1f@@3P6GXIMMHHPBM@ZA DD 01H DUP (?)		; pglMap1f
?pglBufferDataARB@@3P6GXIHPBXI@ZA DD 01H DUP (?)	; pglBufferDataARB
?pglBufferSubDataARB@@3P6GXIHHPBX@ZA DD 01H DUP (?)	; pglBufferSubDataARB
?pglGenQueriesARB@@3P6GXHPAI@ZA DD 01H DUP (?)		; pglGenQueriesARB
?pglMap2d@@3P6GXINNHHNNHHPBN@ZA DD 01H DUP (?)		; pglMap2d
?pglDeleteQueriesARB@@3P6GXHPBI@ZA DD 01H DUP (?)	; pglDeleteQueriesARB
?pglIsQueryARB@@3P6GEI@ZA DD 01H DUP (?)		; pglIsQueryARB
?pglBeginQueryARB@@3P6GXII@ZA DD 01H DUP (?)		; pglBeginQueryARB
?pglEndQueryARB@@3P6GXI@ZA DD 01H DUP (?)		; pglEndQueryARB
?pglMap2f@@3P6GXIMMHHMMHHPBM@ZA DD 01H DUP (?)		; pglMap2f
?pglGetQueryivARB@@3P6GXIIPAH@ZA DD 01H DUP (?)		; pglGetQueryivARB
?pglMapGrid1d@@3P6GXHNN@ZA DD 01H DUP (?)		; pglMapGrid1d
?pglGetQueryObjectivARB@@3P6GXIIPAH@ZA DD 01H DUP (?)	; pglGetQueryObjectivARB
?pglMapGrid1f@@3P6GXHMM@ZA DD 01H DUP (?)		; pglMapGrid1f
?pglGetQueryObjectuivARB@@3P6GXIIPAI@ZA DD 01H DUP (?)	; pglGetQueryObjectuivARB
?pglSelectTextureSGIS@@3P6GXI@ZA DD 01H DUP (?)		; pglSelectTextureSGIS
?pglMapGrid2d@@3P6GXHNNHNN@ZA DD 01H DUP (?)		; pglMapGrid2d
?pglMTexCoord2fSGIS@@3P6GXIMM@ZA DD 01H DUP (?)		; pglMTexCoord2fSGIS
?pglSwapInterval@@3P6GXH@ZA DD 01H DUP (?)		; pglSwapInterval
?pglIsRenderbuffer@@3P6GEI@ZA DD 01H DUP (?)		; pglIsRenderbuffer
?pglMapGrid2f@@3P6GXHMMHMM@ZA DD 01H DUP (?)		; pglMapGrid2f
?pglBindRenderbuffer@@3P6GXII@ZA DD 01H DUP (?)		; pglBindRenderbuffer
?pglDeleteRenderbuffers@@3P6GXHPBI@ZA DD 01H DUP (?)	; pglDeleteRenderbuffers
?pglMaterialf@@3P6GXIIM@ZA DD 01H DUP (?)		; pglMaterialf
?pglGenRenderbuffers@@3P6GXHPAI@ZA DD 01H DUP (?)	; pglGenRenderbuffers
?pglMaterialfv@@3P6GXIIPBM@ZA DD 01H DUP (?)		; pglMaterialfv
?pglRenderbufferStorage@@3P6GXIIHH@ZA DD 01H DUP (?)	; pglRenderbufferStorage
?pglMateriali@@3P6GXIIH@ZA DD 01H DUP (?)		; pglMateriali
?pglMaterialiv@@3P6GXIIPBH@ZA DD 01H DUP (?)		; pglMaterialiv
?pglMatrixMode@@3P6GXI@ZA DD 01H DUP (?)		; pglMatrixMode
?pglRenderbufferStorageMultisample@@3P6GXIHIHH@ZA DD 01H DUP (?) ; pglRenderbufferStorageMultisample
?pglMultMatrixd@@3P6GXPBN@ZA DD 01H DUP (?)		; pglMultMatrixd
?pglGetRenderbufferParameteriv@@3P6GXIIPAH@ZA DD 01H DUP (?) ; pglGetRenderbufferParameteriv
?pglMultMatrixf@@3P6GXPBM@ZA DD 01H DUP (?)		; pglMultMatrixf
?pglIsFramebuffer@@3P6GEI@ZA DD 01H DUP (?)		; pglIsFramebuffer
?pglNewList@@3P6GXII@ZA DD 01H DUP (?)			; pglNewList
?pglBindFramebuffer@@3P6GXII@ZA DD 01H DUP (?)		; pglBindFramebuffer
?pglNormal3b@@3P6GXCCC@ZA DD 01H DUP (?)		; pglNormal3b
?pglDeleteFramebuffers@@3P6GXHPBI@ZA DD 01H DUP (?)	; pglDeleteFramebuffers
?pglNormal3bv@@3P6GXPBC@ZA DD 01H DUP (?)		; pglNormal3bv
?pglGenFramebuffers@@3P6GXHPAI@ZA DD 01H DUP (?)	; pglGenFramebuffers
?pglCheckFramebufferStatus@@3P6GII@ZA DD 01H DUP (?)	; pglCheckFramebufferStatus
?pglNormal3d@@3P6GXNNN@ZA DD 01H DUP (?)		; pglNormal3d
?pglNormal3dv@@3P6GXPBN@ZA DD 01H DUP (?)		; pglNormal3dv
?pglFramebufferTexture1D@@3P6GXIIIIH@ZA DD 01H DUP (?)	; pglFramebufferTexture1D
?pglNormal3f@@3P6GXMMM@ZA DD 01H DUP (?)		; pglNormal3f
?pglNormal3fv@@3P6GXPBM@ZA DD 01H DUP (?)		; pglNormal3fv
?pglFramebufferTexture2D@@3P6GXIIIIH@ZA DD 01H DUP (?)	; pglFramebufferTexture2D
?pglNormal3i@@3P6GXHHH@ZA DD 01H DUP (?)		; pglNormal3i
?pglNormal3iv@@3P6GXPBH@ZA DD 01H DUP (?)		; pglNormal3iv
?pglNormal3s@@3P6GXFFF@ZA DD 01H DUP (?)		; pglNormal3s
?pglFramebufferTexture3D@@3P6GXIIIIHH@ZA DD 01H DUP (?)	; pglFramebufferTexture3D
?pglNormal3sv@@3P6GXPBF@ZA DD 01H DUP (?)		; pglNormal3sv
?pglFramebufferTextureLayer@@3P6GXIIIHH@ZA DD 01H DUP (?) ; pglFramebufferTextureLayer
?pglOrtho@@3P6GXNNNNNN@ZA DD 01H DUP (?)		; pglOrtho
?pglPassThrough@@3P6GXM@ZA DD 01H DUP (?)		; pglPassThrough
?pglFramebufferRenderbuffer@@3P6GXIIII@ZA DD 01H DUP (?) ; pglFramebufferRenderbuffer
?pglPixelMapfv@@3P6GXIHPBM@ZA DD 01H DUP (?)		; pglPixelMapfv
?pglGetFramebufferAttachmentParameteriv@@3P6GXIIIPAH@ZA DD 01H DUP (?) ; pglGetFramebufferAttachmentParameteriv
?pglPixelMapuiv@@3P6GXIHPBI@ZA DD 01H DUP (?)		; pglPixelMapuiv
?pglPixelMapusv@@3P6GXIHPBG@ZA DD 01H DUP (?)		; pglPixelMapusv
?pglPixelStoref@@3P6GXIM@ZA DD 01H DUP (?)		; pglPixelStoref
?pglBlitFramebuffer@@3P6GXHHHHHHHHII@ZA DD 01H DUP (?)	; pglBlitFramebuffer
?pglPixelStorei@@3P6GXIH@ZA DD 01H DUP (?)		; pglPixelStorei
?pglPixelTransferf@@3P6GXIM@ZA DD 01H DUP (?)		; pglPixelTransferf
?pglPixelTransferi@@3P6GXIH@ZA DD 01H DUP (?)		; pglPixelTransferi
?pglPixelZoom@@3P6GXMM@ZA DD 01H DUP (?)		; pglPixelZoom
?pglPointSize@@3P6GXM@ZA DD 01H DUP (?)			; pglPointSize
?pglPolygonMode@@3P6GXII@ZA DD 01H DUP (?)		; pglPolygonMode
?pglCopyImageSubData@@3P6GXIIHHHHIIHHHHHHH@ZA DD 01H DUP (?) ; pglCopyImageSubData
?pglPolygonOffset@@3P6GXMM@ZA DD 01H DUP (?)		; pglPolygonOffset
?pglGenerateMipmap@@3P6GXI@ZA DD 01H DUP (?)		; pglGenerateMipmap
?pglPolygonStipple@@3P6GXPBE@ZA DD 01H DUP (?)		; pglPolygonStipple
?pwglGetProcAddress@@3P6GP6GHXZPBD@ZA DD 01H DUP (?)	; pwglGetProcAddress
?pglPopAttrib@@3P6GXXZA DD 01H DUP (?)			; pglPopAttrib
?pglBindVertexArray@@3P6GXI@ZA DD 01H DUP (?)		; pglBindVertexArray
?pglPopClientAttrib@@3P6GXXZA DD 01H DUP (?)		; pglPopClientAttrib
?pglDeleteVertexArrays@@3P6GXHPBI@ZA DD 01H DUP (?)	; pglDeleteVertexArrays
?pglPopMatrix@@3P6GXXZA DD 01H DUP (?)			; pglPopMatrix
?pglGenVertexArrays@@3P6GXHPBI@ZA DD 01H DUP (?)	; pglGenVertexArrays
?pglPopName@@3P6GXXZA DD 01H DUP (?)			; pglPopName
?pglIsVertexArray@@3P6GEI@ZA DD 01H DUP (?)		; pglIsVertexArray
?pglPushAttrib@@3P6GXI@ZA DD 01H DUP (?)		; pglPushAttrib
?pglPushClientAttrib@@3P6GXI@ZA DD 01H DUP (?)		; pglPushClientAttrib
?pglPushMatrix@@3P6GXXZA DD 01H DUP (?)			; pglPushMatrix
?pglPushName@@3P6GXI@ZA DD 01H DUP (?)			; pglPushName
?pglRasterPos2d@@3P6GXNN@ZA DD 01H DUP (?)		; pglRasterPos2d
?pglRasterPos2dv@@3P6GXPBN@ZA DD 01H DUP (?)		; pglRasterPos2dv
?pglRasterPos2f@@3P6GXMM@ZA DD 01H DUP (?)		; pglRasterPos2f
?pglDebugMessageControlARB@@3P6GXIIIHPBIE@ZA DD 01H DUP (?) ; pglDebugMessageControlARB
?pglRasterPos2fv@@3P6GXPBM@ZA DD 01H DUP (?)		; pglRasterPos2fv
?pglRasterPos2i@@3P6GXHH@ZA DD 01H DUP (?)		; pglRasterPos2i
?pglRasterPos2iv@@3P6GXPBH@ZA DD 01H DUP (?)		; pglRasterPos2iv
?pglDebugMessageInsertARB@@3P6GXIIIIHPBD@ZA DD 01H DUP (?) ; pglDebugMessageInsertARB
?pglRasterPos2s@@3P6GXFF@ZA DD 01H DUP (?)		; pglRasterPos2s
?pglDebugMessageCallbackARB@@3P6GXP6GXIIIIHPBDPAX@Z1@ZA DD 01H DUP (?) ; pglDebugMessageCallbackARB
?pglRasterPos2sv@@3P6GXPBF@ZA DD 01H DUP (?)		; pglRasterPos2sv
?pglRasterPos3d@@3P6GXNNN@ZA DD 01H DUP (?)		; pglRasterPos3d
?pglRasterPos3dv@@3P6GXPBN@ZA DD 01H DUP (?)		; pglRasterPos3dv
?pglGetDebugMessageLogARB@@3P6GIIHPAI000PAHPAD@ZA DD 01H DUP (?) ; pglGetDebugMessageLogARB
?pglRasterPos3f@@3P6GXMMM@ZA DD 01H DUP (?)		; pglRasterPos3f
?pglRasterPos3fv@@3P6GXPBM@ZA DD 01H DUP (?)		; pglRasterPos3fv
?pglRasterPos3i@@3P6GXHHH@ZA DD 01H DUP (?)		; pglRasterPos3i
?pglRasterPos3iv@@3P6GXPBH@ZA DD 01H DUP (?)		; pglRasterPos3iv
?pglRasterPos3s@@3P6GXFFF@ZA DD 01H DUP (?)		; pglRasterPos3s
?pglRasterPos3sv@@3P6GXPBF@ZA DD 01H DUP (?)		; pglRasterPos3sv
?pglRasterPos4d@@3P6GXNNNN@ZA DD 01H DUP (?)		; pglRasterPos4d
?pglRasterPos4dv@@3P6GXPBN@ZA DD 01H DUP (?)		; pglRasterPos4dv
?pglRasterPos4f@@3P6GXMMMM@ZA DD 01H DUP (?)		; pglRasterPos4f
?pglRasterPos4fv@@3P6GXPBM@ZA DD 01H DUP (?)		; pglRasterPos4fv
?pglRasterPos4i@@3P6GXHHHH@ZA DD 01H DUP (?)		; pglRasterPos4i
?pglRasterPos4iv@@3P6GXPBH@ZA DD 01H DUP (?)		; pglRasterPos4iv
?pglRasterPos4s@@3P6GXFFFF@ZA DD 01H DUP (?)		; pglRasterPos4s
?pglRasterPos4sv@@3P6GXPBF@ZA DD 01H DUP (?)		; pglRasterPos4sv
?pglReadBuffer@@3P6GXI@ZA DD 01H DUP (?)		; pglReadBuffer
?pglReadPixels@@3P6GXHHHHIIPAX@ZA DD 01H DUP (?)	; pglReadPixels
?pglRectd@@3P6GXNNNN@ZA DD 01H DUP (?)			; pglRectd
?pglRectdv@@3P6GXPBN0@ZA DD 01H DUP (?)			; pglRectdv
?pglRectf@@3P6GXMMMM@ZA DD 01H DUP (?)			; pglRectf
?pglRectfv@@3P6GXPBM0@ZA DD 01H DUP (?)			; pglRectfv
?pglRecti@@3P6GXHHHH@ZA DD 01H DUP (?)			; pglRecti
?pglRectiv@@3P6GXPBH0@ZA DD 01H DUP (?)			; pglRectiv
?pglRects@@3P6GXFFFF@ZA DD 01H DUP (?)			; pglRects
?pglRectsv@@3P6GXPBF0@ZA DD 01H DUP (?)			; pglRectsv
?pglRotated@@3P6GXNNNN@ZA DD 01H DUP (?)		; pglRotated
?pglRotatef@@3P6GXMMMM@ZA DD 01H DUP (?)		; pglRotatef
?pglScaled@@3P6GXNNN@ZA DD 01H DUP (?)			; pglScaled
?pglScalef@@3P6GXMMM@ZA DD 01H DUP (?)			; pglScalef
?pglScissor@@3P6GXHHHH@ZA DD 01H DUP (?)		; pglScissor
?pglSelectBuffer@@3P6GXHPAI@ZA DD 01H DUP (?)		; pglSelectBuffer
?pglShadeModel@@3P6GXI@ZA DD 01H DUP (?)		; pglShadeModel
?pglStencilFunc@@3P6GXIHI@ZA DD 01H DUP (?)		; pglStencilFunc
?pglStencilMask@@3P6GXI@ZA DD 01H DUP (?)		; pglStencilMask
?pglStencilOp@@3P6GXIII@ZA DD 01H DUP (?)		; pglStencilOp
?pglTexCoord1d@@3P6GXN@ZA DD 01H DUP (?)		; pglTexCoord1d
?pglTexCoord1dv@@3P6GXPBN@ZA DD 01H DUP (?)		; pglTexCoord1dv
?pglTexCoord1f@@3P6GXM@ZA DD 01H DUP (?)		; pglTexCoord1f
?pglTexCoord1fv@@3P6GXPBM@ZA DD 01H DUP (?)		; pglTexCoord1fv
?pglTexCoord1i@@3P6GXH@ZA DD 01H DUP (?)		; pglTexCoord1i
?pglTexCoord1iv@@3P6GXPBH@ZA DD 01H DUP (?)		; pglTexCoord1iv
?pglTexCoord1s@@3P6GXF@ZA DD 01H DUP (?)		; pglTexCoord1s
?pglTexCoord1sv@@3P6GXPBF@ZA DD 01H DUP (?)		; pglTexCoord1sv
?pglTexCoord2d@@3P6GXNN@ZA DD 01H DUP (?)		; pglTexCoord2d
?pglTexCoord2dv@@3P6GXPBN@ZA DD 01H DUP (?)		; pglTexCoord2dv
?pglTexCoord2f@@3P6GXMM@ZA DD 01H DUP (?)		; pglTexCoord2f
?pglTexCoord2fv@@3P6GXPBM@ZA DD 01H DUP (?)		; pglTexCoord2fv
?pglTexCoord2i@@3P6GXHH@ZA DD 01H DUP (?)		; pglTexCoord2i
?pglTexCoord2iv@@3P6GXPBH@ZA DD 01H DUP (?)		; pglTexCoord2iv
?pglTexCoord2s@@3P6GXFF@ZA DD 01H DUP (?)		; pglTexCoord2s
?pglTexCoord2sv@@3P6GXPBF@ZA DD 01H DUP (?)		; pglTexCoord2sv
?pglTexCoord3d@@3P6GXNNN@ZA DD 01H DUP (?)		; pglTexCoord3d
?pglTexCoord3dv@@3P6GXPBN@ZA DD 01H DUP (?)		; pglTexCoord3dv
?pglTexCoord3f@@3P6GXMMM@ZA DD 01H DUP (?)		; pglTexCoord3f
?pglTexCoord3fv@@3P6GXPBM@ZA DD 01H DUP (?)		; pglTexCoord3fv
?pglTexCoord3i@@3P6GXHHH@ZA DD 01H DUP (?)		; pglTexCoord3i
?pglTexCoord3iv@@3P6GXPBH@ZA DD 01H DUP (?)		; pglTexCoord3iv
?pglTexCoord3s@@3P6GXFFF@ZA DD 01H DUP (?)		; pglTexCoord3s
?glState@@3UglState_t@@A DB 01b64cH DUP (?)		; glState
?glConfig@@3UglConfig_t@@A DB 054H DUP (?)		; glConfig
?pglTexCoord3sv@@3P6GXPBF@ZA DD 01H DUP (?)		; pglTexCoord3sv
?pglTexCoord4d@@3P6GXNNNN@ZA DD 01H DUP (?)		; pglTexCoord4d
?pglTexCoord4dv@@3P6GXPBN@ZA DD 01H DUP (?)		; pglTexCoord4dv
?pglTexCoord4f@@3P6GXMMMM@ZA DD 01H DUP (?)		; pglTexCoord4f
?pglTexCoord4fv@@3P6GXPBM@ZA DD 01H DUP (?)		; pglTexCoord4fv
?pglTexCoord4i@@3P6GXHHHH@ZA DD 01H DUP (?)		; pglTexCoord4i
?pglTexCoord4iv@@3P6GXPBH@ZA DD 01H DUP (?)		; pglTexCoord4iv
?pglTexCoord4s@@3P6GXFFFF@ZA DD 01H DUP (?)		; pglTexCoord4s
?pglTexCoord4sv@@3P6GXPBF@ZA DD 01H DUP (?)		; pglTexCoord4sv
?pglTexEnvf@@3P6GXIIM@ZA DD 01H DUP (?)			; pglTexEnvf
?pglTexEnvfv@@3P6GXIIPBM@ZA DD 01H DUP (?)		; pglTexEnvfv
?pglTexEnvi@@3P6GXIIH@ZA DD 01H DUP (?)			; pglTexEnvi
?pglTexEnviv@@3P6GXIIPBH@ZA DD 01H DUP (?)		; pglTexEnviv
?pglTexGend@@3P6GXIIN@ZA DD 01H DUP (?)			; pglTexGend
?pglTexGendv@@3P6GXIIPBN@ZA DD 01H DUP (?)		; pglTexGendv
?pglTexGenf@@3P6GXIIM@ZA DD 01H DUP (?)			; pglTexGenf
?pglTexGenfv@@3P6GXIIPBM@ZA DD 01H DUP (?)		; pglTexGenfv
?pglTexGeni@@3P6GXIIH@ZA DD 01H DUP (?)			; pglTexGeni
?pglTexGeniv@@3P6GXIIPBH@ZA DD 01H DUP (?)		; pglTexGeniv
?pglTexImage1D@@3P6GXIHHHHIIPBX@ZA DD 01H DUP (?)	; pglTexImage1D
_BSS	ENDS
CRT$XCU	SEGMENT
_$S15	DD	FLAT:_$E14
CRT$XCU	ENDS
_DATA	SEGMENT
_opengl_110funcs DD FLAT:??_C@_0N@IALK@glClearColor?$AA@
	DD	FLAT:?pglClearColor@@3P6GXMMMM@ZA
	DD	FLAT:??_C@_07IOIM@glClear?$AA@
	DD	FLAT:?pglClear@@3P6GXI@ZA
	DD	FLAT:??_C@_0M@JBDJ@glAlphaFunc?$AA@
	DD	FLAT:?pglAlphaFunc@@3P6GXIM@ZA
	DD	FLAT:??_C@_0M@PHAI@glBlendFunc?$AA@
	DD	FLAT:?pglBlendFunc@@3P6GXII@ZA
	DD	FLAT:??_C@_0L@LIEG@glCullFace?$AA@
	DD	FLAT:?pglCullFace@@3P6GXI@ZA
	DD	FLAT:??_C@_0N@DBGG@glDrawBuffer?$AA@
	DD	FLAT:?pglDrawBuffer@@3P6GXI@ZA
	DD	FLAT:??_C@_0N@BMFB@glReadBuffer?$AA@
	DD	FLAT:?pglReadBuffer@@3P6GXI@ZA
	DD	FLAT:??_C@_07GKLB@glAccum?$AA@
	DD	FLAT:?pglAccum@@3P6GXIM@ZA
	DD	FLAT:??_C@_08PHJO@glEnable?$AA@
	DD	FLAT:?pglEnable@@3P6GXI@ZA
	DD	FLAT:??_C@_09DADM@glDisable?$AA@
	DD	FLAT:?pglDisable@@3P6GXI@ZA
	DD	FLAT:??_C@_0BE@JJFB@glEnableClientState?$AA@
	DD	FLAT:?pglEnableClientState@@3P6GXI@ZA
	DD	FLAT:??_C@_0BF@HABO@glDisableClientState?$AA@
	DD	FLAT:?pglDisableClientState@@3P6GXI@ZA
	DD	FLAT:??_C@_0O@CEKP@glGetBooleanv?$AA@
	DD	FLAT:?pglGetBooleanv@@3P6GXIPAE@ZA
	DD	FLAT:??_C@_0N@LJNO@glGetDoublev?$AA@
	DD	FLAT:?pglGetDoublev@@3P6GXIPAN@ZA
	DD	FLAT:??_C@_0M@HNHJ@glGetFloatv?$AA@
	DD	FLAT:?pglGetFloatv@@3P6GXIPAM@ZA
	DD	FLAT:??_C@_0O@PMHI@glGetIntegerv?$AA@
	DD	FLAT:?pglGetIntegerv@@3P6GXIPAH@ZA
	DD	FLAT:??_C@_0L@INBB@glGetError?$AA@
	DD	FLAT:?pglGetError@@3P6GIXZA
	DD	FLAT:??_C@_0M@EJHF@glGetString?$AA@
	DD	FLAT:?pglGetString@@3P6GPBDI@ZA
	DD	FLAT:??_C@_08HFPP@glFinish?$AA@
	DD	FLAT:?pglFinish@@3P6GXXZA
	DD	FLAT:??_C@_07GAEM@glFlush?$AA@
	DD	FLAT:?pglFlush@@3P6GXXZA
	DD	FLAT:??_C@_0N@DFBF@glClearDepth?$AA@
	DD	FLAT:?pglClearDepth@@3P6GXN@ZA
	DD	FLAT:??_C@_0M@FDIH@glDepthFunc?$AA@
	DD	FLAT:?pglDepthFunc@@3P6GXI@ZA
	DD	FLAT:??_C@_0M@LIJE@glDepthMask?$AA@
	DD	FLAT:?pglDepthMask@@3P6GXE@ZA
	DD	FLAT:??_C@_0N@OLL@glDepthRange?$AA@
	DD	FLAT:?pglDepthRange@@3P6GXNN@ZA
	DD	FLAT:??_C@_0M@MJJH@glFrontFace?$AA@
	DD	FLAT:?pglFrontFace@@3P6GXI@ZA
	DD	FLAT:??_C@_0P@EAHC@glDrawElements?$AA@
	DD	FLAT:?pglDrawElements@@3P6GXIHIPBX@ZA
	DD	FLAT:??_C@_0N@LOLE@glDrawArrays?$AA@
	DD	FLAT:?pglDrawArrays@@3P6GXIHH@ZA
	DD	FLAT:??_C@_0M@LDC@glColorMask?$AA@
	DD	FLAT:?pglColorMask@@3P6GXEEEE@ZA
	DD	FLAT:??_C@_0P@GIBI@glIndexPointer?$AA@
	DD	FLAT:?pglIndexPointer@@3P6GXIHPBX@ZA
	DD	FLAT:??_C@_0BA@OGPO@glVertexPointer?$AA@
	DD	FLAT:?pglVertexPointer@@3P6GXHIHPBX@ZA
	DD	FLAT:??_C@_0BA@GJEJ@glNormalPointer?$AA@
	DD	FLAT:?pglNormalPointer@@3P6GXIHPBX@ZA
	DD	FLAT:??_C@_0P@PPM@glColorPointer?$AA@
	DD	FLAT:?pglColorPointer@@3P6GXHIHPBX@ZA
	DD	FLAT:??_C@_0BC@EKAK@glTexCoordPointer?$AA@
	DD	FLAT:?pglTexCoordPointer@@3P6GXHIHPBX@ZA
	DD	FLAT:??_C@_0P@ODMD@glArrayElement?$AA@
	DD	FLAT:?pglArrayElement@@3P6GXH@ZA
	DD	FLAT:??_C@_09NIDD@glColor3f?$AA@
	DD	FLAT:?pglColor3f@@3P6GXMMM@ZA
	DD	FLAT:??_C@_0L@OIPK@glColor3fv?$AA@
	DD	FLAT:?pglColor3fv@@3P6GXPBM@ZA
	DD	FLAT:??_C@_09LJGG@glColor4f?$AA@
	DD	FLAT:?pglColor4f@@3P6GXMMMM@ZA
	DD	FLAT:??_C@_0L@FGJL@glColor4fv?$AA@
	DD	FLAT:?pglColor4fv@@3P6GXPBM@ZA
	DD	FLAT:??_C@_0L@LKIA@glColor3ub?$AA@
	DD	FLAT:?pglColor3ub@@3P6GXEEE@ZA
	DD	FLAT:??_C@_0L@EOB@glColor4ub?$AA@
	DD	FLAT:?pglColor4ub@@3P6GXEEEE@ZA
	DD	FLAT:??_C@_0M@EHCG@glColor4ubv?$AA@
	DD	FLAT:?pglColor4ubv@@3P6GXPBE@ZA
	DD	FLAT:??_C@_0N@MION@glTexCoord1f?$AA@
	DD	FLAT:?pglTexCoord1f@@3P6GXM@ZA
	DD	FLAT:??_C@_0N@PDBC@glTexCoord2f?$AA@
	DD	FLAT:?pglTexCoord2f@@3P6GXMM@ZA
	DD	FLAT:??_C@_0N@OFLI@glTexCoord3f?$AA@
	DD	FLAT:?pglTexCoord3f@@3P6GXMMM@ZA
	DD	FLAT:??_C@_0N@IEON@glTexCoord4f?$AA@
	DD	FLAT:?pglTexCoord4f@@3P6GXMMMM@ZA
	DD	FLAT:??_C@_0O@BHOK@glTexCoord1fv?$AA@
	DD	FLAT:?pglTexCoord1fv@@3P6GXPBM@ZA
	DD	FLAT:??_C@_0O@OBNB@glTexCoord2fv?$AA@
	DD	FLAT:?pglTexCoord2fv@@3P6GXPBM@ZA
	DD	FLAT:??_C@_0O@LDMH@glTexCoord3fv?$AA@
	DD	FLAT:?pglTexCoord3fv@@3P6GXPBM@ZA
	DD	FLAT:??_C@_0O@NKG@glTexCoord4fv?$AA@
	DD	FLAT:?pglTexCoord4fv@@3P6GXPBM@ZA
	DD	FLAT:??_C@_09NKIB@glTexGenf?$AA@
	DD	FLAT:?pglTexGenf@@3P6GXIIM@ZA
	DD	FLAT:??_C@_0L@DDPI@glTexGenfv?$AA@
	DD	FLAT:?pglTexGenfv@@3P6GXIIPBM@ZA
	DD	FLAT:??_C@_09NLNM@glTexGeni?$AA@
	DD	FLAT:?pglTexGeni@@3P6GXIIH@ZA
	DD	FLAT:??_C@_0L@DNLP@glVertex2f?$AA@
	DD	FLAT:?pglVertex2f@@3P6GXMM@ZA
	DD	FLAT:??_C@_0L@CLBF@glVertex3f?$AA@
	DD	FLAT:?pglVertex3f@@3P6GXMMM@ZA
	DD	FLAT:??_C@_0M@PAAJ@glVertex3fv?$AA@
	DD	FLAT:?pglVertex3fv@@3P6GXPBM@ZA
	DD	FLAT:??_C@_0L@JOCM@glNormal3f?$AA@
	DD	FLAT:?pglNormal3f@@3P6GXMMM@ZA
	DD	FLAT:??_C@_0M@DFLM@glNormal3fv?$AA@
	DD	FLAT:?pglNormal3fv@@3P6GXPBM@ZA
	DD	FLAT:??_C@_07GHIG@glBegin?$AA@
	DD	FLAT:?pglBegin@@3P6GXI@ZA
	DD	FLAT:??_C@_05FDNN@glEnd?$AA@
	DD	FLAT:?pglEnd@@3P6GXXZA
	DD	FLAT:??_C@_0M@KCLG@glLineWidth?$AA@
	DD	FLAT:?pglLineWidth@@3P6GXM@ZA
	DD	FLAT:??_C@_0M@JAAI@glPointSize?$AA@
	DD	FLAT:?pglPointSize@@3P6GXM@ZA
	DD	FLAT:??_C@_0N@JNJF@glMatrixMode?$AA@
	DD	FLAT:?pglMatrixMode@@3P6GXI@ZA
	DD	FLAT:??_C@_07ICOP@glOrtho?$AA@
	DD	FLAT:?pglOrtho@@3P6GXNNNNNN@ZA
	DD	FLAT:??_C@_0O@HCNK@glRasterPos2f?$AA@
	DD	FLAT:?pglRasterPos2f@@3P6GXMM@ZA
	DD	FLAT:??_C@_09KLFM@glFrustum?$AA@
	DD	FLAT:?pglFrustum@@3P6GXNNNNNN@ZA
	DD	FLAT:??_C@_0L@INIC@glViewport?$AA@
	DD	FLAT:?pglViewport@@3P6GXHHHH@ZA
	DD	FLAT:??_C@_0N@KEGE@glPushMatrix?$AA@
	DD	FLAT:?pglPushMatrix@@3P6GXXZA
	DD	FLAT:??_C@_0M@LACG@glPopMatrix?$AA@
	DD	FLAT:?pglPopMatrix@@3P6GXXZA
	DD	FLAT:??_C@_0N@NFOG@glPushAttrib?$AA@
	DD	FLAT:?pglPushAttrib@@3P6GXI@ZA
	DD	FLAT:??_C@_0M@MBKE@glPopAttrib?$AA@
	DD	FLAT:?pglPopAttrib@@3P6GXXZA
	DD	FLAT:??_C@_0P@MLMG@glLoadIdentity?$AA@
	DD	FLAT:?pglLoadIdentity@@3P6GXXZA
	DD	FLAT:??_C@_0O@PGAL@glLoadMatrixd?$AA@
	DD	FLAT:?pglLoadMatrixd@@3P6GXPBN@ZA
	DD	FLAT:??_C@_0O@KDCF@glLoadMatrixf?$AA@
	DD	FLAT:?pglLoadMatrixf@@3P6GXPBM@ZA
	DD	FLAT:??_C@_0O@NKPG@glMultMatrixd?$AA@
	DD	FLAT:?pglMultMatrixd@@3P6GXPBN@ZA
	DD	FLAT:??_C@_0O@IPNI@glMultMatrixf?$AA@
	DD	FLAT:?pglMultMatrixf@@3P6GXPBM@ZA
	DD	FLAT:??_C@_09OHFF@glRotated?$AA@
	DD	FLAT:?pglRotated@@3P6GXNNNN@ZA
	DD	FLAT:??_C@_09LCHL@glRotatef?$AA@
	DD	FLAT:?pglRotatef@@3P6GXMMMM@ZA
	DD	FLAT:??_C@_08IEGN@glScaled?$AA@
	DD	FLAT:?pglScaled@@3P6GXNNN@ZA
	DD	FLAT:??_C@_08NBED@glScalef?$AA@
	DD	FLAT:?pglScalef@@3P6GXMMM@ZA
	DD	FLAT:??_C@_0N@IPCH@glTranslated?$AA@
	DD	FLAT:?pglTranslated@@3P6GXNNN@ZA
	DD	FLAT:??_C@_0N@NKAJ@glTranslatef?$AA@
	DD	FLAT:?pglTranslatef@@3P6GXMMM@ZA
	DD	FLAT:??_C@_0N@LBPG@glReadPixels?$AA@
	DD	FLAT:?pglReadPixels@@3P6GXHHHHIIPAX@ZA
	DD	FLAT:??_C@_0N@JMMB@glDrawPixels?$AA@
	DD	FLAT:?pglDrawPixels@@3P6GXHHIIPBX@ZA
	DD	FLAT:??_C@_0O@GBFI@glStencilFunc?$AA@
	DD	FLAT:?pglStencilFunc@@3P6GXIHI@ZA
	DD	FLAT:??_C@_0O@IKEL@glStencilMask?$AA@
	DD	FLAT:?pglStencilMask@@3P6GXI@ZA
	DD	FLAT:??_C@_0M@LODB@glStencilOp?$AA@
	DD	FLAT:?pglStencilOp@@3P6GXIII@ZA
	DD	FLAT:??_C@_0P@JHOA@glClearStencil?$AA@
	DD	FLAT:?pglClearStencil@@3P6GXH@ZA
	DD	FLAT:??_C@_0M@GNEM@glIsEnabled?$AA@
	DD	FLAT:?pglIsEnabled@@3P6GEI@ZA
	DD	FLAT:??_C@_08MENJ@glIsList?$AA@
	DD	FLAT:?pglIsList@@3P6GEI@ZA
	DD	FLAT:??_C@_0M@NCFH@glIsTexture?$AA@
	DD	FLAT:?pglIsTexture@@3P6GEI@ZA
	DD	FLAT:??_C@_09CJFG@glTexEnvf?$AA@
	DD	FLAT:?pglTexEnvf@@3P6GXIIM@ZA
	DD	FLAT:??_C@_0L@IHAL@glTexEnvfv?$AA@
	DD	FLAT:?pglTexEnvfv@@3P6GXIIPBM@ZA
	DD	FLAT:??_C@_09CIAL@glTexEnvi?$AA@
	DD	FLAT:?pglTexEnvi@@3P6GXIIH@ZA
	DD	FLAT:??_C@_0BA@CLDA@glTexParameterf?$AA@
	DD	FLAT:?pglTexParameterf@@3P6GXIIM@ZA
	DD	FLAT:??_C@_0BB@NJAJ@glTexParameterfv?$AA@
	DD	FLAT:?pglTexParameterfv@@3P6GXIIPBM@ZA
	DD	FLAT:??_C@_0BA@CKGN@glTexParameteri?$AA@
	DD	FLAT:?pglTexParameteri@@3P6GXIIH@ZA
	DD	FLAT:??_C@_06IKLF@glHint?$AA@
	DD	FLAT:?pglHint@@3P6GXII@ZA
	DD	FLAT:??_C@_0O@ELGF@glPixelStoref?$AA@
	DD	FLAT:?pglPixelStoref@@3P6GXIM@ZA
	DD	FLAT:??_C@_0O@EKDI@glPixelStorei?$AA@
	DD	FLAT:?pglPixelStorei@@3P6GXIH@ZA
	DD	FLAT:??_C@_0O@DAHJ@glGenTextures?$AA@
	DD	FLAT:?pglGenTextures@@3P6GXHPAI@ZA
	DD	FLAT:??_C@_0BB@OKAI@glDeleteTextures?$AA@
	DD	FLAT:?pglDeleteTextures@@3P6GXHPBI@ZA
	DD	FLAT:??_C@_0O@NAMD@glBindTexture?$AA@
	DD	FLAT:?pglBindTexture@@3P6GXII@ZA
	DD	FLAT:??_C@_0N@LLDN@glTexImage1D?$AA@
	DD	FLAT:?pglTexImage1D@@3P6GXIHHHHIIPBX@ZA
	DD	FLAT:??_C@_0N@IAMC@glTexImage2D?$AA@
	DD	FLAT:?pglTexImage2D@@3P6GXIHHHHHIIPBX@ZA
	DD	FLAT:??_C@_0BA@JOPC@glTexSubImage1D?$AA@
	DD	FLAT:?pglTexSubImage1D@@3P6GXIHHHIIPBX@ZA
	DD	FLAT:??_C@_0BA@KFAN@glTexSubImage2D?$AA@
	DD	FLAT:?pglTexSubImage2D@@3P6GXIHHHHHIIPBX@ZA
	DD	FLAT:??_C@_0BB@HNGB@glCopyTexImage1D?$AA@
	DD	FLAT:?pglCopyTexImage1D@@3P6GXIHIHHHH@ZA
	DD	FLAT:??_C@_0BB@EGJO@glCopyTexImage2D?$AA@
	DD	FLAT:?pglCopyTexImage2D@@3P6GXIHIHHHHH@ZA
	DD	FLAT:??_C@_0BE@OMHF@glCopyTexSubImage1D?$AA@
	DD	FLAT:?pglCopyTexSubImage1D@@3P6GXIHHHHH@ZA
	DD	FLAT:??_C@_0BE@NHIK@glCopyTexSubImage2D?$AA@
	DD	FLAT:?pglCopyTexSubImage2D@@3P6GXIHHHHHHH@ZA
	DD	FLAT:??_C@_09HOGJ@glScissor?$AA@
	DD	FLAT:?pglScissor@@3P6GXHHHH@ZA
	DD	FLAT:??_C@_0O@HGPI@glGetTexImage?$AA@
	DD	FLAT:?pglGetTexImage@@3P6GXIHIIPAX@ZA
	DD	FLAT:??_C@_0O@JDNI@glGetTexEnviv?$AA@
	DD	FLAT:?pglGetTexEnviv@@3P6GXIIPAH@ZA
	DD	FLAT:??_C@_0BA@BALB@glPolygonOffset?$AA@
	DD	FLAT:?pglPolygonOffset@@3P6GXMM@ZA
	DD	FLAT:??_C@_0O@FGKK@glPolygonMode?$AA@
	DD	FLAT:?pglPolygonMode@@3P6GXII@ZA
	DD	FLAT:??_C@_0BB@FIOF@glPolygonStipple?$AA@
	DD	FLAT:?pglPolygonStipple@@3P6GXPBE@ZA
	DD	FLAT:??_C@_0M@KLCG@glClipPlane?$AA@
	DD	FLAT:?pglClipPlane@@3P6GXIPBN@ZA
	DD	FLAT:??_C@_0P@EAOG@glGetClipPlane?$AA@
	DD	FLAT:?pglGetClipPlane@@3P6GXIPAN@ZA
	DD	FLAT:??_C@_0N@LIFO@glShadeModel?$AA@
	DD	FLAT:?pglShadeModel@@3P6GXI@ZA
	DD	FLAT:??_C@_0BJ@DLL@glGetTexLevelParameteriv?$AA@
	DD	FLAT:?pglGetTexLevelParameteriv@@3P6GXIHIPAH@ZA
	DD	FLAT:??_C@_0BJ@NHLK@glGetTexLevelParameterfv?$AA@
	DD	FLAT:?pglGetTexLevelParameterfv@@3P6GXIHIPAM@ZA
	DD	FLAT:??_C@_07KOOO@glFogfv?$AA@
	DD	FLAT:?pglFogfv@@3P6GXIPBM@ZA
	DD	FLAT:??_C@_06MMBO@glFogf?$AA@
	DD	FLAT:?pglFogf@@3P6GXIM@ZA
	DD	FLAT:??_C@_06MNED@glFogi?$AA@
	DD	FLAT:?pglFogi@@3P6GXIH@ZA
	DD	00H
	DD	00H
_drawrangeelementsfuncs DD FLAT:??_C@_0BE@NEHK@glDrawRangeElements?$AA@
	DD	FLAT:?pglDrawRangeElements@@3P6GXIIIHIPBX@ZA
	DD	00H
	DD	00H
_drawrangeelementsextfuncs DD FLAT:??_C@_0BH@DCHD@glDrawRangeElementsEXT?$AA@
	DD	FLAT:?pglDrawRangeElementsEXT@@3P6GXIIIHIPBX@ZA
	DD	00H
	DD	00H
_debugoutputfuncs DD FLAT:??_C@_0BJ@CDAF@glDebugMessageControlARB?$AA@
	DD	FLAT:?pglDebugMessageControlARB@@3P6GXIIIHPBIE@ZA
	DD	FLAT:??_C@_0BI@NDFI@glDebugMessageInsertARB?$AA@
	DD	FLAT:?pglDebugMessageInsertARB@@3P6GXIIIIHPBD@ZA
	DD	FLAT:??_C@_0BK@CJJK@glDebugMessageCallbackARB?$AA@
	DD	FLAT:?pglDebugMessageCallbackARB@@3P6GXP6GXIIIIHPBDPAX@Z1@ZA
	DD	FLAT:??_C@_0BI@BALA@glGetDebugMessageLogARB?$AA@
	DD	FLAT:?pglGetDebugMessageLogARB@@3P6GIIHPAI000PAHPAD@ZA
	DD	00H
	DD	00H
_multitexturefuncs DD FLAT:??_C@_0BF@JBHE@glMultiTexCoord1fARB?$AA@
	DD	FLAT:?pglMultiTexCoord1f@@3P6GXIM@ZA
	DD	FLAT:??_C@_0BF@HBBL@glMultiTexCoord2fARB?$AA@
	DD	FLAT:?pglMultiTexCoord2f@@3P6GXIMM@ZA
	DD	FLAT:??_C@_0BF@NBDO@glMultiTexCoord3fARB?$AA@
	DD	FLAT:?pglMultiTexCoord3f@@3P6GXIMMM@ZA
	DD	FLAT:??_C@_0BF@LBME@glMultiTexCoord4fARB?$AA@
	DD	FLAT:?pglMultiTexCoord4f@@3P6GXIMMMM@ZA
	DD	FLAT:??_C@_0BD@IJD@glActiveTextureARB?$AA@
	DD	FLAT:?pglActiveTexture@@3P6GXI@ZA
	DD	FLAT:??_C@_0BD@IJD@glActiveTextureARB?$AA@
	DD	FLAT:?pglActiveTextureARB@@3P6GXI@ZA
	DD	FLAT:??_C@_0BJ@NIEC@glClientActiveTextureARB?$AA@
	DD	FLAT:?pglClientActiveTexture@@3P6GXI@ZA
	DD	FLAT:??_C@_0BJ@NIEC@glClientActiveTextureARB?$AA@
	DD	FLAT:?pglClientActiveTextureARB@@3P6GXI@ZA
	DD	00H
	DD	00H
_texture3dextfuncs DD FLAT:??_C@_0BA@LIMG@glTexImage3DEXT?$AA@
	DD	FLAT:?pglTexImage3D@@3P6GXIHIHHHHIIPBX@ZA
	DD	FLAT:??_C@_0BD@EEOI@glTexSubImage3DEXT?$AA@
	DD	FLAT:?pglTexSubImage3D@@3P6GXIHHHHHHHIIPBX@ZA
	DD	FLAT:??_C@_0BH@EKCH@glCopyTexSubImage3DEXT?$AA@
	DD	FLAT:?pglCopyTexSubImage3D@@3P6GXIHHHHHHHH@ZA
	DD	00H
	DD	00H
_blendseparatefunc DD FLAT:??_C@_0BH@KH@glBlendFuncSeparateEXT?$AA@
	DD	FLAT:?pglBlendFuncSeparate@@3P6GXIIII@ZA
	DD	00H
	DD	00H
_blendequationfuncs DD FLAT:??_C@_0BD@NDLE@glBlendEquationEXT?$AA@
	DD	FLAT:?pglBlendEquationEXT@@3P6GXI@ZA
	DD	00H
	DD	00H
_shaderobjectsfuncs DD FLAT:??_C@_0BC@PIBE@glDeleteObjectARB?$AA@
	DD	FLAT:?pglDeleteObjectARB@@3P6GXI@ZA
	DD	FLAT:??_C@_0P@GFKC@glGetHandleARB?$AA@
	DD	FLAT:?pglGetHandleARB@@3P6GII@ZA
	DD	FLAT:??_C@_0BC@CBIF@glDetachObjectARB?$AA@
	DD	FLAT:?pglDetachObjectARB@@3P6GXII@ZA
	DD	FLAT:??_C@_0BI@EPLB@glCreateShaderObjectARB?$AA@
	DD	FLAT:?pglCreateShaderObjectARB@@3P6GII@ZA
	DD	FLAT:??_C@_0BC@NPKF@glShaderSourceARB?$AA@
	DD	FLAT:?pglShaderSourceARB@@3P6GXIHPAPBDPBH@ZA
	DD	FLAT:??_C@_0BD@KHGH@glCompileShaderARB?$AA@
	DD	FLAT:?pglCompileShaderARB@@3P6GXI@ZA
	DD	FLAT:??_C@_0BJ@HCBE@glCreateProgramObjectARB?$AA@
	DD	FLAT:?pglCreateProgramObjectARB@@3P6GIXZA
	DD	FLAT:??_C@_0BC@EMOD@glAttachObjectARB?$AA@
	DD	FLAT:?pglAttachObjectARB@@3P6GXII@ZA
	DD	FLAT:??_C@_0BB@PIMF@glLinkProgramARB?$AA@
	DD	FLAT:?pglLinkProgramARB@@3P6GXI@ZA
	DD	FLAT:??_C@_0BG@IGNN@glUseProgramObjectARB?$AA@
	DD	FLAT:?pglUseProgramObjectARB@@3P6GXI@ZA
	DD	FLAT:??_C@_0BF@LMJF@glValidateProgramARB?$AA@
	DD	FLAT:?pglValidateProgramARB@@3P6GXI@ZA
	DD	FLAT:??_C@_0P@EEMG@glUniform1fARB?$AA@
	DD	FLAT:?pglUniform1fARB@@3P6GXHM@ZA
	DD	FLAT:??_C@_0P@KEKJ@glUniform2fARB?$AA@
	DD	FLAT:?pglUniform2fARB@@3P6GXHMM@ZA
	DD	FLAT:??_C@_0P@EIM@glUniform3fARB?$AA@
	DD	FLAT:?pglUniform3fARB@@3P6GXHMMM@ZA
	DD	FLAT:??_C@_0P@GEHG@glUniform4fARB?$AA@
	DD	FLAT:?pglUniform4fARB@@3P6GXHMMMM@ZA
	DD	FLAT:??_C@_0P@JEOI@glUniform1iARB?$AA@
	DD	FLAT:?pglUniform1iARB@@3P6GXHH@ZA
	DD	FLAT:??_C@_0P@HEIH@glUniform2iARB?$AA@
	DD	FLAT:?pglUniform2iARB@@3P6GXHHH@ZA
	DD	FLAT:??_C@_0P@NEKC@glUniform3iARB?$AA@
	DD	FLAT:?pglUniform3iARB@@3P6GXHHHH@ZA
	DD	FLAT:??_C@_0P@LEFI@glUniform4iARB?$AA@
	DD	FLAT:?pglUniform4iARB@@3P6GXHHHHH@ZA
	DD	FLAT:??_C@_0BA@NAIP@glUniform1fvARB?$AA@
	DD	FLAT:?pglUniform1fvARB@@3P6GXHHPBM@ZA
	DD	FLAT:??_C@_0BA@GOGP@glUniform2fvARB?$AA@
	DD	FLAT:?pglUniform2fvARB@@3P6GXHHPBM@ZA
	DD	FLAT:??_C@_0BA@PLMP@glUniform3fvARB?$AA@
	DD	FLAT:?pglUniform3fvARB@@3P6GXHHPBM@ZA
	DD	FLAT:??_C@_0BA@BDKP@glUniform4fvARB?$AA@
	DD	FLAT:?pglUniform4fvARB@@3P6GXHHPBM@ZA
	DD	FLAT:??_C@_0BA@LBFP@glUniform1ivARB?$AA@
	DD	FLAT:?pglUniform1ivARB@@3P6GXHHPBH@ZA
	DD	FLAT:??_C@_0BA@PLP@glUniform2ivARB?$AA@
	DD	FLAT:?pglUniform2ivARB@@3P6GXHHPBH@ZA
	DD	FLAT:??_C@_0BA@JKBP@glUniform3ivARB?$AA@
	DD	FLAT:?pglUniform3ivARB@@3P6GXHHPBH@ZA
	DD	FLAT:??_C@_0BA@HCHP@glUniform4ivARB?$AA@
	DD	FLAT:?pglUniform4ivARB@@3P6GXHHPBH@ZA
	DD	FLAT:??_C@_0BG@HEBC@glUniformMatrix2fvARB?$AA@
	DD	FLAT:?pglUniformMatrix2fvARB@@3P6GXHHEPBM@ZA
	DD	FLAT:??_C@_0BG@OBLC@glUniformMatrix3fvARB?$AA@
	DD	FLAT:?pglUniformMatrix3fvARB@@3P6GXHHEPBM@ZA
	DD	FLAT:??_C@_0BG@JNC@glUniformMatrix4fvARB?$AA@
	DD	FLAT:?pglUniformMatrix4fvARB@@3P6GXHHEPBM@ZA
	DD	FLAT:??_C@_0BK@LDGO@glGetObjectParameterfvARB?$AA@
	DD	FLAT:?pglGetObjectParameterfvARB@@3P6GXIIPAM@ZA
	DD	FLAT:??_C@_0BK@NCLO@glGetObjectParameterivARB?$AA@
	DD	FLAT:?pglGetObjectParameterivARB@@3P6GXIIPAH@ZA
	DD	FLAT:??_C@_0BA@CMKF@glGetInfoLogARB?$AA@
	DD	FLAT:?pglGetInfoLogARB@@3P6GXIHPAHPAD@ZA
	DD	FLAT:??_C@_0BI@GBKL@glGetAttachedObjectsARB?$AA@
	DD	FLAT:?pglGetAttachedObjectsARB@@3P6GXIHPAHPAI@ZA
	DD	FLAT:??_C@_0BI@IDLL@glGetUniformLocationARB?$AA@
	DD	FLAT:?pglGetUniformLocationARB@@3P6GHIPBD@ZA
	DD	FLAT:??_C@_0BG@JFEH@glGetActiveUniformARB?$AA@
	DD	FLAT:?pglGetActiveUniformARB@@3P6GXIIHPAH0PAIPAD@ZA
	DD	FLAT:??_C@_0BC@MDDE@glGetUniformfvARB?$AA@
	DD	FLAT:?pglGetUniformfvARB@@3P6GXIHPAM@ZA
	DD	FLAT:??_C@_0BC@KCOE@glGetUniformivARB?$AA@
	DD	FLAT:?pglGetUniformivARB@@3P6GXIHPAH@ZA
	DD	FLAT:??_C@_0BF@DFJL@glGetShaderSourceARB?$AA@
	DD	FLAT:?pglGetShaderSourceARB@@3P6GXIHPAHPAD@ZA
	DD	FLAT:??_C@_0BJ@BPFA@glVertexAttribPointerARB?$AA@
	DD	FLAT:?pglVertexAttribPointerARB@@3P6GXIHIEHPBX@ZA
	DD	FLAT:??_C@_0BN@DJDP@glEnableVertexAttribArrayARB?$AA@
	DD	FLAT:?pglEnableVertexAttribArrayARB@@3P6GXI@ZA
	DD	FLAT:??_C@_0BO@IOBM@glDisableVertexAttribArrayARB?$AA@
	DD	FLAT:?pglDisableVertexAttribArrayARB@@3P6GXI@ZA
	DD	FLAT:??_C@_0BI@IPDI@glBindAttribLocationARB?$AA@
	DD	FLAT:?pglBindAttribLocationARB@@3P6GXIIPBD@ZA
	DD	FLAT:??_C@_0BF@CFAG@glGetActiveAttribARB?$AA@
	DD	FLAT:?pglGetActiveAttribARB@@3P6GXIIHPAH0PAIPAD@ZA
	DD	FLAT:??_C@_0BH@LMPE@glGetAttribLocationARB?$AA@
	DD	FLAT:?pglGetAttribLocationARB@@3P6GHIPBD@ZA
	DD	FLAT:??_C@_0BB@GLJM@glVertexAttrib2f?$AA@
	DD	FLAT:?pglVertexAttrib2fARB@@3P6GXIMM@ZA
	DD	FLAT:??_C@_0BC@OEEJ@glVertexAttrib2fv?$AA@
	DD	FLAT:?pglVertexAttrib2fvARB@@3P6GXIPBM@ZA
	DD	FLAT:??_C@_0BC@LGFP@glVertexAttrib3fv?$AA@
	DD	FLAT:?pglVertexAttrib3fvARB@@3P6GXIPBM@ZA
	DD	FLAT:??_C@_0BB@BMGD@glVertexAttrib4f?$AA@
	DD	FLAT:?pglVertexAttrib4fARB@@3P6GXIMMMM@ZA
	DD	FLAT:??_C@_0BC@IDO@glVertexAttrib4fv?$AA@
	DD	FLAT:?pglVertexAttrib4fvARB@@3P6GXIPBM@ZA
	DD	FLAT:??_C@_0BD@IMHI@glVertexAttrib4ubv?$AA@
	DD	FLAT:?pglVertexAttrib4ubvARB@@3P6GXIPBE@ZA
	DD	00H
	DD	00H
_vertexshaderfuncs DD FLAT:??_C@_0BJ@BPFA@glVertexAttribPointerARB?$AA@
	DD	FLAT:?pglVertexAttribPointerARB@@3P6GXIHIEHPBX@ZA
	DD	FLAT:??_C@_0BN@DJDP@glEnableVertexAttribArrayARB?$AA@
	DD	FLAT:?pglEnableVertexAttribArrayARB@@3P6GXI@ZA
	DD	FLAT:??_C@_0BO@IOBM@glDisableVertexAttribArrayARB?$AA@
	DD	FLAT:?pglDisableVertexAttribArrayARB@@3P6GXI@ZA
	DD	FLAT:??_C@_0BI@IPDI@glBindAttribLocationARB?$AA@
	DD	FLAT:?pglBindAttribLocationARB@@3P6GXIIPBD@ZA
	DD	FLAT:??_C@_0BF@CFAG@glGetActiveAttribARB?$AA@
	DD	FLAT:?pglGetActiveAttribARB@@3P6GXIIHPAH0PAIPAD@ZA
	DD	FLAT:??_C@_0BH@LMPE@glGetAttribLocationARB?$AA@
	DD	FLAT:?pglGetAttribLocationARB@@3P6GHIPBD@ZA
	DD	00H
	DD	00H
_vbofuncs DD	FLAT:??_C@_0BA@DLFE@glBindBufferARB?$AA@
	DD	FLAT:?pglBindBufferARB@@3P6GXII@ZA
	DD	FLAT:??_C@_0BD@NMOF@glDeleteBuffersARB?$AA@
	DD	FLAT:?pglDeleteBuffersARB@@3P6GXHPBI@ZA
	DD	FLAT:??_C@_0BA@KOEM@glGenBuffersARB?$AA@
	DD	FLAT:?pglGenBuffersARB@@3P6GXHPAI@ZA
	DD	FLAT:??_C@_0O@GDII@glIsBufferARB?$AA@
	DD	FLAT:?pglIsBufferARB@@3P6GEI@ZA
	DD	FLAT:??_C@_0P@CBOK@glMapBufferARB?$AA@
	DD	FLAT:?pglMapBufferARB@@3P6GPAXII@ZA
	DD	FLAT:??_C@_0BB@DPNF@glUnmapBufferARB?$AA@
	DD	FLAT:?pglUnmapBufferARB@@3P6GEI@ZA
	DD	FLAT:??_C@_0BA@HHJE@glBufferDataARB?$AA@
	DD	FLAT:?pglBufferDataARB@@3P6GXIHPBXI@ZA
	DD	FLAT:??_C@_0BD@FIPI@glBufferSubDataARB?$AA@
	DD	FLAT:?pglBufferSubDataARB@@3P6GXIHHPBX@ZA
	DD	00H
	DD	00H
_vaofuncs DD	FLAT:??_C@_0BC@GKBG@glBindVertexArray?$AA@
	DD	FLAT:?pglBindVertexArray@@3P6GXI@ZA
	DD	FLAT:??_C@_0BF@LBKN@glDeleteVertexArrays?$AA@
	DD	FLAT:?pglDeleteVertexArrays@@3P6GXHPBI@ZA
	DD	FLAT:??_C@_0BC@HLGE@glGenVertexArrays?$AA@
	DD	FLAT:?pglGenVertexArrays@@3P6GXHPBI@ZA
	DD	FLAT:??_C@_0BA@BCOG@glIsVertexArray?$AA@
	DD	FLAT:?pglIsVertexArray@@3P6GEI@ZA
	DD	00H
	DD	00H
_fbofuncs DD	FLAT:??_C@_0BB@GNLM@glIsRenderbuffer?$AA@
	DD	FLAT:?pglIsRenderbuffer@@3P6GEI@ZA
	DD	FLAT:??_C@_0BD@KHME@glBindRenderbuffer?$AA@
	DD	FLAT:?pglBindRenderbuffer@@3P6GXII@ZA
	DD	FLAT:??_C@_0BG@KCGE@glDeleteRenderbuffers?$AA@
	DD	FLAT:?pglDeleteRenderbuffers@@3P6GXHPBI@ZA
	DD	FLAT:??_C@_0BD@PMKO@glGenRenderbuffers?$AA@
	DD	FLAT:?pglGenRenderbuffers@@3P6GXHPAI@ZA
	DD	FLAT:??_C@_0BG@HFLO@glRenderbufferStorage?$AA@
	DD	FLAT:?pglRenderbufferStorage@@3P6GXIIHH@ZA
	DD	FLAT:??_C@_0BN@IIKB@glGetRenderbufferParameteriv?$AA@
	DD	FLAT:?pglGetRenderbufferParameteriv@@3P6GXIIPAH@ZA
	DD	FLAT:??_C@_0BA@CED@glIsFramebuffer?$AA@
	DD	FLAT:?pglIsFramebuffer@@3P6GEI@ZA
	DD	FLAT:??_C@_0BC@HKLD@glBindFramebuffer?$AA@
	DD	FLAT:?pglBindFramebuffer@@3P6GXII@ZA
	DD	FLAT:??_C@_0BF@DGLN@glDeleteFramebuffers?$AA@
	DD	FLAT:?pglDeleteFramebuffers@@3P6GXHPBI@ZA
	DD	FLAT:??_C@_0BC@PMHE@glGenFramebuffers?$AA@
	DD	FLAT:?pglGenFramebuffers@@3P6GXHPAI@ZA
	DD	FLAT:??_C@_0BJ@JLAM@glCheckFramebufferStatus?$AA@
	DD	FLAT:?pglCheckFramebufferStatus@@3P6GII@ZA
	DD	FLAT:??_C@_0BH@ECGF@glFramebufferTexture1D?$AA@
	DD	FLAT:?pglFramebufferTexture1D@@3P6GXIIIIH@ZA
	DD	FLAT:??_C@_0BH@HJJK@glFramebufferTexture2D?$AA@
	DD	FLAT:?pglFramebufferTexture2D@@3P6GXIIIIH@ZA
	DD	FLAT:??_C@_0BH@GPDA@glFramebufferTexture3D?$AA@
	DD	FLAT:?pglFramebufferTexture3D@@3P6GXIIIIHH@ZA
	DD	FLAT:??_C@_0BK@JPJE@glFramebufferRenderbuffer?$AA@
	DD	FLAT:?pglFramebufferRenderbuffer@@3P6GXIIII@ZA
	DD	FLAT:??_C@_0CG@CBFL@glGetFramebufferAttachmentParame@
	DD	FLAT:?pglGetFramebufferAttachmentParameteriv@@3P6GXIIIPAH@ZA
	DD	FLAT:??_C@_0BB@OJAP@glGenerateMipmap?$AA@
	DD	FLAT:?pglGenerateMipmap@@3P6GXI@ZA
	DD	00H
	DD	00H
_occlusionfunc DD FLAT:??_C@_0BA@NAHP@glGenQueriesARB?$AA@
	DD	FLAT:?pglGenQueriesARB@@3P6GXHPAI@ZA
	DD	FLAT:??_C@_0BD@KCNG@glDeleteQueriesARB?$AA@
	DD	FLAT:?pglDeleteQueriesARB@@3P6GXHPBI@ZA
	DD	FLAT:??_C@_0N@IHPM@glIsQueryARB?$AA@
	DD	FLAT:?pglIsQueryARB@@3P6GEI@ZA
	DD	FLAT:??_C@_0BA@OHED@glBeginQueryARB?$AA@
	DD	FLAT:?pglBeginQueryARB@@3P6GXII@ZA
	DD	FLAT:??_C@_0O@ENCE@glEndQueryARB?$AA@
	DD	FLAT:?pglEndQueryARB@@3P6GXI@ZA
	DD	FLAT:??_C@_0BA@JCEF@glGetQueryivARB?$AA@
	DD	FLAT:?pglGetQueryivARB@@3P6GXIIPAH@ZA
	DD	FLAT:??_C@_0BG@LEAK@glGetQueryObjectivARB?$AA@
	DD	FLAT:?pglGetQueryObjectivARB@@3P6GXIIPAH@ZA
	DD	FLAT:??_C@_0BH@OAHJ@glGetQueryObjectuivARB?$AA@
	DD	FLAT:?pglGetQueryObjectuivARB@@3P6GXIIPAI@ZA
	DD	00H
	DD	00H
_DATA	ENDS
;	COMDAT ??_C@_0N@IALK@glClearColor?$AA@
CONST	SEGMENT
??_C@_0N@IALK@glClearColor?$AA@ DB 'glClearColor', 00H	; `string'
CONST	ENDS
;	COMDAT ??_C@_07IOIM@glClear?$AA@
CONST	SEGMENT
??_C@_07IOIM@glClear?$AA@ DB 'glClear', 00H		; `string'
CONST	ENDS
;	COMDAT ??_C@_0M@JBDJ@glAlphaFunc?$AA@
CONST	SEGMENT
??_C@_0M@JBDJ@glAlphaFunc?$AA@ DB 'glAlphaFunc', 00H	; `string'
CONST	ENDS
;	COMDAT ??_C@_0M@PHAI@glBlendFunc?$AA@
CONST	SEGMENT
??_C@_0M@PHAI@glBlendFunc?$AA@ DB 'glBlendFunc', 00H	; `string'
CONST	ENDS
;	COMDAT ??_C@_0L@LIEG@glCullFace?$AA@
CONST	SEGMENT
??_C@_0L@LIEG@glCullFace?$AA@ DB 'glCullFace', 00H	; `string'
CONST	ENDS
;	COMDAT ??_C@_0N@DBGG@glDrawBuffer?$AA@
CONST	SEGMENT
??_C@_0N@DBGG@glDrawBuffer?$AA@ DB 'glDrawBuffer', 00H	; `string'
CONST	ENDS
;	COMDAT ??_C@_0N@BMFB@glReadBuffer?$AA@
CONST	SEGMENT
??_C@_0N@BMFB@glReadBuffer?$AA@ DB 'glReadBuffer', 00H	; `string'
CONST	ENDS
;	COMDAT ??_C@_07GKLB@glAccum?$AA@
CONST	SEGMENT
??_C@_07GKLB@glAccum?$AA@ DB 'glAccum', 00H		; `string'
CONST	ENDS
;	COMDAT ??_C@_08PHJO@glEnable?$AA@
CONST	SEGMENT
??_C@_08PHJO@glEnable?$AA@ DB 'glEnable', 00H		; `string'
CONST	ENDS
;	COMDAT ??_C@_09DADM@glDisable?$AA@
CONST	SEGMENT
??_C@_09DADM@glDisable?$AA@ DB 'glDisable', 00H		; `string'
CONST	ENDS
;	COMDAT ??_C@_0BE@JJFB@glEnableClientState?$AA@
CONST	SEGMENT
??_C@_0BE@JJFB@glEnableClientState?$AA@ DB 'glEnableClientState', 00H ; `string'
CONST	ENDS
;	COMDAT ??_C@_0BF@HABO@glDisableClientState?$AA@
CONST	SEGMENT
??_C@_0BF@HABO@glDisableClientState?$AA@ DB 'glDisableClientState', 00H ; `string'
CONST	ENDS
;	COMDAT ??_C@_0O@CEKP@glGetBooleanv?$AA@
CONST	SEGMENT
??_C@_0O@CEKP@glGetBooleanv?$AA@ DB 'glGetBooleanv', 00H ; `string'
CONST	ENDS
;	COMDAT ??_C@_0N@LJNO@glGetDoublev?$AA@
CONST	SEGMENT
??_C@_0N@LJNO@glGetDoublev?$AA@ DB 'glGetDoublev', 00H	; `string'
CONST	ENDS
;	COMDAT ??_C@_0M@HNHJ@glGetFloatv?$AA@
CONST	SEGMENT
??_C@_0M@HNHJ@glGetFloatv?$AA@ DB 'glGetFloatv', 00H	; `string'
CONST	ENDS
;	COMDAT ??_C@_0O@PMHI@glGetIntegerv?$AA@
CONST	SEGMENT
??_C@_0O@PMHI@glGetIntegerv?$AA@ DB 'glGetIntegerv', 00H ; `string'
CONST	ENDS
;	COMDAT ??_C@_0L@INBB@glGetError?$AA@
CONST	SEGMENT
??_C@_0L@INBB@glGetError?$AA@ DB 'glGetError', 00H	; `string'
CONST	ENDS
;	COMDAT ??_C@_0M@EJHF@glGetString?$AA@
CONST	SEGMENT
??_C@_0M@EJHF@glGetString?$AA@ DB 'glGetString', 00H	; `string'
CONST	ENDS
;	COMDAT ??_C@_08HFPP@glFinish?$AA@
CONST	SEGMENT
??_C@_08HFPP@glFinish?$AA@ DB 'glFinish', 00H		; `string'
CONST	ENDS
;	COMDAT ??_C@_07GAEM@glFlush?$AA@
CONST	SEGMENT
??_C@_07GAEM@glFlush?$AA@ DB 'glFlush', 00H		; `string'
CONST	ENDS
;	COMDAT ??_C@_0N@DFBF@glClearDepth?$AA@
CONST	SEGMENT
??_C@_0N@DFBF@glClearDepth?$AA@ DB 'glClearDepth', 00H	; `string'
CONST	ENDS
;	COMDAT ??_C@_0M@FDIH@glDepthFunc?$AA@
CONST	SEGMENT
??_C@_0M@FDIH@glDepthFunc?$AA@ DB 'glDepthFunc', 00H	; `string'
CONST	ENDS
;	COMDAT ??_C@_0M@LIJE@glDepthMask?$AA@
CONST	SEGMENT
??_C@_0M@LIJE@glDepthMask?$AA@ DB 'glDepthMask', 00H	; `string'
CONST	ENDS
;	COMDAT ??_C@_0N@OLL@glDepthRange?$AA@
CONST	SEGMENT
??_C@_0N@OLL@glDepthRange?$AA@ DB 'glDepthRange', 00H	; `string'
CONST	ENDS
;	COMDAT ??_C@_0M@MJJH@glFrontFace?$AA@
CONST	SEGMENT
??_C@_0M@MJJH@glFrontFace?$AA@ DB 'glFrontFace', 00H	; `string'
CONST	ENDS
;	COMDAT ??_C@_0P@EAHC@glDrawElements?$AA@
CONST	SEGMENT
??_C@_0P@EAHC@glDrawElements?$AA@ DB 'glDrawElements', 00H ; `string'
CONST	ENDS
;	COMDAT ??_C@_0N@LOLE@glDrawArrays?$AA@
CONST	SEGMENT
??_C@_0N@LOLE@glDrawArrays?$AA@ DB 'glDrawArrays', 00H	; `string'
CONST	ENDS
;	COMDAT ??_C@_0M@LDC@glColorMask?$AA@
CONST	SEGMENT
??_C@_0M@LDC@glColorMask?$AA@ DB 'glColorMask', 00H	; `string'
CONST	ENDS
;	COMDAT ??_C@_0P@GIBI@glIndexPointer?$AA@
CONST	SEGMENT
??_C@_0P@GIBI@glIndexPointer?$AA@ DB 'glIndexPointer', 00H ; `string'
CONST	ENDS
;	COMDAT ??_C@_0BA@OGPO@glVertexPointer?$AA@
CONST	SEGMENT
??_C@_0BA@OGPO@glVertexPointer?$AA@ DB 'glVertexPointer', 00H ; `string'
CONST	ENDS
;	COMDAT ??_C@_0BA@GJEJ@glNormalPointer?$AA@
CONST	SEGMENT
??_C@_0BA@GJEJ@glNormalPointer?$AA@ DB 'glNormalPointer', 00H ; `string'
CONST	ENDS
;	COMDAT ??_C@_0P@PPM@glColorPointer?$AA@
CONST	SEGMENT
??_C@_0P@PPM@glColorPointer?$AA@ DB 'glColorPointer', 00H ; `string'
CONST	ENDS
;	COMDAT ??_C@_0BC@EKAK@glTexCoordPointer?$AA@
CONST	SEGMENT
??_C@_0BC@EKAK@glTexCoordPointer?$AA@ DB 'glTexCoordPointer', 00H ; `string'
CONST	ENDS
;	COMDAT ??_C@_0P@ODMD@glArrayElement?$AA@
CONST	SEGMENT
??_C@_0P@ODMD@glArrayElement?$AA@ DB 'glArrayElement', 00H ; `string'
CONST	ENDS
;	COMDAT ??_C@_09NIDD@glColor3f?$AA@
CONST	SEGMENT
??_C@_09NIDD@glColor3f?$AA@ DB 'glColor3f', 00H		; `string'
CONST	ENDS
;	COMDAT ??_C@_0L@OIPK@glColor3fv?$AA@
CONST	SEGMENT
??_C@_0L@OIPK@glColor3fv?$AA@ DB 'glColor3fv', 00H	; `string'
CONST	ENDS
;	COMDAT ??_C@_09LJGG@glColor4f?$AA@
CONST	SEGMENT
??_C@_09LJGG@glColor4f?$AA@ DB 'glColor4f', 00H		; `string'
CONST	ENDS
;	COMDAT ??_C@_0L@FGJL@glColor4fv?$AA@
CONST	SEGMENT
??_C@_0L@FGJL@glColor4fv?$AA@ DB 'glColor4fv', 00H	; `string'
CONST	ENDS
;	COMDAT ??_C@_0L@LKIA@glColor3ub?$AA@
CONST	SEGMENT
??_C@_0L@LKIA@glColor3ub?$AA@ DB 'glColor3ub', 00H	; `string'
CONST	ENDS
;	COMDAT ??_C@_0L@EOB@glColor4ub?$AA@
CONST	SEGMENT
??_C@_0L@EOB@glColor4ub?$AA@ DB 'glColor4ub', 00H	; `string'
CONST	ENDS
;	COMDAT ??_C@_0M@EHCG@glColor4ubv?$AA@
CONST	SEGMENT
??_C@_0M@EHCG@glColor4ubv?$AA@ DB 'glColor4ubv', 00H	; `string'
CONST	ENDS
;	COMDAT ??_C@_0N@MION@glTexCoord1f?$AA@
CONST	SEGMENT
??_C@_0N@MION@glTexCoord1f?$AA@ DB 'glTexCoord1f', 00H	; `string'
CONST	ENDS
;	COMDAT ??_C@_0N@PDBC@glTexCoord2f?$AA@
CONST	SEGMENT
??_C@_0N@PDBC@glTexCoord2f?$AA@ DB 'glTexCoord2f', 00H	; `string'
CONST	ENDS
;	COMDAT ??_C@_0N@OFLI@glTexCoord3f?$AA@
CONST	SEGMENT
??_C@_0N@OFLI@glTexCoord3f?$AA@ DB 'glTexCoord3f', 00H	; `string'
CONST	ENDS
;	COMDAT ??_C@_0N@IEON@glTexCoord4f?$AA@
CONST	SEGMENT
??_C@_0N@IEON@glTexCoord4f?$AA@ DB 'glTexCoord4f', 00H	; `string'
CONST	ENDS
;	COMDAT ??_C@_0O@BHOK@glTexCoord1fv?$AA@
CONST	SEGMENT
??_C@_0O@BHOK@glTexCoord1fv?$AA@ DB 'glTexCoord1fv', 00H ; `string'
CONST	ENDS
;	COMDAT ??_C@_0O@OBNB@glTexCoord2fv?$AA@
CONST	SEGMENT
??_C@_0O@OBNB@glTexCoord2fv?$AA@ DB 'glTexCoord2fv', 00H ; `string'
CONST	ENDS
;	COMDAT ??_C@_0O@LDMH@glTexCoord3fv?$AA@
CONST	SEGMENT
??_C@_0O@LDMH@glTexCoord3fv?$AA@ DB 'glTexCoord3fv', 00H ; `string'
CONST	ENDS
;	COMDAT ??_C@_0O@NKG@glTexCoord4fv?$AA@
CONST	SEGMENT
??_C@_0O@NKG@glTexCoord4fv?$AA@ DB 'glTexCoord4fv', 00H	; `string'
CONST	ENDS
;	COMDAT ??_C@_09NKIB@glTexGenf?$AA@
CONST	SEGMENT
??_C@_09NKIB@glTexGenf?$AA@ DB 'glTexGenf', 00H		; `string'
CONST	ENDS
;	COMDAT ??_C@_0L@DDPI@glTexGenfv?$AA@
CONST	SEGMENT
??_C@_0L@DDPI@glTexGenfv?$AA@ DB 'glTexGenfv', 00H	; `string'
CONST	ENDS
;	COMDAT ??_C@_09NLNM@glTexGeni?$AA@
CONST	SEGMENT
??_C@_09NLNM@glTexGeni?$AA@ DB 'glTexGeni', 00H		; `string'
CONST	ENDS
;	COMDAT ??_C@_0L@DNLP@glVertex2f?$AA@
CONST	SEGMENT
??_C@_0L@DNLP@glVertex2f?$AA@ DB 'glVertex2f', 00H	; `string'
CONST	ENDS
;	COMDAT ??_C@_0L@CLBF@glVertex3f?$AA@
CONST	SEGMENT
??_C@_0L@CLBF@glVertex3f?$AA@ DB 'glVertex3f', 00H	; `string'
CONST	ENDS
;	COMDAT ??_C@_0M@PAAJ@glVertex3fv?$AA@
CONST	SEGMENT
??_C@_0M@PAAJ@glVertex3fv?$AA@ DB 'glVertex3fv', 00H	; `string'
CONST	ENDS
;	COMDAT ??_C@_0L@JOCM@glNormal3f?$AA@
CONST	SEGMENT
??_C@_0L@JOCM@glNormal3f?$AA@ DB 'glNormal3f', 00H	; `string'
CONST	ENDS
;	COMDAT ??_C@_0M@DFLM@glNormal3fv?$AA@
CONST	SEGMENT
??_C@_0M@DFLM@glNormal3fv?$AA@ DB 'glNormal3fv', 00H	; `string'
CONST	ENDS
;	COMDAT ??_C@_07GHIG@glBegin?$AA@
CONST	SEGMENT
??_C@_07GHIG@glBegin?$AA@ DB 'glBegin', 00H		; `string'
CONST	ENDS
;	COMDAT ??_C@_05FDNN@glEnd?$AA@
CONST	SEGMENT
??_C@_05FDNN@glEnd?$AA@ DB 'glEnd', 00H			; `string'
CONST	ENDS
;	COMDAT ??_C@_0M@KCLG@glLineWidth?$AA@
CONST	SEGMENT
??_C@_0M@KCLG@glLineWidth?$AA@ DB 'glLineWidth', 00H	; `string'
CONST	ENDS
;	COMDAT ??_C@_0M@JAAI@glPointSize?$AA@
CONST	SEGMENT
??_C@_0M@JAAI@glPointSize?$AA@ DB 'glPointSize', 00H	; `string'
CONST	ENDS
;	COMDAT ??_C@_0N@JNJF@glMatrixMode?$AA@
CONST	SEGMENT
??_C@_0N@JNJF@glMatrixMode?$AA@ DB 'glMatrixMode', 00H	; `string'
CONST	ENDS
;	COMDAT ??_C@_07ICOP@glOrtho?$AA@
CONST	SEGMENT
??_C@_07ICOP@glOrtho?$AA@ DB 'glOrtho', 00H		; `string'
CONST	ENDS
;	COMDAT ??_C@_0O@HCNK@glRasterPos2f?$AA@
CONST	SEGMENT
??_C@_0O@HCNK@glRasterPos2f?$AA@ DB 'glRasterPos2f', 00H ; `string'
CONST	ENDS
;	COMDAT ??_C@_09KLFM@glFrustum?$AA@
CONST	SEGMENT
??_C@_09KLFM@glFrustum?$AA@ DB 'glFrustum', 00H		; `string'
CONST	ENDS
;	COMDAT ??_C@_0L@INIC@glViewport?$AA@
CONST	SEGMENT
??_C@_0L@INIC@glViewport?$AA@ DB 'glViewport', 00H	; `string'
CONST	ENDS
;	COMDAT ??_C@_0N@KEGE@glPushMatrix?$AA@
CONST	SEGMENT
??_C@_0N@KEGE@glPushMatrix?$AA@ DB 'glPushMatrix', 00H	; `string'
CONST	ENDS
;	COMDAT ??_C@_0M@LACG@glPopMatrix?$AA@
CONST	SEGMENT
??_C@_0M@LACG@glPopMatrix?$AA@ DB 'glPopMatrix', 00H	; `string'
CONST	ENDS
;	COMDAT ??_C@_0N@NFOG@glPushAttrib?$AA@
CONST	SEGMENT
??_C@_0N@NFOG@glPushAttrib?$AA@ DB 'glPushAttrib', 00H	; `string'
CONST	ENDS
;	COMDAT ??_C@_0M@MBKE@glPopAttrib?$AA@
CONST	SEGMENT
??_C@_0M@MBKE@glPopAttrib?$AA@ DB 'glPopAttrib', 00H	; `string'
CONST	ENDS
;	COMDAT ??_C@_0P@MLMG@glLoadIdentity?$AA@
CONST	SEGMENT
??_C@_0P@MLMG@glLoadIdentity?$AA@ DB 'glLoadIdentity', 00H ; `string'
CONST	ENDS
;	COMDAT ??_C@_0O@PGAL@glLoadMatrixd?$AA@
CONST	SEGMENT
??_C@_0O@PGAL@glLoadMatrixd?$AA@ DB 'glLoadMatrixd', 00H ; `string'
CONST	ENDS
;	COMDAT ??_C@_0O@KDCF@glLoadMatrixf?$AA@
CONST	SEGMENT
??_C@_0O@KDCF@glLoadMatrixf?$AA@ DB 'glLoadMatrixf', 00H ; `string'
CONST	ENDS
;	COMDAT ??_C@_0O@NKPG@glMultMatrixd?$AA@
CONST	SEGMENT
??_C@_0O@NKPG@glMultMatrixd?$AA@ DB 'glMultMatrixd', 00H ; `string'
CONST	ENDS
;	COMDAT ??_C@_0O@IPNI@glMultMatrixf?$AA@
CONST	SEGMENT
??_C@_0O@IPNI@glMultMatrixf?$AA@ DB 'glMultMatrixf', 00H ; `string'
CONST	ENDS
;	COMDAT ??_C@_09OHFF@glRotated?$AA@
CONST	SEGMENT
??_C@_09OHFF@glRotated?$AA@ DB 'glRotated', 00H		; `string'
CONST	ENDS
;	COMDAT ??_C@_09LCHL@glRotatef?$AA@
CONST	SEGMENT
??_C@_09LCHL@glRotatef?$AA@ DB 'glRotatef', 00H		; `string'
CONST	ENDS
;	COMDAT ??_C@_08IEGN@glScaled?$AA@
CONST	SEGMENT
??_C@_08IEGN@glScaled?$AA@ DB 'glScaled', 00H		; `string'
CONST	ENDS
;	COMDAT ??_C@_08NBED@glScalef?$AA@
CONST	SEGMENT
??_C@_08NBED@glScalef?$AA@ DB 'glScalef', 00H		; `string'
CONST	ENDS
;	COMDAT ??_C@_0N@IPCH@glTranslated?$AA@
CONST	SEGMENT
??_C@_0N@IPCH@glTranslated?$AA@ DB 'glTranslated', 00H	; `string'
CONST	ENDS
;	COMDAT ??_C@_0N@NKAJ@glTranslatef?$AA@
CONST	SEGMENT
??_C@_0N@NKAJ@glTranslatef?$AA@ DB 'glTranslatef', 00H	; `string'
CONST	ENDS
;	COMDAT ??_C@_0N@LBPG@glReadPixels?$AA@
CONST	SEGMENT
??_C@_0N@LBPG@glReadPixels?$AA@ DB 'glReadPixels', 00H	; `string'
CONST	ENDS
;	COMDAT ??_C@_0N@JMMB@glDrawPixels?$AA@
CONST	SEGMENT
??_C@_0N@JMMB@glDrawPixels?$AA@ DB 'glDrawPixels', 00H	; `string'
CONST	ENDS
;	COMDAT ??_C@_0O@GBFI@glStencilFunc?$AA@
CONST	SEGMENT
??_C@_0O@GBFI@glStencilFunc?$AA@ DB 'glStencilFunc', 00H ; `string'
CONST	ENDS
;	COMDAT ??_C@_0O@IKEL@glStencilMask?$AA@
CONST	SEGMENT
??_C@_0O@IKEL@glStencilMask?$AA@ DB 'glStencilMask', 00H ; `string'
CONST	ENDS
;	COMDAT ??_C@_0M@LODB@glStencilOp?$AA@
CONST	SEGMENT
??_C@_0M@LODB@glStencilOp?$AA@ DB 'glStencilOp', 00H	; `string'
CONST	ENDS
;	COMDAT ??_C@_0P@JHOA@glClearStencil?$AA@
CONST	SEGMENT
??_C@_0P@JHOA@glClearStencil?$AA@ DB 'glClearStencil', 00H ; `string'
CONST	ENDS
;	COMDAT ??_C@_0M@GNEM@glIsEnabled?$AA@
CONST	SEGMENT
??_C@_0M@GNEM@glIsEnabled?$AA@ DB 'glIsEnabled', 00H	; `string'
CONST	ENDS
;	COMDAT ??_C@_08MENJ@glIsList?$AA@
CONST	SEGMENT
??_C@_08MENJ@glIsList?$AA@ DB 'glIsList', 00H		; `string'
CONST	ENDS
;	COMDAT ??_C@_0M@NCFH@glIsTexture?$AA@
CONST	SEGMENT
??_C@_0M@NCFH@glIsTexture?$AA@ DB 'glIsTexture', 00H	; `string'
CONST	ENDS
;	COMDAT ??_C@_09CJFG@glTexEnvf?$AA@
CONST	SEGMENT
??_C@_09CJFG@glTexEnvf?$AA@ DB 'glTexEnvf', 00H		; `string'
CONST	ENDS
;	COMDAT ??_C@_0L@IHAL@glTexEnvfv?$AA@
CONST	SEGMENT
??_C@_0L@IHAL@glTexEnvfv?$AA@ DB 'glTexEnvfv', 00H	; `string'
CONST	ENDS
;	COMDAT ??_C@_09CIAL@glTexEnvi?$AA@
CONST	SEGMENT
??_C@_09CIAL@glTexEnvi?$AA@ DB 'glTexEnvi', 00H		; `string'
CONST	ENDS
;	COMDAT ??_C@_0BA@CLDA@glTexParameterf?$AA@
CONST	SEGMENT
??_C@_0BA@CLDA@glTexParameterf?$AA@ DB 'glTexParameterf', 00H ; `string'
CONST	ENDS
;	COMDAT ??_C@_0BB@NJAJ@glTexParameterfv?$AA@
CONST	SEGMENT
??_C@_0BB@NJAJ@glTexParameterfv?$AA@ DB 'glTexParameterfv', 00H ; `string'
CONST	ENDS
;	COMDAT ??_C@_0BA@CKGN@glTexParameteri?$AA@
CONST	SEGMENT
??_C@_0BA@CKGN@glTexParameteri?$AA@ DB 'glTexParameteri', 00H ; `string'
CONST	ENDS
;	COMDAT ??_C@_06IKLF@glHint?$AA@
CONST	SEGMENT
??_C@_06IKLF@glHint?$AA@ DB 'glHint', 00H		; `string'
CONST	ENDS
;	COMDAT ??_C@_0O@ELGF@glPixelStoref?$AA@
CONST	SEGMENT
??_C@_0O@ELGF@glPixelStoref?$AA@ DB 'glPixelStoref', 00H ; `string'
CONST	ENDS
;	COMDAT ??_C@_0O@EKDI@glPixelStorei?$AA@
CONST	SEGMENT
??_C@_0O@EKDI@glPixelStorei?$AA@ DB 'glPixelStorei', 00H ; `string'
CONST	ENDS
;	COMDAT ??_C@_0O@DAHJ@glGenTextures?$AA@
CONST	SEGMENT
??_C@_0O@DAHJ@glGenTextures?$AA@ DB 'glGenTextures', 00H ; `string'
CONST	ENDS
;	COMDAT ??_C@_0BB@OKAI@glDeleteTextures?$AA@
CONST	SEGMENT
??_C@_0BB@OKAI@glDeleteTextures?$AA@ DB 'glDeleteTextures', 00H ; `string'
CONST	ENDS
;	COMDAT ??_C@_0O@NAMD@glBindTexture?$AA@
CONST	SEGMENT
??_C@_0O@NAMD@glBindTexture?$AA@ DB 'glBindTexture', 00H ; `string'
CONST	ENDS
;	COMDAT ??_C@_0N@LLDN@glTexImage1D?$AA@
CONST	SEGMENT
??_C@_0N@LLDN@glTexImage1D?$AA@ DB 'glTexImage1D', 00H	; `string'
CONST	ENDS
;	COMDAT ??_C@_0N@IAMC@glTexImage2D?$AA@
CONST	SEGMENT
??_C@_0N@IAMC@glTexImage2D?$AA@ DB 'glTexImage2D', 00H	; `string'
CONST	ENDS
;	COMDAT ??_C@_0BA@JOPC@glTexSubImage1D?$AA@
CONST	SEGMENT
??_C@_0BA@JOPC@glTexSubImage1D?$AA@ DB 'glTexSubImage1D', 00H ; `string'
CONST	ENDS
;	COMDAT ??_C@_0BA@KFAN@glTexSubImage2D?$AA@
CONST	SEGMENT
??_C@_0BA@KFAN@glTexSubImage2D?$AA@ DB 'glTexSubImage2D', 00H ; `string'
CONST	ENDS
;	COMDAT ??_C@_0BB@HNGB@glCopyTexImage1D?$AA@
CONST	SEGMENT
??_C@_0BB@HNGB@glCopyTexImage1D?$AA@ DB 'glCopyTexImage1D', 00H ; `string'
CONST	ENDS
;	COMDAT ??_C@_0BB@EGJO@glCopyTexImage2D?$AA@
CONST	SEGMENT
??_C@_0BB@EGJO@glCopyTexImage2D?$AA@ DB 'glCopyTexImage2D', 00H ; `string'
CONST	ENDS
;	COMDAT ??_C@_0BE@OMHF@glCopyTexSubImage1D?$AA@
CONST	SEGMENT
??_C@_0BE@OMHF@glCopyTexSubImage1D?$AA@ DB 'glCopyTexSubImage1D', 00H ; `string'
CONST	ENDS
;	COMDAT ??_C@_0BE@NHIK@glCopyTexSubImage2D?$AA@
CONST	SEGMENT
??_C@_0BE@NHIK@glCopyTexSubImage2D?$AA@ DB 'glCopyTexSubImage2D', 00H ; `string'
CONST	ENDS
;	COMDAT ??_C@_09HOGJ@glScissor?$AA@
CONST	SEGMENT
??_C@_09HOGJ@glScissor?$AA@ DB 'glScissor', 00H		; `string'
CONST	ENDS
;	COMDAT ??_C@_0O@HGPI@glGetTexImage?$AA@
CONST	SEGMENT
??_C@_0O@HGPI@glGetTexImage?$AA@ DB 'glGetTexImage', 00H ; `string'
CONST	ENDS
;	COMDAT ??_C@_0O@JDNI@glGetTexEnviv?$AA@
CONST	SEGMENT
??_C@_0O@JDNI@glGetTexEnviv?$AA@ DB 'glGetTexEnviv', 00H ; `string'
CONST	ENDS
;	COMDAT ??_C@_0BA@BALB@glPolygonOffset?$AA@
CONST	SEGMENT
??_C@_0BA@BALB@glPolygonOffset?$AA@ DB 'glPolygonOffset', 00H ; `string'
CONST	ENDS
;	COMDAT ??_C@_0O@FGKK@glPolygonMode?$AA@
CONST	SEGMENT
??_C@_0O@FGKK@glPolygonMode?$AA@ DB 'glPolygonMode', 00H ; `string'
CONST	ENDS
;	COMDAT ??_C@_0BB@FIOF@glPolygonStipple?$AA@
CONST	SEGMENT
??_C@_0BB@FIOF@glPolygonStipple?$AA@ DB 'glPolygonStipple', 00H ; `string'
CONST	ENDS
;	COMDAT ??_C@_0M@KLCG@glClipPlane?$AA@
CONST	SEGMENT
??_C@_0M@KLCG@glClipPlane?$AA@ DB 'glClipPlane', 00H	; `string'
CONST	ENDS
;	COMDAT ??_C@_0P@EAOG@glGetClipPlane?$AA@
CONST	SEGMENT
??_C@_0P@EAOG@glGetClipPlane?$AA@ DB 'glGetClipPlane', 00H ; `string'
CONST	ENDS
;	COMDAT ??_C@_0N@LIFO@glShadeModel?$AA@
CONST	SEGMENT
??_C@_0N@LIFO@glShadeModel?$AA@ DB 'glShadeModel', 00H	; `string'
CONST	ENDS
;	COMDAT ??_C@_0BJ@DLL@glGetTexLevelParameteriv?$AA@
CONST	SEGMENT
??_C@_0BJ@DLL@glGetTexLevelParameteriv?$AA@ DB 'glGetTexLevelParameteriv', 00H ; `string'
CONST	ENDS
;	COMDAT ??_C@_0BJ@NHLK@glGetTexLevelParameterfv?$AA@
CONST	SEGMENT
??_C@_0BJ@NHLK@glGetTexLevelParameterfv?$AA@ DB 'glGetTexLevelParameterfv'
	DB	00H						; `string'
CONST	ENDS
;	COMDAT ??_C@_07KOOO@glFogfv?$AA@
CONST	SEGMENT
??_C@_07KOOO@glFogfv?$AA@ DB 'glFogfv', 00H		; `string'
CONST	ENDS
;	COMDAT ??_C@_06MMBO@glFogf?$AA@
CONST	SEGMENT
??_C@_06MMBO@glFogf?$AA@ DB 'glFogf', 00H		; `string'
CONST	ENDS
;	COMDAT ??_C@_06MNED@glFogi?$AA@
CONST	SEGMENT
??_C@_06MNED@glFogi?$AA@ DB 'glFogi', 00H		; `string'
CONST	ENDS
;	COMDAT ??_C@_0BE@NEHK@glDrawRangeElements?$AA@
CONST	SEGMENT
??_C@_0BE@NEHK@glDrawRangeElements?$AA@ DB 'glDrawRangeElements', 00H ; `string'
CONST	ENDS
;	COMDAT ??_C@_0BH@DCHD@glDrawRangeElementsEXT?$AA@
CONST	SEGMENT
??_C@_0BH@DCHD@glDrawRangeElementsEXT?$AA@ DB 'glDrawRangeElementsEXT', 00H ; `string'
CONST	ENDS
;	COMDAT ??_C@_0BJ@CDAF@glDebugMessageControlARB?$AA@
CONST	SEGMENT
??_C@_0BJ@CDAF@glDebugMessageControlARB?$AA@ DB 'glDebugMessageControlARB'
	DB	00H						; `string'
CONST	ENDS
;	COMDAT ??_C@_0BI@NDFI@glDebugMessageInsertARB?$AA@
CONST	SEGMENT
??_C@_0BI@NDFI@glDebugMessageInsertARB?$AA@ DB 'glDebugMessageInsertARB', 00H ; `string'
CONST	ENDS
;	COMDAT ??_C@_0BK@CJJK@glDebugMessageCallbackARB?$AA@
CONST	SEGMENT
??_C@_0BK@CJJK@glDebugMessageCallbackARB?$AA@ DB 'glDebugMessageCallbackA'
	DB	'RB', 00H					; `string'
CONST	ENDS
;	COMDAT ??_C@_0BI@BALA@glGetDebugMessageLogARB?$AA@
CONST	SEGMENT
??_C@_0BI@BALA@glGetDebugMessageLogARB?$AA@ DB 'glGetDebugMessageLogARB', 00H ; `string'
CONST	ENDS
;	COMDAT ??_C@_0BF@JBHE@glMultiTexCoord1fARB?$AA@
CONST	SEGMENT
??_C@_0BF@JBHE@glMultiTexCoord1fARB?$AA@ DB 'glMultiTexCoord1fARB', 00H ; `string'
CONST	ENDS
;	COMDAT ??_C@_0BF@HBBL@glMultiTexCoord2fARB?$AA@
CONST	SEGMENT
??_C@_0BF@HBBL@glMultiTexCoord2fARB?$AA@ DB 'glMultiTexCoord2fARB', 00H ; `string'
CONST	ENDS
;	COMDAT ??_C@_0BF@NBDO@glMultiTexCoord3fARB?$AA@
CONST	SEGMENT
??_C@_0BF@NBDO@glMultiTexCoord3fARB?$AA@ DB 'glMultiTexCoord3fARB', 00H ; `string'
CONST	ENDS
;	COMDAT ??_C@_0BF@LBME@glMultiTexCoord4fARB?$AA@
CONST	SEGMENT
??_C@_0BF@LBME@glMultiTexCoord4fARB?$AA@ DB 'glMultiTexCoord4fARB', 00H ; `string'
CONST	ENDS
;	COMDAT ??_C@_0BD@IJD@glActiveTextureARB?$AA@
CONST	SEGMENT
??_C@_0BD@IJD@glActiveTextureARB?$AA@ DB 'glActiveTextureARB', 00H ; `string'
CONST	ENDS
;	COMDAT ??_C@_0BJ@NIEC@glClientActiveTextureARB?$AA@
CONST	SEGMENT
??_C@_0BJ@NIEC@glClientActiveTextureARB?$AA@ DB 'glClientActiveTextureARB'
	DB	00H						; `string'
CONST	ENDS
;	COMDAT ??_C@_0BA@LIMG@glTexImage3DEXT?$AA@
CONST	SEGMENT
??_C@_0BA@LIMG@glTexImage3DEXT?$AA@ DB 'glTexImage3DEXT', 00H ; `string'
CONST	ENDS
;	COMDAT ??_C@_0BD@EEOI@glTexSubImage3DEXT?$AA@
CONST	SEGMENT
??_C@_0BD@EEOI@glTexSubImage3DEXT?$AA@ DB 'glTexSubImage3DEXT', 00H ; `string'
CONST	ENDS
;	COMDAT ??_C@_0BH@EKCH@glCopyTexSubImage3DEXT?$AA@
CONST	SEGMENT
??_C@_0BH@EKCH@glCopyTexSubImage3DEXT?$AA@ DB 'glCopyTexSubImage3DEXT', 00H ; `string'
CONST	ENDS
;	COMDAT ??_C@_0BH@KH@glBlendFuncSeparateEXT?$AA@
CONST	SEGMENT
??_C@_0BH@KH@glBlendFuncSeparateEXT?$AA@ DB 'glBlendFuncSeparateEXT', 00H ; `string'
CONST	ENDS
;	COMDAT ??_C@_0BD@NDLE@glBlendEquationEXT?$AA@
CONST	SEGMENT
??_C@_0BD@NDLE@glBlendEquationEXT?$AA@ DB 'glBlendEquationEXT', 00H ; `string'
CONST	ENDS
;	COMDAT ??_C@_0BC@PIBE@glDeleteObjectARB?$AA@
CONST	SEGMENT
??_C@_0BC@PIBE@glDeleteObjectARB?$AA@ DB 'glDeleteObjectARB', 00H ; `string'
CONST	ENDS
;	COMDAT ??_C@_0P@GFKC@glGetHandleARB?$AA@
CONST	SEGMENT
??_C@_0P@GFKC@glGetHandleARB?$AA@ DB 'glGetHandleARB', 00H ; `string'
CONST	ENDS
;	COMDAT ??_C@_0BC@CBIF@glDetachObjectARB?$AA@
CONST	SEGMENT
??_C@_0BC@CBIF@glDetachObjectARB?$AA@ DB 'glDetachObjectARB', 00H ; `string'
CONST	ENDS
;	COMDAT ??_C@_0BI@EPLB@glCreateShaderObjectARB?$AA@
CONST	SEGMENT
??_C@_0BI@EPLB@glCreateShaderObjectARB?$AA@ DB 'glCreateShaderObjectARB', 00H ; `string'
CONST	ENDS
;	COMDAT ??_C@_0BC@NPKF@glShaderSourceARB?$AA@
CONST	SEGMENT
??_C@_0BC@NPKF@glShaderSourceARB?$AA@ DB 'glShaderSourceARB', 00H ; `string'
CONST	ENDS
;	COMDAT ??_C@_0BD@KHGH@glCompileShaderARB?$AA@
CONST	SEGMENT
??_C@_0BD@KHGH@glCompileShaderARB?$AA@ DB 'glCompileShaderARB', 00H ; `string'
CONST	ENDS
;	COMDAT ??_C@_0BJ@HCBE@glCreateProgramObjectARB?$AA@
CONST	SEGMENT
??_C@_0BJ@HCBE@glCreateProgramObjectARB?$AA@ DB 'glCreateProgramObjectARB'
	DB	00H						; `string'
CONST	ENDS
;	COMDAT ??_C@_0BC@EMOD@glAttachObjectARB?$AA@
CONST	SEGMENT
??_C@_0BC@EMOD@glAttachObjectARB?$AA@ DB 'glAttachObjectARB', 00H ; `string'
CONST	ENDS
;	COMDAT ??_C@_0BB@PIMF@glLinkProgramARB?$AA@
CONST	SEGMENT
??_C@_0BB@PIMF@glLinkProgramARB?$AA@ DB 'glLinkProgramARB', 00H ; `string'
CONST	ENDS
;	COMDAT ??_C@_0BG@IGNN@glUseProgramObjectARB?$AA@
CONST	SEGMENT
??_C@_0BG@IGNN@glUseProgramObjectARB?$AA@ DB 'glUseProgramObjectARB', 00H ; `string'
CONST	ENDS
;	COMDAT ??_C@_0BF@LMJF@glValidateProgramARB?$AA@
CONST	SEGMENT
??_C@_0BF@LMJF@glValidateProgramARB?$AA@ DB 'glValidateProgramARB', 00H ; `string'
CONST	ENDS
;	COMDAT ??_C@_0P@EEMG@glUniform1fARB?$AA@
CONST	SEGMENT
??_C@_0P@EEMG@glUniform1fARB?$AA@ DB 'glUniform1fARB', 00H ; `string'
CONST	ENDS
;	COMDAT ??_C@_0P@KEKJ@glUniform2fARB?$AA@
CONST	SEGMENT
??_C@_0P@KEKJ@glUniform2fARB?$AA@ DB 'glUniform2fARB', 00H ; `string'
CONST	ENDS
;	COMDAT ??_C@_0P@EIM@glUniform3fARB?$AA@
CONST	SEGMENT
??_C@_0P@EIM@glUniform3fARB?$AA@ DB 'glUniform3fARB', 00H ; `string'
CONST	ENDS
;	COMDAT ??_C@_0P@GEHG@glUniform4fARB?$AA@
CONST	SEGMENT
??_C@_0P@GEHG@glUniform4fARB?$AA@ DB 'glUniform4fARB', 00H ; `string'
CONST	ENDS
;	COMDAT ??_C@_0P@JEOI@glUniform1iARB?$AA@
CONST	SEGMENT
??_C@_0P@JEOI@glUniform1iARB?$AA@ DB 'glUniform1iARB', 00H ; `string'
CONST	ENDS
;	COMDAT ??_C@_0P@HEIH@glUniform2iARB?$AA@
CONST	SEGMENT
??_C@_0P@HEIH@glUniform2iARB?$AA@ DB 'glUniform2iARB', 00H ; `string'
CONST	ENDS
;	COMDAT ??_C@_0P@NEKC@glUniform3iARB?$AA@
CONST	SEGMENT
??_C@_0P@NEKC@glUniform3iARB?$AA@ DB 'glUniform3iARB', 00H ; `string'
CONST	ENDS
;	COMDAT ??_C@_0P@LEFI@glUniform4iARB?$AA@
CONST	SEGMENT
??_C@_0P@LEFI@glUniform4iARB?$AA@ DB 'glUniform4iARB', 00H ; `string'
CONST	ENDS
;	COMDAT ??_C@_0BA@NAIP@glUniform1fvARB?$AA@
CONST	SEGMENT
??_C@_0BA@NAIP@glUniform1fvARB?$AA@ DB 'glUniform1fvARB', 00H ; `string'
CONST	ENDS
;	COMDAT ??_C@_0BA@GOGP@glUniform2fvARB?$AA@
CONST	SEGMENT
??_C@_0BA@GOGP@glUniform2fvARB?$AA@ DB 'glUniform2fvARB', 00H ; `string'
CONST	ENDS
;	COMDAT ??_C@_0BA@PLMP@glUniform3fvARB?$AA@
CONST	SEGMENT
??_C@_0BA@PLMP@glUniform3fvARB?$AA@ DB 'glUniform3fvARB', 00H ; `string'
CONST	ENDS
;	COMDAT ??_C@_0BA@BDKP@glUniform4fvARB?$AA@
CONST	SEGMENT
??_C@_0BA@BDKP@glUniform4fvARB?$AA@ DB 'glUniform4fvARB', 00H ; `string'
CONST	ENDS
;	COMDAT ??_C@_0BA@LBFP@glUniform1ivARB?$AA@
CONST	SEGMENT
??_C@_0BA@LBFP@glUniform1ivARB?$AA@ DB 'glUniform1ivARB', 00H ; `string'
CONST	ENDS
;	COMDAT ??_C@_0BA@PLP@glUniform2ivARB?$AA@
CONST	SEGMENT
??_C@_0BA@PLP@glUniform2ivARB?$AA@ DB 'glUniform2ivARB', 00H ; `string'
CONST	ENDS
;	COMDAT ??_C@_0BA@JKBP@glUniform3ivARB?$AA@
CONST	SEGMENT
??_C@_0BA@JKBP@glUniform3ivARB?$AA@ DB 'glUniform3ivARB', 00H ; `string'
CONST	ENDS
;	COMDAT ??_C@_0BA@HCHP@glUniform4ivARB?$AA@
CONST	SEGMENT
??_C@_0BA@HCHP@glUniform4ivARB?$AA@ DB 'glUniform4ivARB', 00H ; `string'
CONST	ENDS
;	COMDAT ??_C@_0BG@HEBC@glUniformMatrix2fvARB?$AA@
CONST	SEGMENT
??_C@_0BG@HEBC@glUniformMatrix2fvARB?$AA@ DB 'glUniformMatrix2fvARB', 00H ; `string'
CONST	ENDS
;	COMDAT ??_C@_0BG@OBLC@glUniformMatrix3fvARB?$AA@
CONST	SEGMENT
??_C@_0BG@OBLC@glUniformMatrix3fvARB?$AA@ DB 'glUniformMatrix3fvARB', 00H ; `string'
CONST	ENDS
;	COMDAT ??_C@_0BG@JNC@glUniformMatrix4fvARB?$AA@
CONST	SEGMENT
??_C@_0BG@JNC@glUniformMatrix4fvARB?$AA@ DB 'glUniformMatrix4fvARB', 00H ; `string'
CONST	ENDS
;	COMDAT ??_C@_0BK@LDGO@glGetObjectParameterfvARB?$AA@
CONST	SEGMENT
??_C@_0BK@LDGO@glGetObjectParameterfvARB?$AA@ DB 'glGetObjectParameterfvA'
	DB	'RB', 00H					; `string'
CONST	ENDS
;	COMDAT ??_C@_0BK@NCLO@glGetObjectParameterivARB?$AA@
CONST	SEGMENT
??_C@_0BK@NCLO@glGetObjectParameterivARB?$AA@ DB 'glGetObjectParameterivA'
	DB	'RB', 00H					; `string'
CONST	ENDS
;	COMDAT ??_C@_0BA@CMKF@glGetInfoLogARB?$AA@
CONST	SEGMENT
??_C@_0BA@CMKF@glGetInfoLogARB?$AA@ DB 'glGetInfoLogARB', 00H ; `string'
CONST	ENDS
;	COMDAT ??_C@_0BI@GBKL@glGetAttachedObjectsARB?$AA@
CONST	SEGMENT
??_C@_0BI@GBKL@glGetAttachedObjectsARB?$AA@ DB 'glGetAttachedObjectsARB', 00H ; `string'
CONST	ENDS
;	COMDAT ??_C@_0BI@IDLL@glGetUniformLocationARB?$AA@
CONST	SEGMENT
??_C@_0BI@IDLL@glGetUniformLocationARB?$AA@ DB 'glGetUniformLocationARB', 00H ; `string'
CONST	ENDS
;	COMDAT ??_C@_0BG@JFEH@glGetActiveUniformARB?$AA@
CONST	SEGMENT
??_C@_0BG@JFEH@glGetActiveUniformARB?$AA@ DB 'glGetActiveUniformARB', 00H ; `string'
CONST	ENDS
;	COMDAT ??_C@_0BC@MDDE@glGetUniformfvARB?$AA@
CONST	SEGMENT
??_C@_0BC@MDDE@glGetUniformfvARB?$AA@ DB 'glGetUniformfvARB', 00H ; `string'
CONST	ENDS
;	COMDAT ??_C@_0BC@KCOE@glGetUniformivARB?$AA@
CONST	SEGMENT
??_C@_0BC@KCOE@glGetUniformivARB?$AA@ DB 'glGetUniformivARB', 00H ; `string'
CONST	ENDS
;	COMDAT ??_C@_0BF@DFJL@glGetShaderSourceARB?$AA@
CONST	SEGMENT
??_C@_0BF@DFJL@glGetShaderSourceARB?$AA@ DB 'glGetShaderSourceARB', 00H ; `string'
CONST	ENDS
;	COMDAT ??_C@_0BJ@BPFA@glVertexAttribPointerARB?$AA@
CONST	SEGMENT
??_C@_0BJ@BPFA@glVertexAttribPointerARB?$AA@ DB 'glVertexAttribPointerARB'
	DB	00H						; `string'
CONST	ENDS
;	COMDAT ??_C@_0BN@DJDP@glEnableVertexAttribArrayARB?$AA@
CONST	SEGMENT
??_C@_0BN@DJDP@glEnableVertexAttribArrayARB?$AA@ DB 'glEnableVertexAttrib'
	DB	'ArrayARB', 00H				; `string'
CONST	ENDS
;	COMDAT ??_C@_0BO@IOBM@glDisableVertexAttribArrayARB?$AA@
CONST	SEGMENT
??_C@_0BO@IOBM@glDisableVertexAttribArrayARB?$AA@ DB 'glDisableVertexAttr'
	DB	'ibArrayARB', 00H				; `string'
CONST	ENDS
;	COMDAT ??_C@_0BI@IPDI@glBindAttribLocationARB?$AA@
CONST	SEGMENT
??_C@_0BI@IPDI@glBindAttribLocationARB?$AA@ DB 'glBindAttribLocationARB', 00H ; `string'
CONST	ENDS
;	COMDAT ??_C@_0BF@CFAG@glGetActiveAttribARB?$AA@
CONST	SEGMENT
??_C@_0BF@CFAG@glGetActiveAttribARB?$AA@ DB 'glGetActiveAttribARB', 00H ; `string'
CONST	ENDS
;	COMDAT ??_C@_0BH@LMPE@glGetAttribLocationARB?$AA@
CONST	SEGMENT
??_C@_0BH@LMPE@glGetAttribLocationARB?$AA@ DB 'glGetAttribLocationARB', 00H ; `string'
CONST	ENDS
;	COMDAT ??_C@_0BB@GLJM@glVertexAttrib2f?$AA@
CONST	SEGMENT
??_C@_0BB@GLJM@glVertexAttrib2f?$AA@ DB 'glVertexAttrib2f', 00H ; `string'
CONST	ENDS
;	COMDAT ??_C@_0BC@OEEJ@glVertexAttrib2fv?$AA@
CONST	SEGMENT
??_C@_0BC@OEEJ@glVertexAttrib2fv?$AA@ DB 'glVertexAttrib2fv', 00H ; `string'
CONST	ENDS
;	COMDAT ??_C@_0BC@LGFP@glVertexAttrib3fv?$AA@
CONST	SEGMENT
??_C@_0BC@LGFP@glVertexAttrib3fv?$AA@ DB 'glVertexAttrib3fv', 00H ; `string'
CONST	ENDS
;	COMDAT ??_C@_0BB@BMGD@glVertexAttrib4f?$AA@
CONST	SEGMENT
??_C@_0BB@BMGD@glVertexAttrib4f?$AA@ DB 'glVertexAttrib4f', 00H ; `string'
CONST	ENDS
;	COMDAT ??_C@_0BC@IDO@glVertexAttrib4fv?$AA@
CONST	SEGMENT
??_C@_0BC@IDO@glVertexAttrib4fv?$AA@ DB 'glVertexAttrib4fv', 00H ; `string'
CONST	ENDS
;	COMDAT ??_C@_0BD@IMHI@glVertexAttrib4ubv?$AA@
CONST	SEGMENT
??_C@_0BD@IMHI@glVertexAttrib4ubv?$AA@ DB 'glVertexAttrib4ubv', 00H ; `string'
CONST	ENDS
;	COMDAT ??_C@_0BA@DLFE@glBindBufferARB?$AA@
CONST	SEGMENT
??_C@_0BA@DLFE@glBindBufferARB?$AA@ DB 'glBindBufferARB', 00H ; `string'
CONST	ENDS
;	COMDAT ??_C@_0BD@NMOF@glDeleteBuffersARB?$AA@
CONST	SEGMENT
??_C@_0BD@NMOF@glDeleteBuffersARB?$AA@ DB 'glDeleteBuffersARB', 00H ; `string'
CONST	ENDS
;	COMDAT ??_C@_0BA@KOEM@glGenBuffersARB?$AA@
CONST	SEGMENT
??_C@_0BA@KOEM@glGenBuffersARB?$AA@ DB 'glGenBuffersARB', 00H ; `string'
CONST	ENDS
;	COMDAT ??_C@_0O@GDII@glIsBufferARB?$AA@
CONST	SEGMENT
??_C@_0O@GDII@glIsBufferARB?$AA@ DB 'glIsBufferARB', 00H ; `string'
CONST	ENDS
;	COMDAT ??_C@_0P@CBOK@glMapBufferARB?$AA@
CONST	SEGMENT
??_C@_0P@CBOK@glMapBufferARB?$AA@ DB 'glMapBufferARB', 00H ; `string'
CONST	ENDS
;	COMDAT ??_C@_0BB@DPNF@glUnmapBufferARB?$AA@
CONST	SEGMENT
??_C@_0BB@DPNF@glUnmapBufferARB?$AA@ DB 'glUnmapBufferARB', 00H ; `string'
CONST	ENDS
;	COMDAT ??_C@_0BA@HHJE@glBufferDataARB?$AA@
CONST	SEGMENT
??_C@_0BA@HHJE@glBufferDataARB?$AA@ DB 'glBufferDataARB', 00H ; `string'
CONST	ENDS
;	COMDAT ??_C@_0BD@FIPI@glBufferSubDataARB?$AA@
CONST	SEGMENT
??_C@_0BD@FIPI@glBufferSubDataARB?$AA@ DB 'glBufferSubDataARB', 00H ; `string'
CONST	ENDS
;	COMDAT ??_C@_0BC@GKBG@glBindVertexArray?$AA@
CONST	SEGMENT
??_C@_0BC@GKBG@glBindVertexArray?$AA@ DB 'glBindVertexArray', 00H ; `string'
CONST	ENDS
;	COMDAT ??_C@_0BF@LBKN@glDeleteVertexArrays?$AA@
CONST	SEGMENT
??_C@_0BF@LBKN@glDeleteVertexArrays?$AA@ DB 'glDeleteVertexArrays', 00H ; `string'
CONST	ENDS
;	COMDAT ??_C@_0BC@HLGE@glGenVertexArrays?$AA@
CONST	SEGMENT
??_C@_0BC@HLGE@glGenVertexArrays?$AA@ DB 'glGenVertexArrays', 00H ; `string'
CONST	ENDS
;	COMDAT ??_C@_0BA@BCOG@glIsVertexArray?$AA@
CONST	SEGMENT
??_C@_0BA@BCOG@glIsVertexArray?$AA@ DB 'glIsVertexArray', 00H ; `string'
CONST	ENDS
;	COMDAT ??_C@_0BB@GNLM@glIsRenderbuffer?$AA@
CONST	SEGMENT
??_C@_0BB@GNLM@glIsRenderbuffer?$AA@ DB 'glIsRenderbuffer', 00H ; `string'
CONST	ENDS
;	COMDAT ??_C@_0BD@KHME@glBindRenderbuffer?$AA@
CONST	SEGMENT
??_C@_0BD@KHME@glBindRenderbuffer?$AA@ DB 'glBindRenderbuffer', 00H ; `string'
CONST	ENDS
;	COMDAT ??_C@_0BG@KCGE@glDeleteRenderbuffers?$AA@
CONST	SEGMENT
??_C@_0BG@KCGE@glDeleteRenderbuffers?$AA@ DB 'glDeleteRenderbuffers', 00H ; `string'
CONST	ENDS
;	COMDAT ??_C@_0BD@PMKO@glGenRenderbuffers?$AA@
CONST	SEGMENT
??_C@_0BD@PMKO@glGenRenderbuffers?$AA@ DB 'glGenRenderbuffers', 00H ; `string'
CONST	ENDS
;	COMDAT ??_C@_0BG@HFLO@glRenderbufferStorage?$AA@
CONST	SEGMENT
??_C@_0BG@HFLO@glRenderbufferStorage?$AA@ DB 'glRenderbufferStorage', 00H ; `string'
CONST	ENDS
;	COMDAT ??_C@_0BN@IIKB@glGetRenderbufferParameteriv?$AA@
CONST	SEGMENT
??_C@_0BN@IIKB@glGetRenderbufferParameteriv?$AA@ DB 'glGetRenderbufferPar'
	DB	'ameteriv', 00H				; `string'
CONST	ENDS
;	COMDAT ??_C@_0BA@CED@glIsFramebuffer?$AA@
CONST	SEGMENT
??_C@_0BA@CED@glIsFramebuffer?$AA@ DB 'glIsFramebuffer', 00H ; `string'
CONST	ENDS
;	COMDAT ??_C@_0BC@HKLD@glBindFramebuffer?$AA@
CONST	SEGMENT
??_C@_0BC@HKLD@glBindFramebuffer?$AA@ DB 'glBindFramebuffer', 00H ; `string'
CONST	ENDS
;	COMDAT ??_C@_0BF@DGLN@glDeleteFramebuffers?$AA@
CONST	SEGMENT
??_C@_0BF@DGLN@glDeleteFramebuffers?$AA@ DB 'glDeleteFramebuffers', 00H ; `string'
CONST	ENDS
;	COMDAT ??_C@_0BC@PMHE@glGenFramebuffers?$AA@
CONST	SEGMENT
??_C@_0BC@PMHE@glGenFramebuffers?$AA@ DB 'glGenFramebuffers', 00H ; `string'
CONST	ENDS
;	COMDAT ??_C@_0BJ@JLAM@glCheckFramebufferStatus?$AA@
CONST	SEGMENT
??_C@_0BJ@JLAM@glCheckFramebufferStatus?$AA@ DB 'glCheckFramebufferStatus'
	DB	00H						; `string'
CONST	ENDS
;	COMDAT ??_C@_0BH@ECGF@glFramebufferTexture1D?$AA@
CONST	SEGMENT
??_C@_0BH@ECGF@glFramebufferTexture1D?$AA@ DB 'glFramebufferTexture1D', 00H ; `string'
CONST	ENDS
;	COMDAT ??_C@_0BH@HJJK@glFramebufferTexture2D?$AA@
CONST	SEGMENT
??_C@_0BH@HJJK@glFramebufferTexture2D?$AA@ DB 'glFramebufferTexture2D', 00H ; `string'
CONST	ENDS
;	COMDAT ??_C@_0BH@GPDA@glFramebufferTexture3D?$AA@
CONST	SEGMENT
??_C@_0BH@GPDA@glFramebufferTexture3D?$AA@ DB 'glFramebufferTexture3D', 00H ; `string'
CONST	ENDS
;	COMDAT ??_C@_0BK@JPJE@glFramebufferRenderbuffer?$AA@
CONST	SEGMENT
??_C@_0BK@JPJE@glFramebufferRenderbuffer?$AA@ DB 'glFramebufferRenderbuff'
	DB	'er', 00H					; `string'
CONST	ENDS
;	COMDAT ??_C@_0CG@CBFL@glGetFramebufferAttachmentParame@
CONST	SEGMENT
??_C@_0CG@CBFL@glGetFramebufferAttachmentParame@ DB 'glGetFramebufferAtta'
	DB	'chmentParameteriv', 00H			; `string'
CONST	ENDS
;	COMDAT ??_C@_0BB@OJAP@glGenerateMipmap?$AA@
CONST	SEGMENT
??_C@_0BB@OJAP@glGenerateMipmap?$AA@ DB 'glGenerateMipmap', 00H ; `string'
CONST	ENDS
;	COMDAT ??_C@_0BA@NAHP@glGenQueriesARB?$AA@
CONST	SEGMENT
??_C@_0BA@NAHP@glGenQueriesARB?$AA@ DB 'glGenQueriesARB', 00H ; `string'
CONST	ENDS
;	COMDAT ??_C@_0BD@KCNG@glDeleteQueriesARB?$AA@
CONST	SEGMENT
??_C@_0BD@KCNG@glDeleteQueriesARB?$AA@ DB 'glDeleteQueriesARB', 00H ; `string'
CONST	ENDS
;	COMDAT ??_C@_0N@IHPM@glIsQueryARB?$AA@
CONST	SEGMENT
??_C@_0N@IHPM@glIsQueryARB?$AA@ DB 'glIsQueryARB', 00H	; `string'
CONST	ENDS
;	COMDAT ??_C@_0BA@OHED@glBeginQueryARB?$AA@
CONST	SEGMENT
??_C@_0BA@OHED@glBeginQueryARB?$AA@ DB 'glBeginQueryARB', 00H ; `string'
CONST	ENDS
;	COMDAT ??_C@_0O@ENCE@glEndQueryARB?$AA@
CONST	SEGMENT
??_C@_0O@ENCE@glEndQueryARB?$AA@ DB 'glEndQueryARB', 00H ; `string'
CONST	ENDS
;	COMDAT ??_C@_0BA@JCEF@glGetQueryivARB?$AA@
CONST	SEGMENT
??_C@_0BA@JCEF@glGetQueryivARB?$AA@ DB 'glGetQueryivARB', 00H ; `string'
CONST	ENDS
;	COMDAT ??_C@_0BG@LEAK@glGetQueryObjectivARB?$AA@
CONST	SEGMENT
??_C@_0BG@LEAK@glGetQueryObjectivARB?$AA@ DB 'glGetQueryObjectivARB', 00H ; `string'
CONST	ENDS
;	COMDAT ??_C@_0BH@OAHJ@glGetQueryObjectuivARB?$AA@
CONST	SEGMENT
??_C@_0BH@OAHJ@glGetQueryObjectuivARB?$AA@ DB 'glGetQueryObjectuivARB', 00H ; `string'
CONST	ENDS
PUBLIC	??_H@YGXPAXIHP6EX0@Z@Z				; `vector constructor iterator'
;	COMDAT ??_H@YGXPAXIHP6EX0@Z@Z
_TEXT	SEGMENT
___t$ = 8
___s$ = 12
___n$ = 16
___f$ = 20
??_H@YGXPAXIHP6EX0@Z@Z PROC NEAR			; `vector constructor iterator', COMDAT
	push	ebp
	mov	ebp, esp
	sub	esp, 64					; 00000040H
	push	ebx
	push	esi
	push	edi
$L55257:
	mov	eax, DWORD PTR ___n$[ebp]
	sub	eax, 1
	mov	DWORD PTR ___n$[ebp], eax
	cmp	DWORD PTR ___n$[ebp], 0
	jl	SHORT $L55258
	mov	ecx, DWORD PTR ___t$[ebp]
	call	DWORD PTR ___f$[ebp]
	mov	ecx, DWORD PTR ___t$[ebp]
	add	ecx, DWORD PTR ___s$[ebp]
	mov	DWORD PTR ___t$[ebp], ecx
	jmp	SHORT $L55257
$L55258:
	pop	edi
	pop	esi
	pop	ebx
	mov	esp, ebp
	pop	ebp
	ret	16					; 00000010H
??_H@YGXPAXIHP6EX0@Z@Z ENDP				; `vector constructor iterator'
_TEXT	ENDS
;	COMDAT _$E14
_TEXT	SEGMENT
_$E14	PROC NEAR					; COMDAT
	push	ebp
	mov	ebp, esp
	sub	esp, 64					; 00000040H
	push	ebx
	push	esi
	push	edi
	call	_$E13
	pop	edi
	pop	esi
	pop	ebx
	mov	esp, ebp
	pop	ebp
	ret	0
_$E14	ENDP
_TEXT	ENDS
PUBLIC	??0glState_t@@QAE@XZ				; glState_t::glState_t
;	COMDAT _$E13
_TEXT	SEGMENT
_$E13	PROC NEAR					; COMDAT

; 27   : glState_t		glState;

	push	ebp
	mov	ebp, esp
	sub	esp, 64					; 00000040H
	push	ebx
	push	esi
	push	edi
	mov	ecx, OFFSET FLAT:?glState@@3UglState_t@@A
	call	??0glState_t@@QAE@XZ			; glState_t::glState_t
	pop	edi
	pop	esi
	pop	ebx
	mov	esp, ebp
	pop	ebp
	ret	0
_$E13	ENDP
_TEXT	ENDS
PUBLIC	??0ref_instance_t@@QAE@XZ			; ref_instance_t::ref_instance_t
;	COMDAT ??0glState_t@@QAE@XZ
_TEXT	SEGMENT
_this$ = -4
??0glState_t@@QAE@XZ PROC NEAR				; glState_t::glState_t, COMDAT
	push	ebp
	mov	ebp, esp
	sub	esp, 68					; 00000044H
	push	ebx
	push	esi
	push	edi
	mov	DWORD PTR _this$[ebp], ecx
	push	OFFSET FLAT:??0ref_instance_t@@QAE@XZ	; ref_instance_t::ref_instance_t
	push	8
	push	14020					; 000036c4H
	mov	eax, DWORD PTR _this$[ebp]
	add	eax, 40					; 00000028H
	push	eax
	call	??_H@YGXPAXIHP6EX0@Z@Z			; `vector constructor iterator'
	mov	eax, DWORD PTR _this$[ebp]
	pop	edi
	pop	esi
	pop	ebx
	mov	esp, ebp
	pop	ebp
	ret	0
??0glState_t@@QAE@XZ ENDP				; glState_t::glState_t
_TEXT	ENDS
PUBLIC	??0mplane_s@@QAE@XZ				; mplane_s::mplane_s
PUBLIC	??0Vector@@QAE@XZ				; Vector::Vector
PUBLIC	??0CFrustum@@QAE@XZ				; CFrustum::CFrustum
EXTRN	??0matrix4x4@@QAE@XZ:NEAR			; matrix4x4::matrix4x4
;	COMDAT ??0ref_instance_t@@QAE@XZ
_TEXT	SEGMENT
_this$ = -4
??0ref_instance_t@@QAE@XZ PROC NEAR			; ref_instance_t::ref_instance_t, COMDAT
	push	ebp
	mov	ebp, esp
	sub	esp, 68					; 00000044H
	push	ebx
	push	esi
	push	edi
	mov	DWORD PTR _this$[ebp], ecx
	mov	ecx, DWORD PTR _this$[ebp]
	add	ecx, 48					; 00000030H
	call	??0CFrustum@@QAE@XZ			; CFrustum::CFrustum
	mov	ecx, DWORD PTR _this$[ebp]
	add	ecx, 180				; 000000b4H
	call	??0Vector@@QAE@XZ			; Vector::Vector
	mov	ecx, DWORD PTR _this$[ebp]
	add	ecx, 192				; 000000c0H
	call	??0Vector@@QAE@XZ			; Vector::Vector
	mov	ecx, DWORD PTR _this$[ebp]
	add	ecx, 204				; 000000ccH
	call	??0Vector@@QAE@XZ			; Vector::Vector
	mov	ecx, DWORD PTR _this$[ebp]
	add	ecx, 216				; 000000d8H
	call	??0Vector@@QAE@XZ			; Vector::Vector
	mov	ecx, DWORD PTR _this$[ebp]
	add	ecx, 228				; 000000e4H
	call	??0Vector@@QAE@XZ			; Vector::Vector
	mov	ecx, DWORD PTR _this$[ebp]
	add	ecx, 240				; 000000f0H
	call	??0Vector@@QAE@XZ			; Vector::Vector
	mov	ecx, DWORD PTR _this$[ebp]
	add	ecx, 352				; 00000160H
	call	??0matrix4x4@@QAE@XZ			; matrix4x4::matrix4x4
	mov	ecx, DWORD PTR _this$[ebp]
	add	ecx, 416				; 000001a0H
	call	??0matrix4x4@@QAE@XZ			; matrix4x4::matrix4x4
	mov	ecx, DWORD PTR _this$[ebp]
	add	ecx, 480				; 000001e0H
	call	??0matrix4x4@@QAE@XZ			; matrix4x4::matrix4x4
	mov	ecx, DWORD PTR _this$[ebp]
	add	ecx, 544				; 00000220H
	call	??0matrix4x4@@QAE@XZ			; matrix4x4::matrix4x4
	mov	ecx, DWORD PTR _this$[ebp]
	add	ecx, 608				; 00000260H
	call	??0matrix4x4@@QAE@XZ			; matrix4x4::matrix4x4
	mov	ecx, DWORD PTR _this$[ebp]
	add	ecx, 14000				; 000036b0H
	call	??0mplane_s@@QAE@XZ			; mplane_s::mplane_s
	mov	eax, DWORD PTR _this$[ebp]
	pop	edi
	pop	esi
	pop	ebx
	mov	esp, ebp
	pop	ebp
	ret	0
??0ref_instance_t@@QAE@XZ ENDP				; ref_instance_t::ref_instance_t
_TEXT	ENDS
;	COMDAT ??0Vector@@QAE@XZ
_TEXT	SEGMENT
_this$ = -4
??0Vector@@QAE@XZ PROC NEAR				; Vector::Vector, COMDAT

; 134  : 	inline Vector(void)				{ }

	push	ebp
	mov	ebp, esp
	sub	esp, 68					; 00000044H
	push	ebx
	push	esi
	push	edi
	mov	DWORD PTR _this$[ebp], ecx
	mov	eax, DWORD PTR _this$[ebp]
	pop	edi
	pop	esi
	pop	ebx
	mov	esp, ebp
	pop	ebp
	ret	0
??0Vector@@QAE@XZ ENDP					; Vector::Vector
_TEXT	ENDS
;	COMDAT ??0CFrustum@@QAE@XZ
_TEXT	SEGMENT
_this$ = -4
??0CFrustum@@QAE@XZ PROC NEAR				; CFrustum::CFrustum, COMDAT
	push	ebp
	mov	ebp, esp
	sub	esp, 68					; 00000044H
	push	ebx
	push	esi
	push	edi
	mov	DWORD PTR _this$[ebp], ecx
	push	OFFSET FLAT:??0mplane_s@@QAE@XZ		; mplane_s::mplane_s
	push	6
	push	20					; 00000014H
	mov	eax, DWORD PTR _this$[ebp]
	push	eax
	call	??_H@YGXPAXIHP6EX0@Z@Z			; `vector constructor iterator'
	mov	eax, DWORD PTR _this$[ebp]
	pop	edi
	pop	esi
	pop	ebx
	mov	esp, ebp
	pop	ebp
	ret	0
??0CFrustum@@QAE@XZ ENDP				; CFrustum::CFrustum
_TEXT	ENDS
;	COMDAT ??0mplane_s@@QAE@XZ
_TEXT	SEGMENT
_this$ = -4
??0mplane_s@@QAE@XZ PROC NEAR				; mplane_s::mplane_s, COMDAT
	push	ebp
	mov	ebp, esp
	sub	esp, 68					; 00000044H
	push	ebx
	push	esi
	push	edi
	mov	DWORD PTR _this$[ebp], ecx
	mov	ecx, DWORD PTR _this$[ebp]
	call	??0Vector@@QAE@XZ			; Vector::Vector
	mov	eax, DWORD PTR _this$[ebp]
	pop	edi
	pop	esi
	pop	ebx
	mov	esp, ebp
	pop	ebp
	ret	0
??0mplane_s@@QAE@XZ ENDP				; mplane_s::mplane_s
_TEXT	ENDS
PUBLIC	?GL_SetExtension@@YAXHH@Z			; GL_SetExtension
PUBLIC	??_C@_0CH@GGOC@GL_SetExtension?3?5invalid?5extensi@ ; `string'
EXTRN	?ALERT@@YAXW4ALERT_TYPE@@PADZZ:NEAR		; ALERT
;	COMDAT ??_C@_0CH@GGOC@GL_SetExtension?3?5invalid?5extensi@
; File z:\xashxtsrc\client\render\r_opengl.cpp
CONST	SEGMENT
??_C@_0CH@GGOC@GL_SetExtension?3?5invalid?5extensi@ DB 'GL_SetExtension: '
	DB	'invalid extension %d', 0aH, 00H		; `string'
CONST	ENDS
;	COMDAT ?GL_SetExtension@@YAXHH@Z
_TEXT	SEGMENT
_r_ext$ = 8
_enable$ = 12
?GL_SetExtension@@YAXHH@Z PROC NEAR			; GL_SetExtension, COMDAT

; 380  : {

	push	ebp
	mov	ebp, esp
	sub	esp, 64					; 00000040H
	push	ebx
	push	esi
	push	edi

; 381  : 	if( r_ext >= 0 && r_ext < R_EXTCOUNT )

	cmp	DWORD PTR _r_ext$[ebp], 0
	jl	SHORT $L71696
	cmp	DWORD PTR _r_ext$[ebp], 20		; 00000014H
	jge	SHORT $L71696

; 382  : 		glConfig.extension[r_ext] = enable ? GL_TRUE : GL_FALSE;

	xor	eax, eax
	cmp	DWORD PTR _enable$[ebp], 0
	setne	al
	mov	ecx, DWORD PTR _r_ext$[ebp]
	mov	BYTE PTR ?glConfig@@3UglConfig_t@@A[ecx+20], al

; 383  : 	else ALERT( at_error, "GL_SetExtension: invalid extension %d\n", r_ext );

	jmp	SHORT $L71697
$L71696:
	mov	edx, DWORD PTR _r_ext$[ebp]
	push	edx
	push	OFFSET FLAT:??_C@_0CH@GGOC@GL_SetExtension?3?5invalid?5extensi@ ; `string'
	push	4
	call	?ALERT@@YAXW4ALERT_TYPE@@PADZZ		; ALERT
	add	esp, 12					; 0000000cH
$L71697:

; 384  : }

	pop	edi
	pop	esi
	pop	ebx
	mov	esp, ebp
	pop	ebp
	ret	0
?GL_SetExtension@@YAXHH@Z ENDP				; GL_SetExtension
_TEXT	ENDS
PUBLIC	??_C@_0CC@FBCI@GL_Support?3?5invalid?5extension?5?$CFd@ ; `string'
PUBLIC	?GL_Support@@YA_NH@Z				; GL_Support
;	COMDAT ??_C@_0CC@FBCI@GL_Support?3?5invalid?5extension?5?$CFd@
; File z:\xashxtsrc\client\render\r_opengl.cpp
CONST	SEGMENT
??_C@_0CC@FBCI@GL_Support?3?5invalid?5extension?5?$CFd@ DB 'GL_Support: i'
	DB	'nvalid extension %d', 0aH, 00H		; `string'
CONST	ENDS
;	COMDAT ?GL_Support@@YA_NH@Z
_TEXT	SEGMENT
_r_ext$ = 8
?GL_Support@@YA_NH@Z PROC NEAR				; GL_Support, COMDAT

; 392  : {

	push	ebp
	mov	ebp, esp
	sub	esp, 64					; 00000040H
	push	ebx
	push	esi
	push	edi

; 393  : 	if( r_ext >= 0 && r_ext < R_EXTCOUNT )

	cmp	DWORD PTR _r_ext$[ebp], 0
	jl	SHORT $L71702
	cmp	DWORD PTR _r_ext$[ebp], 20		; 00000014H
	jge	SHORT $L71702

; 394  : 		return glConfig.extension[r_ext] ? true : false;

	mov	eax, DWORD PTR _r_ext$[ebp]
	xor	ecx, ecx
	mov	cl, BYTE PTR ?glConfig@@3UglConfig_t@@A[eax+20]
	test	ecx, ecx
	setne	al
	jmp	SHORT $L71701
$L71702:

; 395  : 	ALERT( at_error, "GL_Support: invalid extension %d\n", r_ext );

	mov	edx, DWORD PTR _r_ext$[ebp]
	push	edx
	push	OFFSET FLAT:??_C@_0CC@FBCI@GL_Support?3?5invalid?5extension?5?$CFd@ ; `string'
	push	4
	call	?ALERT@@YAXW4ALERT_TYPE@@PADZZ		; ALERT
	add	esp, 12					; 0000000cH

; 396  : 	return false;		

	xor	al, al
$L71701:

; 397  : }

	pop	edi
	pop	esi
	pop	ebx
	mov	esp, ebp
	pop	ebp
	ret	0
?GL_Support@@YA_NH@Z ENDP				; GL_Support
_TEXT	ENDS
PUBLIC	?GL_CheckExtension@@YAXPBDPBUdllfunc_s@@0H_N@Z	; GL_CheckExtension
PUBLIC	??_C@_0BH@IELL@GL_CheckExtension?3?5?$CFs?5?$AA@ ; `string'
PUBLIC	??_C@_0M@JGAI@?9?5?$FO1failed?6?$AA@		; `string'
PUBLIC	??_C@_01FBAH@1?$AA@				; `string'
PUBLIC	??_C@_0M@DJLK@?9?5disabled?6?$AA@		; `string'
PUBLIC	??_C@_0N@NMJC@?9?5?$FO2enabled?6?$AA@		; `string'
PUBLIC	__real@4@00000000000000000000
EXTRN	?gEngfuncs@@3Ucl_enginefuncs_s@@A:BYTE		; gEngfuncs
EXTRN	?gRenderfuncs@@3Urender_api_s@@A:BYTE		; gRenderfuncs
EXTRN	?Q_strstr@@YAPADPBD0@Z:NEAR			; Q_strstr
EXTRN	?r_extensions@@3PAUcvar_s@@A:DWORD		; r_extensions
EXTRN	__fltused:NEAR
;	COMDAT ??_C@_0BH@IELL@GL_CheckExtension?3?5?$CFs?5?$AA@
; File z:\xashxtsrc\client\render\r_opengl.cpp
CONST	SEGMENT
??_C@_0BH@IELL@GL_CheckExtension?3?5?$CFs?5?$AA@ DB 'GL_CheckExtension: %'
	DB	's ', 00H					; `string'
CONST	ENDS
;	COMDAT ??_C@_0M@JGAI@?9?5?$FO1failed?6?$AA@
CONST	SEGMENT
??_C@_0M@JGAI@?9?5?$FO1failed?6?$AA@ DB '- ^1failed', 0aH, 00H ; `string'
CONST	ENDS
;	COMDAT ??_C@_01FBAH@1?$AA@
CONST	SEGMENT
??_C@_01FBAH@1?$AA@ DB '1', 00H				; `string'
CONST	ENDS
;	COMDAT ??_C@_0M@DJLK@?9?5disabled?6?$AA@
CONST	SEGMENT
??_C@_0M@DJLK@?9?5disabled?6?$AA@ DB '- disabled', 0aH, 00H ; `string'
CONST	ENDS
;	COMDAT ??_C@_0N@NMJC@?9?5?$FO2enabled?6?$AA@
CONST	SEGMENT
??_C@_0N@NMJC@?9?5?$FO2enabled?6?$AA@ DB '- ^2enabled', 0aH, 00H ; `string'
CONST	ENDS
;	COMDAT __real@4@00000000000000000000
CONST	SEGMENT
__real@4@00000000000000000000 DD 000000000r	; 0
CONST	ENDS
;	COMDAT ?GL_CheckExtension@@YAXPBDPBUdllfunc_s@@0H_N@Z
_TEXT	SEGMENT
_name$ = 8
_funcs$ = 12
_cvarname$ = 16
_r_ext$ = 20
_cvar_from_engine$ = 24
_func$ = -4
_parm$ = -8
?GL_CheckExtension@@YAXPBDPBUdllfunc_s@@0H_N@Z PROC NEAR ; GL_CheckExtension, COMDAT

; 405  : {

	push	ebp
	mov	ebp, esp
	sub	esp, 80					; 00000050H
	push	ebx
	push	esi
	push	edi

; 406  : 	const dllfunc_t	*func;
; 407  : 	cvar_t		*parm;
; 408  : 
; 409  : 	ALERT( at_aiconsole, "GL_CheckExtension: %s ", name );

	mov	eax, DWORD PTR _name$[ebp]
	push	eax
	push	OFFSET FLAT:??_C@_0BH@IELL@GL_CheckExtension?3?5?$CFs?5?$AA@ ; `string'
	push	2
	call	?ALERT@@YAXW4ALERT_TYPE@@PADZZ		; ALERT
	add	esp, 12					; 0000000cH

; 410  : 
; 411  : 	if(( name[2] == '_' || name[3] == '_' ) && !Q_strstr( glConfig.extensions_string, name ))

	mov	ecx, DWORD PTR _name$[ebp]
	movsx	edx, BYTE PTR [ecx+2]
	cmp	edx, 95					; 0000005fH
	je	SHORT $L71715
	mov	eax, DWORD PTR _name$[ebp]
	movsx	ecx, BYTE PTR [eax+3]
	cmp	ecx, 95					; 0000005fH
	jne	SHORT $L71714
$L71715:
	mov	edx, DWORD PTR _name$[ebp]
	push	edx
	mov	eax, DWORD PTR ?glConfig@@3UglConfig_t@@A+16
	push	eax
	call	?Q_strstr@@YAPADPBD0@Z			; Q_strstr
	add	esp, 8
	test	eax, eax
	jne	SHORT $L71714

; 413  : 		GL_SetExtension( r_ext, false );	// update render info

	push	0
	mov	ecx, DWORD PTR _r_ext$[ebp]
	push	ecx
	call	?GL_SetExtension@@YAXHH@Z		; GL_SetExtension
	add	esp, 8

; 414  : 		ALERT( at_aiconsole, "- ^1failed\n" );

	push	OFFSET FLAT:??_C@_0M@JGAI@?9?5?$FO1failed?6?$AA@ ; `string'
	push	2
	call	?ALERT@@YAXW4ALERT_TYPE@@PADZZ		; ALERT
	add	esp, 8

; 415  : 		return;

	jmp	$L71710
$L71714:

; 417  : 
; 418  : 	if( cvarname )

	cmp	DWORD PTR _cvarname$[ebp], 0
	je	$L71717

; 420  : 		// NOTE: engine will be ignore cvar value if variable already exitsts (e.g. created on exec opengl.cfg)
; 421  : 		// so this call just update variable description (because Host_WriteOpenGLConfig won't archive cvars without it)
; 422  : 		if( cvar_from_engine ) parm = CVAR_GET_POINTER( cvarname );

	mov	edx, DWORD PTR _cvar_from_engine$[ebp]
	and	edx, 255				; 000000ffH
	test	edx, edx
	je	SHORT $L71718
	mov	eax, DWORD PTR _cvarname$[ebp]
	push	eax
	call	DWORD PTR ?gEngfuncs@@3Ucl_enginefuncs_s@@A+288
	add	esp, 4
	mov	DWORD PTR _parm$[ebp], eax

; 423  : 		else parm = CVAR_REGISTER( (char *)cvarname, "1", FCVAR_GLCONFIG );

	jmp	SHORT $L71719
$L71718:
	push	4096					; 00001000H
	push	OFFSET FLAT:??_C@_01FBAH@1?$AA@		; `string'
	mov	ecx, DWORD PTR _cvarname$[ebp]
	push	ecx
	call	DWORD PTR ?gEngfuncs@@3Ucl_enginefuncs_s@@A+56
	add	esp, 12					; 0000000cH
	mov	DWORD PTR _parm$[ebp], eax
$L71719:

; 424  : 
; 425  : 		if( !CVAR_TO_BOOL( parm ) || ( !CVAR_TO_BOOL( r_extensions ) && r_ext != R_OPENGL_110 ))

	cmp	DWORD PTR _parm$[ebp], 0
	je	SHORT $L72534
	mov	edx, DWORD PTR _parm$[ebp]
	fld	DWORD PTR [edx+12]
	fcomp	DWORD PTR __real@4@00000000000000000000
	fnstsw	ax
	test	ah, 64					; 00000040H
	jne	SHORT $L72534
	mov	BYTE PTR -12+[ebp], 1
	jmp	SHORT $L72535
$L72534:
	mov	BYTE PTR -12+[ebp], 0
$L72535:
	mov	eax, DWORD PTR -12+[ebp]
	and	eax, 255				; 000000ffH
	test	eax, eax
	je	SHORT $L71723
	cmp	DWORD PTR ?r_extensions@@3PAUcvar_s@@A, 0 ; r_extensions
	je	SHORT $L72536
	mov	ecx, DWORD PTR ?r_extensions@@3PAUcvar_s@@A ; r_extensions
	fld	DWORD PTR [ecx+12]
	fcomp	DWORD PTR __real@4@00000000000000000000
	fnstsw	ax
	test	ah, 64					; 00000040H
	jne	SHORT $L72536
	mov	BYTE PTR -16+[ebp], 1
	jmp	SHORT $L72537
$L72536:
	mov	BYTE PTR -16+[ebp], 0
$L72537:
	mov	edx, DWORD PTR -16+[ebp]
	and	edx, 255				; 000000ffH
	test	edx, edx
	jne	SHORT $L71722
	cmp	DWORD PTR _r_ext$[ebp], 0
	je	SHORT $L71722
$L71723:

; 427  : 			ALERT( at_aiconsole, "- disabled\n" );

	push	OFFSET FLAT:??_C@_0M@DJLK@?9?5disabled?6?$AA@ ; `string'
	push	2
	call	?ALERT@@YAXW4ALERT_TYPE@@PADZZ		; ALERT
	add	esp, 8

; 428  : 			GL_SetExtension( r_ext, false );

	push	0
	mov	eax, DWORD PTR _r_ext$[ebp]
	push	eax
	call	?GL_SetExtension@@YAXHH@Z		; GL_SetExtension
	add	esp, 8

; 429  : 			return; // nothing to process at

	jmp	$L71710
$L71722:

; 431  : 		GL_SetExtension( r_ext, true );

	push	1
	mov	ecx, DWORD PTR _r_ext$[ebp]
	push	ecx
	call	?GL_SetExtension@@YAXHH@Z		; GL_SetExtension
	add	esp, 8
$L71717:

; 433  : 
; 434  : 	// clear exports
; 435  : 	for( func = funcs; func && func->name; func++ )

	mov	edx, DWORD PTR _funcs$[ebp]
	mov	DWORD PTR _func$[ebp], edx
	jmp	SHORT $L71725
$L71726:
	mov	eax, DWORD PTR _func$[ebp]
	add	eax, 8
	mov	DWORD PTR _func$[ebp], eax
$L71725:
	cmp	DWORD PTR _func$[ebp], 0
	je	SHORT $L71727
	mov	ecx, DWORD PTR _func$[ebp]
	cmp	DWORD PTR [ecx], 0
	je	SHORT $L71727

; 436  : 		*func->func = NULL;

	mov	edx, DWORD PTR _func$[ebp]
	mov	eax, DWORD PTR [edx+4]
	mov	DWORD PTR [eax], 0
	jmp	SHORT $L71726
$L71727:

; 437  : 
; 438  : 	GL_SetExtension( r_ext, true ); // predict extension state

	push	1
	mov	ecx, DWORD PTR _r_ext$[ebp]
	push	ecx
	call	?GL_SetExtension@@YAXHH@Z		; GL_SetExtension
	add	esp, 8

; 439  : 	for( func = funcs; func && func->name != NULL; func++ )

	mov	edx, DWORD PTR _funcs$[ebp]
	mov	DWORD PTR _func$[ebp], edx
	jmp	SHORT $L71728
$L71729:
	mov	eax, DWORD PTR _func$[ebp]
	add	eax, 8
	mov	DWORD PTR _func$[ebp], eax
$L71728:
	cmp	DWORD PTR _func$[ebp], 0
	je	SHORT $L71730
	mov	ecx, DWORD PTR _func$[ebp]
	cmp	DWORD PTR [ecx], 0
	je	SHORT $L71730

; 441  : 		// functions are cleared before all the extensions are evaluated
; 442  : 		if(!(*func->func = (void *)GL_GetProcAddress( func->name )))

	mov	edx, DWORD PTR _func$[ebp]
	mov	eax, DWORD PTR [edx]
	push	eax
	call	DWORD PTR ?gRenderfuncs@@3Urender_api_s@@A+164
	add	esp, 4
	mov	ecx, DWORD PTR _func$[ebp]
	mov	edx, DWORD PTR [ecx+4]
	mov	DWORD PTR [edx], eax
	mov	eax, DWORD PTR _func$[ebp]
	mov	ecx, DWORD PTR [eax+4]
	cmp	DWORD PTR [ecx], 0
	jne	SHORT $L71732

; 443  : 			GL_SetExtension( r_ext, false ); // one or more functions are invalid, extension will be disabled

	push	0
	mov	edx, DWORD PTR _r_ext$[ebp]
	push	edx
	call	?GL_SetExtension@@YAXHH@Z		; GL_SetExtension
	add	esp, 8
$L71732:

; 444  : 	}

	jmp	SHORT $L71729
$L71730:

; 445  : 
; 446  : 	if( GL_Support( r_ext ))

	mov	eax, DWORD PTR _r_ext$[ebp]
	push	eax
	call	?GL_Support@@YA_NH@Z			; GL_Support
	add	esp, 4
	and	eax, 255				; 000000ffH
	test	eax, eax
	je	SHORT $L71733

; 447  : 		ALERT( at_aiconsole, "- ^2enabled\n" );

	push	OFFSET FLAT:??_C@_0N@NMJC@?9?5?$FO2enabled?6?$AA@ ; `string'
	push	2
	call	?ALERT@@YAXW4ALERT_TYPE@@PADZZ		; ALERT
	add	esp, 8
$L71733:
$L71710:

; 448  : }

	pop	edi
	pop	esi
	pop	ebx
	mov	esp, ebp
	pop	ebp
	ret	0
?GL_CheckExtension@@YAXPBDPBUdllfunc_s@@0H_N@Z ENDP	; GL_CheckExtension
_TEXT	ENDS
PUBLIC	?R_CreateSpotLightTexture@@YAXXZ		; R_CreateSpotLightTexture
PUBLIC	??_C@_0L@IMPG@?$CKspotlight?$AA@		; `string'
PUBLIC	__real@4@3ffe8000000000000000
PUBLIC	__real@8@3fffc90fdaa22168c000
PUBLIC	__real@4@4006ff00000000000000
EXTRN	??2@YAPAXI@Z:NEAR				; operator new
EXTRN	??3@YAXPAX@Z:NEAR				; operator delete
EXTRN	_cos:NEAR
EXTRN	_sqrt:NEAR
EXTRN	?tr@@3Uref_globals_t@@A:BYTE			; tr
EXTRN	__ftol:NEAR
;	COMDAT ??_C@_0L@IMPG@?$CKspotlight?$AA@
; File z:\xashxtsrc\client\render\r_opengl.cpp
CONST	SEGMENT
??_C@_0L@IMPG@?$CKspotlight?$AA@ DB '*spotlight', 00H	; `string'
CONST	ENDS
;	COMDAT __real@4@3ffe8000000000000000
CONST	SEGMENT
__real@4@3ffe8000000000000000 DD 03f000000r	; 0.5
CONST	ENDS
;	COMDAT __real@8@3fffc90fdaa22168c000
CONST	SEGMENT
__real@8@3fffc90fdaa22168c000 DQ 03ff921fb54442d18r ; 1.5708
CONST	ENDS
;	COMDAT __real@4@4006ff00000000000000
CONST	SEGMENT
__real@4@4006ff00000000000000 DD 0437f0000r	; 255
CONST	ENDS
;	COMDAT ?R_CreateSpotLightTexture@@YAXXZ
_TEXT	SEGMENT
_width$ = -4
_height$ = -8
_data$ = -12
_p$ = -16
_i$ = -20
_dy$71857 = -24
_j$71858 = -28
_dx$71862 = -32
_r$71863 = -36
_c$71864 = -40
$T72543 = -44
$T72554 = -48
?R_CreateSpotLightTexture@@YAXXZ PROC NEAR		; R_CreateSpotLightTexture, COMDAT

; 685  : {

	push	ebp
	mov	ebp, esp
	sub	esp, 132				; 00000084H
	push	ebx
	push	esi
	push	edi

; 686  : 	int width = 64, height = 64;

	mov	DWORD PTR _width$[ebp], 64		; 00000040H
	mov	DWORD PTR _height$[ebp], 64		; 00000040H

; 687  : 	byte *data = new byte[width*height*4];

	mov	eax, DWORD PTR _width$[ebp]
	imul	eax, DWORD PTR _height$[ebp]
	shl	eax, 2
	push	eax
	call	??2@YAPAXI@Z				; operator new
	add	esp, 4
	mov	DWORD PTR $T72543[ebp], eax
	mov	ecx, DWORD PTR $T72543[ebp]
	mov	DWORD PTR _data$[ebp], ecx

; 688  : 	byte *p = data;

	mov	edx, DWORD PTR _data$[ebp]
	mov	DWORD PTR _p$[ebp], edx

; 689  : 
; 690  : 	for( int i = 0; i < height; i++ )

	mov	DWORD PTR _i$[ebp], 0
	jmp	SHORT $L71854
$L71855:
	mov	eax, DWORD PTR _i$[ebp]
	add	eax, 1
	mov	DWORD PTR _i$[ebp], eax
$L71854:
	mov	ecx, DWORD PTR _i$[ebp]
	cmp	ecx, DWORD PTR _height$[ebp]
	jge	$L71856

; 692  : 		float dy = (height * 0.5f - i + 0.5f) / (height * 0.5f);

	fild	DWORD PTR _height$[ebp]
	fmul	DWORD PTR __real@4@3ffe8000000000000000
	fisub	DWORD PTR _i$[ebp]
	fadd	DWORD PTR __real@4@3ffe8000000000000000
	fild	DWORD PTR _height$[ebp]
	fmul	DWORD PTR __real@4@3ffe8000000000000000
	fdivp	ST(1), ST(0)
	fstp	DWORD PTR _dy$71857[ebp]

; 693  : 
; 694  : 		for( int j = 0; j < width; j++ )

	mov	DWORD PTR _j$71858[ebp], 0
	jmp	SHORT $L71859
$L71860:
	mov	edx, DWORD PTR _j$71858[ebp]
	add	edx, 1
	mov	DWORD PTR _j$71858[ebp], edx
$L71859:
	mov	eax, DWORD PTR _j$71858[ebp]
	cmp	eax, DWORD PTR _width$[ebp]
	jge	$L71861

; 696  : 			float dx = (width * 0.5f - j + 0.5f) / (width * 0.5f);

	fild	DWORD PTR _width$[ebp]
	fmul	DWORD PTR __real@4@3ffe8000000000000000
	fisub	DWORD PTR _j$71858[ebp]
	fadd	DWORD PTR __real@4@3ffe8000000000000000
	fild	DWORD PTR _width$[ebp]
	fmul	DWORD PTR __real@4@3ffe8000000000000000
	fdivp	ST(1), ST(0)
	fst	DWORD PTR _dx$71862[ebp]

; 697  : 			float r = cos( M_PI / 2.0f * sqrt(dx * dx + dy * dy));

	fmul	DWORD PTR _dx$71862[ebp]
	fld	DWORD PTR _dy$71857[ebp]
	fmul	DWORD PTR _dy$71857[ebp]
	faddp	ST(1), ST(0)
	sub	esp, 8
	fstp	QWORD PTR [esp]
	call	_sqrt
	add	esp, 8
	fmul	QWORD PTR __real@8@3fffc90fdaa22168c000
	sub	esp, 8
	fstp	QWORD PTR [esp]
	call	_cos
	add	esp, 8
	fst	DWORD PTR _r$71863[ebp]

; 698  : 			float c;
; 699  : 
; 700  : 			r = (r < 0) ? 0 : r * r;

	fcomp	DWORD PTR __real@4@00000000000000000000
	fnstsw	ax
	test	ah, 1
	je	SHORT $L72544
	mov	DWORD PTR -52+[ebp], 0
	jmp	SHORT $L72545
$L72544:
	fld	DWORD PTR _r$71863[ebp]
	fmul	DWORD PTR _r$71863[ebp]
	fstp	DWORD PTR -52+[ebp]
$L72545:
	mov	ecx, DWORD PTR -52+[ebp]
	mov	DWORD PTR _r$71863[ebp], ecx

; 701  : 			c = 0xFF * r;

	fld	DWORD PTR __real@4@4006ff00000000000000
	fmul	DWORD PTR _r$71863[ebp]
	fst	DWORD PTR _c$71864[ebp]

; 702  : 			p[0] = (c <= 0xFF) ? c : 0xFF;

	fcomp	DWORD PTR __real@4@4006ff00000000000000
	fnstsw	ax
	test	ah, 65					; 00000041H
	je	SHORT $L72546
	mov	edx, DWORD PTR _c$71864[ebp]
	mov	DWORD PTR -56+[ebp], edx
	jmp	SHORT $L72547
$L72546:
	mov	DWORD PTR -56+[ebp], 1132396544		; 437f0000H
$L72547:
	fld	DWORD PTR -56+[ebp]
	call	__ftol
	mov	ecx, DWORD PTR _p$[ebp]
	mov	BYTE PTR [ecx], al

; 703  : 			p[1] = (c <= 0xFF) ? c : 0xFF;

	fld	DWORD PTR _c$71864[ebp]
	fcomp	DWORD PTR __real@4@4006ff00000000000000
	fnstsw	ax
	test	ah, 65					; 00000041H
	je	SHORT $L72548
	mov	edx, DWORD PTR _c$71864[ebp]
	mov	DWORD PTR -60+[ebp], edx
	jmp	SHORT $L72549
$L72548:
	mov	DWORD PTR -60+[ebp], 1132396544		; 437f0000H
$L72549:
	fld	DWORD PTR -60+[ebp]
	call	__ftol
	mov	ecx, DWORD PTR _p$[ebp]
	mov	BYTE PTR [ecx+1], al

; 704  : 			p[2] = (c <= 0xFF) ? c : 0xFF;

	fld	DWORD PTR _c$71864[ebp]
	fcomp	DWORD PTR __real@4@4006ff00000000000000
	fnstsw	ax
	test	ah, 65					; 00000041H
	je	SHORT $L72550
	mov	edx, DWORD PTR _c$71864[ebp]
	mov	DWORD PTR -64+[ebp], edx
	jmp	SHORT $L72551
$L72550:
	mov	DWORD PTR -64+[ebp], 1132396544		; 437f0000H
$L72551:
	fld	DWORD PTR -64+[ebp]
	call	__ftol
	mov	ecx, DWORD PTR _p$[ebp]
	mov	BYTE PTR [ecx+2], al

; 705  : 			p[3] = (c <= 0xff) ? c : 0xFF;

	fld	DWORD PTR _c$71864[ebp]
	fcomp	DWORD PTR __real@4@4006ff00000000000000
	fnstsw	ax
	test	ah, 65					; 00000041H
	je	SHORT $L72552
	mov	edx, DWORD PTR _c$71864[ebp]
	mov	DWORD PTR -68+[ebp], edx
	jmp	SHORT $L72553
$L72552:
	mov	DWORD PTR -68+[ebp], 1132396544		; 437f0000H
$L72553:
	fld	DWORD PTR -68+[ebp]
	call	__ftol
	mov	ecx, DWORD PTR _p$[ebp]
	mov	BYTE PTR [ecx+3], al

; 706  : 			p += 4;

	mov	edx, DWORD PTR _p$[ebp]
	add	edx, 4
	mov	DWORD PTR _p$[ebp], edx

; 707  : 		}

	jmp	$L71860
$L71861:

; 708  : 	}

	jmp	$L71855
$L71856:

; 709  : 
; 710  : 	tr.spotlightTexture = CREATE_TEXTURE( "*spotlight", width, height, data, TF_SPOTLIGHT ); 

	push	524288					; 00080000H
	mov	eax, DWORD PTR _data$[ebp]
	push	eax
	mov	ecx, DWORD PTR _height$[ebp]
	push	ecx
	mov	edx, DWORD PTR _width$[ebp]
	push	edx
	push	OFFSET FLAT:??_C@_0L@IMPG@?$CKspotlight?$AA@ ; `string'
	call	DWORD PTR ?gRenderfuncs@@3Urender_api_s@@A+64
	add	esp, 20					; 00000014H
	mov	DWORD PTR ?tr@@3Uref_globals_t@@A+5484, eax

; 711  : 	delete [] data;

	mov	eax, DWORD PTR _data$[ebp]
	mov	DWORD PTR $T72554[ebp], eax
	mov	ecx, DWORD PTR $T72554[ebp]
	push	ecx
	call	??3@YAXPAX@Z				; operator delete
	add	esp, 4

; 712  : }

	pop	edi
	pop	esi
	pop	ebx
	mov	esp, ebp
	pop	ebp
	ret	0
?R_CreateSpotLightTexture@@YAXXZ ENDP			; R_CreateSpotLightTexture
_TEXT	ENDS
PUBLIC	??_C@_0M@IPEA@gl_renderer?$AA@			; `string'
PUBLIC	?R_Init@@YA_NXZ					; R_Init
PUBLIC	?R_Shutdown@@YAXXZ				; R_Shutdown
EXTRN	?R_InitRefState@@YAXXZ:NEAR			; R_InitRefState
EXTRN	?InitPostEffects@@YAXXZ:NEAR			; InitPostEffects
EXTRN	?GL_InitRandomTable@@YAXXZ:NEAR			; GL_InitRandomTable
EXTRN	?g_fRenderInitialized@@3HA:DWORD		; g_fRenderInitialized
EXTRN	?GL_InitGPUShaders@@YAXXZ:NEAR			; GL_InitGPUShaders
EXTRN	?R_GrassInit@@YAXXZ:NEAR			; R_GrassInit
EXTRN	?R_InitWeather@@YAXXZ:NEAR			; R_InitWeather
;	COMDAT ??_C@_0M@IPEA@gl_renderer?$AA@
; File z:\xashxtsrc\client\render\r_opengl.cpp
CONST	SEGMENT
??_C@_0M@IPEA@gl_renderer?$AA@ DB 'gl_renderer', 00H	; `string'
CONST	ENDS
;	COMDAT ?R_Init@@YA_NXZ
_TEXT	SEGMENT
?R_Init@@YA_NXZ PROC NEAR				; R_Init, COMDAT

; 765  : {

	push	ebp
	mov	ebp, esp
	sub	esp, 64					; 00000040H
	push	ebx
	push	esi
	push	edi

; 766  : 	R_InitRefState();

	call	?R_InitRefState@@YAXXZ			; R_InitRefState

; 767  : 	GL_InitExtensions();

	call	?GL_InitExtensions@@YAXXZ		; GL_InitExtensions

; 768  : 
; 769  : 	if( !g_fRenderInitialized )

	cmp	DWORD PTR ?g_fRenderInitialized@@3HA, 0	; g_fRenderInitialized
	jne	SHORT $L71890

; 771  : 		CVAR_SET_FLOAT( "gl_renderer", 0 );

	push	0
	push	OFFSET FLAT:??_C@_0M@IPEA@gl_renderer?$AA@ ; `string'
	call	DWORD PTR ?gEngfuncs@@3Ucl_enginefuncs_s@@A+148
	add	esp, 8

; 772  : 		R_Shutdown();

	call	?R_Shutdown@@YAXXZ			; R_Shutdown

; 773  : 		return false;

	xor	al, al
	jmp	SHORT $L71889
$L71890:

; 775  : 
; 776  : 	GL_InitGPUShaders();

	call	?GL_InitGPUShaders@@YAXXZ		; GL_InitGPUShaders

; 777  : 	GL_InitTextures();

	call	?GL_InitTextures@@YAXXZ			; GL_InitTextures

; 778  : 	GL_InitRandomTable();

	call	?GL_InitRandomTable@@YAXXZ		; GL_InitRandomTable

; 779  : 	GL_SetDefaultState();

	call	?GL_SetDefaultState@@YAXXZ		; GL_SetDefaultState

; 780  : 
; 781  : 	R_InitWeather();

	call	?R_InitWeather@@YAXXZ			; R_InitWeather

; 782  : 	R_GrassInit();

	call	?R_GrassInit@@YAXXZ			; R_GrassInit

; 783  : 	InitPostEffects();

	call	?InitPostEffects@@YAXXZ			; InitPostEffects

; 784  : 
; 785  : 	pglPointSize( 10.0f );

	push	1092616192				; 41200000H
	call	DWORD PTR ?pglPointSize@@3P6GXM@ZA	; pglPointSize

; 786  : 
; 787  : 	return true;

	mov	al, 1
$L71889:

; 788  : }

	pop	edi
	pop	esi
	pop	ebx
	mov	esp, ebp
	pop	ebp
	ret	0
?R_Init@@YA_NXZ ENDP					; R_Init
_TEXT	ENDS
PUBLIC	??_C@_0FB@OLOB@too?5old?5version?5of?5Xash3D?5engine@ ; `string'
PUBLIC	??_C@_0N@LKKG@OpenGL?51?41?40?$AA@		; `string'
PUBLIC	??_C@_0DJ@PLJ@OpenGL?51?40?5can?8t?5be?5installed?4?5C@ ; `string'
PUBLIC	??_C@_07LDAK@geforce?$AA@			; `string'
PUBLIC	??_C@_09CLDH@quadro?5fx?$AA@			; `string'
PUBLIC	??_C@_05MDAL@rv770?$AA@				; `string'
PUBLIC	??_C@_09FNHN@radeon?5hd?$AA@			; `string'
PUBLIC	??_C@_07DHCM@eah4850?$AA@			; `string'
PUBLIC	??_C@_07BKHJ@eah4870?$AA@			; `string'
PUBLIC	??_C@_06EBDE@radeon?$AA@			; `string'
PUBLIC	??_C@_0BE@NIJB@gl_drawrangeelments?$AA@		; `string'
PUBLIC	??_C@_0BL@NAPA@GL_EXT_draw_range_elements?$AA@	; `string'
PUBLIC	??_C@_0EC@CHCD@GL_EXT_draw_range_elements?5not?5s@ ; `string'
PUBLIC	??_C@_0BE@FNCD@gl_arb_multitexture?$AA@		; `string'
PUBLIC	??_C@_0BE@EHGK@GL_ARB_multitexture?$AA@		; `string'
PUBLIC	??_C@_0DL@FPBP@GL_ARB_multitexture?5not?5support?4@ ; `string'
PUBLIC	??_C@_0O@DAMC@gl_texture_3d?$AA@		; `string'
PUBLIC	??_C@_0BB@JKDM@GL_EXT_texture3D?$AA@		; `string'
PUBLIC	??_C@_0EC@NDJE@GL_EXT_texture3D?5reported?5bogus?5@ ; `string'
PUBLIC	??_C@_0BE@PKC@gl_texture_2d_array?$AA@		; `string'
PUBLIC	??_C@_0BF@GPMN@GL_EXT_texture_array?$AA@	; `string'
PUBLIC	??_C@_0EC@GAH@GL_EXT_texture_array?5not?5support@ ; `string'
PUBLIC	??_C@_0BD@JPCC@gl_texture_cubemap?$AA@		; `string'
PUBLIC	??_C@_0BI@BMEH@GL_ARB_texture_cube_map?$AA@	; `string'
PUBLIC	??_C@_0FM@JLFB@GL_ARB_texture_cube_map?5not?5supp@ ; `string'
PUBLIC	??_C@_0BA@NMAL@gl_texture_npot?$AA@		; `string'
PUBLIC	??_C@_0CA@FJOC@GL_ARB_texture_non_power_of_two?$AA@ ; `string'
PUBLIC	??_C@_0BI@OBAB@gl_vertex_buffer_object?$AA@	; `string'
PUBLIC	??_C@_0BM@HCAG@GL_ARB_vertex_buffer_object?$AA@	; `string'
PUBLIC	??_C@_0ED@PDBL@GL_ARB_vertex_buffer_object?5not?5@ ; `string'
PUBLIC	??_C@_0BH@DDOL@gl_vertex_array_object?$AA@	; `string'
PUBLIC	??_C@_0BL@DEIH@GL_ARB_vertex_array_object?$AA@	; `string'
PUBLIC	??_C@_0EC@GGIC@GL_ARB_vertex_array_object?5not?5s@ ; `string'
PUBLIC	??_C@_0BD@GLDC@gl_ext_gpu_shader4?$AA@		; `string'
PUBLIC	??_C@_0BD@CCBE@GL_EXT_gpu_shader4?$AA@		; `string'
PUBLIC	??_C@_0BE@IKOO@GL_ARB_debug_output?$AA@		; `string'
PUBLIC	??_C@_0BB@MEGL@gl_shaderobjects?$AA@		; `string'
PUBLIC	??_C@_0BG@KEPG@GL_ARB_shader_objects?$AA@	; `string'
PUBLIC	??_C@_0DN@JJGE@GL_ARB_shader_objects?5not?5suppor@ ; `string'
PUBLIC	??_C@_0BE@JDFA@gl_shading_language?$AA@		; `string'
PUBLIC	??_C@_0BM@BHKJ@GL_ARB_shading_language_100?$AA@	; `string'
PUBLIC	??_C@_0ED@LPKD@GL_ARB_shading_language_100?5not?5@ ; `string'
PUBLIC	??_C@_0BA@FCIN@gl_vertexshader?$AA@		; `string'
PUBLIC	??_C@_0BF@HLIM@GL_ARB_vertex_shader?$AA@	; `string'
PUBLIC	??_C@_0DM@OFIB@GL_ARB_vertex_shader?5not?5support@ ; `string'
PUBLIC	??_C@_0P@MEOB@gl_pixelshader?$AA@		; `string'
PUBLIC	??_C@_0BH@KFOL@GL_ARB_fragment_shader?$AA@	; `string'
PUBLIC	??_C@_0DO@EHPP@GL_ARB_fragment_shader?5not?5suppo@ ; `string'
PUBLIC	??_C@_0BA@OLNG@gl_depthtexture?$AA@		; `string'
PUBLIC	??_C@_0BF@KPLK@GL_ARB_depth_texture?$AA@	; `string'
PUBLIC	??_C@_0O@EGIH@gl_arb_shadow?$AA@		; `string'
PUBLIC	??_C@_0O@GCPF@GL_ARB_shadow?$AA@		; `string'
PUBLIC	??_C@_0EN@IMBG@GL_ARB_depth_texture?5or?5GL_ARB_s@ ; `string'
PUBLIC	??_C@_0BA@FMLF@gl_framebuffers?$AA@		; `string'
PUBLIC	??_C@_0BK@PNNB@GL_ARB_framebuffer_object?$AA@	; `string'
PUBLIC	??_C@_0BC@PPEB@PARANOIA_HACKS_V1?$AA@		; `string'
PUBLIC	??_C@_0DJ@NHKL@Hardware?5Skinning?5not?5support?4?5C@ ; `string'
PUBLIC	??_C@_0DD@KJDP@Hardware?5Skinning?5has?5a?5limitati@ ; `string'
PUBLIC	??_C@_0CL@LOID@GL_InitExtensions?3?5max?5vertex?5un@ ; `string'
PUBLIC	??_C@_0CK@PCHI@GL_InitExtensions?3?5max?5varying?5f@ ; `string'
PUBLIC	??_C@_0CI@DGHF@GL_InitExtensions?3?5MaxSkinned?5bo@ ; `string'
EXTRN	?g_iXashEngineBuildNumber@@3HA:DWORD		; g_iXashEngineBuildNumber
EXTRN	?Q_stristr@@YAPADPBD0@Z:NEAR			; Q_stristr
;	COMDAT ??_C@_0FB@OLOB@too?5old?5version?5of?5Xash3D?5engine@
; File z:\xashxtsrc\client\render\r_opengl.cpp
CONST	SEGMENT
??_C@_0FB@OLOB@too?5old?5version?5of?5Xash3D?5engine@ DB 'too old version'
	DB	' of Xash3D engine. XashXT required at least build 4140 or hig'
	DB	'her', 0aH, 00H				; `string'
CONST	ENDS
;	COMDAT ??_C@_0N@LKKG@OpenGL?51?41?40?$AA@
CONST	SEGMENT
??_C@_0N@LKKG@OpenGL?51?41?40?$AA@ DB 'OpenGL 1.1.0', 00H ; `string'
CONST	ENDS
;	COMDAT ??_C@_0DJ@PLJ@OpenGL?51?40?5can?8t?5be?5installed?4?5C@
CONST	SEGMENT
??_C@_0DJ@PLJ@OpenGL?51?40?5can?8t?5be?5installed?4?5C@ DB 'OpenGL 1.0 ca'
	DB	'n''t be installed. Custom renderer disabled', 0aH, 00H ; `string'
CONST	ENDS
;	COMDAT ??_C@_07LDAK@geforce?$AA@
CONST	SEGMENT
??_C@_07LDAK@geforce?$AA@ DB 'geforce', 00H		; `string'
CONST	ENDS
;	COMDAT ??_C@_09CLDH@quadro?5fx?$AA@
CONST	SEGMENT
??_C@_09CLDH@quadro?5fx?$AA@ DB 'quadro fx', 00H	; `string'
CONST	ENDS
;	COMDAT ??_C@_05MDAL@rv770?$AA@
CONST	SEGMENT
??_C@_05MDAL@rv770?$AA@ DB 'rv770', 00H			; `string'
CONST	ENDS
;	COMDAT ??_C@_09FNHN@radeon?5hd?$AA@
CONST	SEGMENT
??_C@_09FNHN@radeon?5hd?$AA@ DB 'radeon hd', 00H	; `string'
CONST	ENDS
;	COMDAT ??_C@_07DHCM@eah4850?$AA@
CONST	SEGMENT
??_C@_07DHCM@eah4850?$AA@ DB 'eah4850', 00H		; `string'
CONST	ENDS
;	COMDAT ??_C@_07BKHJ@eah4870?$AA@
CONST	SEGMENT
??_C@_07BKHJ@eah4870?$AA@ DB 'eah4870', 00H		; `string'
CONST	ENDS
;	COMDAT ??_C@_06EBDE@radeon?$AA@
CONST	SEGMENT
??_C@_06EBDE@radeon?$AA@ DB 'radeon', 00H		; `string'
CONST	ENDS
;	COMDAT ??_C@_0BE@NIJB@gl_drawrangeelments?$AA@
CONST	SEGMENT
??_C@_0BE@NIJB@gl_drawrangeelments?$AA@ DB 'gl_drawrangeelments', 00H ; `string'
CONST	ENDS
;	COMDAT ??_C@_0BL@NAPA@GL_EXT_draw_range_elements?$AA@
CONST	SEGMENT
??_C@_0BL@NAPA@GL_EXT_draw_range_elements?$AA@ DB 'GL_EXT_draw_range_elem'
	DB	'ents', 00H					; `string'
CONST	ENDS
;	COMDAT ??_C@_0EC@CHCD@GL_EXT_draw_range_elements?5not?5s@
CONST	SEGMENT
??_C@_0EC@CHCD@GL_EXT_draw_range_elements?5not?5s@ DB 'GL_EXT_draw_range_'
	DB	'elements not support. Custom renderer disabled', 0aH, 00H ; `string'
CONST	ENDS
;	COMDAT ??_C@_0BE@FNCD@gl_arb_multitexture?$AA@
CONST	SEGMENT
??_C@_0BE@FNCD@gl_arb_multitexture?$AA@ DB 'gl_arb_multitexture', 00H ; `string'
CONST	ENDS
;	COMDAT ??_C@_0BE@EHGK@GL_ARB_multitexture?$AA@
CONST	SEGMENT
??_C@_0BE@EHGK@GL_ARB_multitexture?$AA@ DB 'GL_ARB_multitexture', 00H ; `string'
CONST	ENDS
;	COMDAT ??_C@_0DL@FPBP@GL_ARB_multitexture?5not?5support?4@
CONST	SEGMENT
??_C@_0DL@FPBP@GL_ARB_multitexture?5not?5support?4@ DB 'GL_ARB_multitextu'
	DB	're not support. Custom renderer disabled', 0aH, 00H ; `string'
CONST	ENDS
;	COMDAT ??_C@_0O@DAMC@gl_texture_3d?$AA@
CONST	SEGMENT
??_C@_0O@DAMC@gl_texture_3d?$AA@ DB 'gl_texture_3d', 00H ; `string'
CONST	ENDS
;	COMDAT ??_C@_0BB@JKDM@GL_EXT_texture3D?$AA@
CONST	SEGMENT
??_C@_0BB@JKDM@GL_EXT_texture3D?$AA@ DB 'GL_EXT_texture3D', 00H ; `string'
CONST	ENDS
;	COMDAT ??_C@_0EC@NDJE@GL_EXT_texture3D?5reported?5bogus?5@
CONST	SEGMENT
??_C@_0EC@NDJE@GL_EXT_texture3D?5reported?5bogus?5@ DB 'GL_EXT_texture3D '
	DB	'reported bogus GL_MAX_3D_TEXTURE_SIZE, disabled', 0aH, 00H ; `string'
CONST	ENDS
;	COMDAT ??_C@_0BE@PKC@gl_texture_2d_array?$AA@
CONST	SEGMENT
??_C@_0BE@PKC@gl_texture_2d_array?$AA@ DB 'gl_texture_2d_array', 00H ; `string'
CONST	ENDS
;	COMDAT ??_C@_0BF@GPMN@GL_EXT_texture_array?$AA@
CONST	SEGMENT
??_C@_0BF@GPMN@GL_EXT_texture_array?$AA@ DB 'GL_EXT_texture_array', 00H ; `string'
CONST	ENDS
;	COMDAT ??_C@_0EC@GAH@GL_EXT_texture_array?5not?5support@
CONST	SEGMENT
??_C@_0EC@GAH@GL_EXT_texture_array?5not?5support@ DB 'GL_EXT_texture_arra'
	DB	'y not support. Landscapes will be unavailable', 0aH, 00H ; `string'
CONST	ENDS
;	COMDAT ??_C@_0BD@JPCC@gl_texture_cubemap?$AA@
CONST	SEGMENT
??_C@_0BD@JPCC@gl_texture_cubemap?$AA@ DB 'gl_texture_cubemap', 00H ; `string'
CONST	ENDS
;	COMDAT ??_C@_0BI@BMEH@GL_ARB_texture_cube_map?$AA@
CONST	SEGMENT
??_C@_0BI@BMEH@GL_ARB_texture_cube_map?$AA@ DB 'GL_ARB_texture_cube_map', 00H ; `string'
CONST	ENDS
;	COMDAT ??_C@_0FM@JLFB@GL_ARB_texture_cube_map?5not?5supp@
CONST	SEGMENT
??_C@_0FM@JLFB@GL_ARB_texture_cube_map?5not?5supp@ DB 'GL_ARB_texture_cub'
	DB	'e_map not support. Cubemap reflections and omni shadows will '
	DB	'be disabled', 0aH, 00H			; `string'
CONST	ENDS
;	COMDAT ??_C@_0BA@NMAL@gl_texture_npot?$AA@
CONST	SEGMENT
??_C@_0BA@NMAL@gl_texture_npot?$AA@ DB 'gl_texture_npot', 00H ; `string'
CONST	ENDS
;	COMDAT ??_C@_0CA@FJOC@GL_ARB_texture_non_power_of_two?$AA@
CONST	SEGMENT
??_C@_0CA@FJOC@GL_ARB_texture_non_power_of_two?$AA@ DB 'GL_ARB_texture_no'
	DB	'n_power_of_two', 00H			; `string'
CONST	ENDS
;	COMDAT ??_C@_0BI@OBAB@gl_vertex_buffer_object?$AA@
CONST	SEGMENT
??_C@_0BI@OBAB@gl_vertex_buffer_object?$AA@ DB 'gl_vertex_buffer_object', 00H ; `string'
CONST	ENDS
;	COMDAT ??_C@_0BM@HCAG@GL_ARB_vertex_buffer_object?$AA@
CONST	SEGMENT
??_C@_0BM@HCAG@GL_ARB_vertex_buffer_object?$AA@ DB 'GL_ARB_vertex_buffer_'
	DB	'object', 00H				; `string'
CONST	ENDS
;	COMDAT ??_C@_0ED@PDBL@GL_ARB_vertex_buffer_object?5not?5@
CONST	SEGMENT
??_C@_0ED@PDBL@GL_ARB_vertex_buffer_object?5not?5@ DB 'GL_ARB_vertex_buff'
	DB	'er_object not support. Custom renderer disabled', 0aH, 00H ; `string'
CONST	ENDS
;	COMDAT ??_C@_0BH@DDOL@gl_vertex_array_object?$AA@
CONST	SEGMENT
??_C@_0BH@DDOL@gl_vertex_array_object?$AA@ DB 'gl_vertex_array_object', 00H ; `string'
CONST	ENDS
;	COMDAT ??_C@_0BL@DEIH@GL_ARB_vertex_array_object?$AA@
CONST	SEGMENT
??_C@_0BL@DEIH@GL_ARB_vertex_array_object?$AA@ DB 'GL_ARB_vertex_array_ob'
	DB	'ject', 00H					; `string'
CONST	ENDS
;	COMDAT ??_C@_0EC@GGIC@GL_ARB_vertex_array_object?5not?5s@
CONST	SEGMENT
??_C@_0EC@GGIC@GL_ARB_vertex_array_object?5not?5s@ DB 'GL_ARB_vertex_arra'
	DB	'y_object not support. Custom renderer disabled', 0aH, 00H ; `string'
CONST	ENDS
;	COMDAT ??_C@_0BD@GLDC@gl_ext_gpu_shader4?$AA@
CONST	SEGMENT
??_C@_0BD@GLDC@gl_ext_gpu_shader4?$AA@ DB 'gl_ext_gpu_shader4', 00H ; `string'
CONST	ENDS
;	COMDAT ??_C@_0BD@CCBE@GL_EXT_gpu_shader4?$AA@
CONST	SEGMENT
??_C@_0BD@CCBE@GL_EXT_gpu_shader4?$AA@ DB 'GL_EXT_gpu_shader4', 00H ; `string'
CONST	ENDS
;	COMDAT ??_C@_0BE@IKOO@GL_ARB_debug_output?$AA@
CONST	SEGMENT
??_C@_0BE@IKOO@GL_ARB_debug_output?$AA@ DB 'GL_ARB_debug_output', 00H ; `string'
CONST	ENDS
;	COMDAT ??_C@_0BB@MEGL@gl_shaderobjects?$AA@
CONST	SEGMENT
??_C@_0BB@MEGL@gl_shaderobjects?$AA@ DB 'gl_shaderobjects', 00H ; `string'
CONST	ENDS
;	COMDAT ??_C@_0BG@KEPG@GL_ARB_shader_objects?$AA@
CONST	SEGMENT
??_C@_0BG@KEPG@GL_ARB_shader_objects?$AA@ DB 'GL_ARB_shader_objects', 00H ; `string'
CONST	ENDS
;	COMDAT ??_C@_0DN@JJGE@GL_ARB_shader_objects?5not?5suppor@
CONST	SEGMENT
??_C@_0DN@JJGE@GL_ARB_shader_objects?5not?5suppor@ DB 'GL_ARB_shader_obje'
	DB	'cts not support. Custom renderer disabled', 0aH, 00H ; `string'
CONST	ENDS
;	COMDAT ??_C@_0BE@JDFA@gl_shading_language?$AA@
CONST	SEGMENT
??_C@_0BE@JDFA@gl_shading_language?$AA@ DB 'gl_shading_language', 00H ; `string'
CONST	ENDS
;	COMDAT ??_C@_0BM@BHKJ@GL_ARB_shading_language_100?$AA@
CONST	SEGMENT
??_C@_0BM@BHKJ@GL_ARB_shading_language_100?$AA@ DB 'GL_ARB_shading_langua'
	DB	'ge_100', 00H				; `string'
CONST	ENDS
;	COMDAT ??_C@_0ED@LPKD@GL_ARB_shading_language_100?5not?5@
CONST	SEGMENT
??_C@_0ED@LPKD@GL_ARB_shading_language_100?5not?5@ DB 'GL_ARB_shading_lan'
	DB	'guage_100 not support. Custom renderer disabled', 0aH, 00H ; `string'
CONST	ENDS
;	COMDAT ??_C@_0BA@FCIN@gl_vertexshader?$AA@
CONST	SEGMENT
??_C@_0BA@FCIN@gl_vertexshader?$AA@ DB 'gl_vertexshader', 00H ; `string'
CONST	ENDS
;	COMDAT ??_C@_0BF@HLIM@GL_ARB_vertex_shader?$AA@
CONST	SEGMENT
??_C@_0BF@HLIM@GL_ARB_vertex_shader?$AA@ DB 'GL_ARB_vertex_shader', 00H ; `string'
CONST	ENDS
;	COMDAT ??_C@_0DM@OFIB@GL_ARB_vertex_shader?5not?5support@
CONST	SEGMENT
??_C@_0DM@OFIB@GL_ARB_vertex_shader?5not?5support@ DB 'GL_ARB_vertex_shad'
	DB	'er not support. Custom renderer disabled', 0aH, 00H ; `string'
CONST	ENDS
;	COMDAT ??_C@_0P@MEOB@gl_pixelshader?$AA@
CONST	SEGMENT
??_C@_0P@MEOB@gl_pixelshader?$AA@ DB 'gl_pixelshader', 00H ; `string'
CONST	ENDS
;	COMDAT ??_C@_0BH@KFOL@GL_ARB_fragment_shader?$AA@
CONST	SEGMENT
??_C@_0BH@KFOL@GL_ARB_fragment_shader?$AA@ DB 'GL_ARB_fragment_shader', 00H ; `string'
CONST	ENDS
;	COMDAT ??_C@_0DO@EHPP@GL_ARB_fragment_shader?5not?5suppo@
CONST	SEGMENT
??_C@_0DO@EHPP@GL_ARB_fragment_shader?5not?5suppo@ DB 'GL_ARB_fragment_sh'
	DB	'ader not support. Custom renderer disabled', 0aH, 00H ; `string'
CONST	ENDS
;	COMDAT ??_C@_0BA@OLNG@gl_depthtexture?$AA@
CONST	SEGMENT
??_C@_0BA@OLNG@gl_depthtexture?$AA@ DB 'gl_depthtexture', 00H ; `string'
CONST	ENDS
;	COMDAT ??_C@_0BF@KPLK@GL_ARB_depth_texture?$AA@
CONST	SEGMENT
??_C@_0BF@KPLK@GL_ARB_depth_texture?$AA@ DB 'GL_ARB_depth_texture', 00H ; `string'
CONST	ENDS
;	COMDAT ??_C@_0O@EGIH@gl_arb_shadow?$AA@
CONST	SEGMENT
??_C@_0O@EGIH@gl_arb_shadow?$AA@ DB 'gl_arb_shadow', 00H ; `string'
CONST	ENDS
;	COMDAT ??_C@_0O@GCPF@GL_ARB_shadow?$AA@
CONST	SEGMENT
??_C@_0O@GCPF@GL_ARB_shadow?$AA@ DB 'GL_ARB_shadow', 00H ; `string'
CONST	ENDS
;	COMDAT ??_C@_0EN@IMBG@GL_ARB_depth_texture?5or?5GL_ARB_s@
CONST	SEGMENT
??_C@_0EN@IMBG@GL_ARB_depth_texture?5or?5GL_ARB_s@ DB 'GL_ARB_depth_textu'
	DB	're or GL_ARB_shadow not support. Dynamic shadows disabled', 0aH
	DB	00H						; `string'
CONST	ENDS
;	COMDAT ??_C@_0BA@FMLF@gl_framebuffers?$AA@
CONST	SEGMENT
??_C@_0BA@FMLF@gl_framebuffers?$AA@ DB 'gl_framebuffers', 00H ; `string'
CONST	ENDS
;	COMDAT ??_C@_0BK@PNNB@GL_ARB_framebuffer_object?$AA@
CONST	SEGMENT
??_C@_0BK@PNNB@GL_ARB_framebuffer_object?$AA@ DB 'GL_ARB_framebuffer_obje'
	DB	'ct', 00H					; `string'
CONST	ENDS
;	COMDAT ??_C@_0BC@PPEB@PARANOIA_HACKS_V1?$AA@
CONST	SEGMENT
??_C@_0BC@PPEB@PARANOIA_HACKS_V1?$AA@ DB 'PARANOIA_HACKS_V1', 00H ; `string'
CONST	ENDS
;	COMDAT ??_C@_0DJ@NHKL@Hardware?5Skinning?5not?5support?4?5C@
CONST	SEGMENT
??_C@_0DJ@NHKL@Hardware?5Skinning?5not?5support?4?5C@ DB 'Hardware Skinni'
	DB	'ng not support. Custom renderer disabled', 0aH, 00H ; `string'
CONST	ENDS
;	COMDAT ??_C@_0DD@KJDP@Hardware?5Skinning?5has?5a?5limitati@
CONST	SEGMENT
??_C@_0DD@KJDP@Hardware?5Skinning?5has?5a?5limitati@ DB 'Hardware Skinnin'
	DB	'g has a limitation (max %i bones)', 0aH, 00H ; `string'
CONST	ENDS
;	COMDAT ??_C@_0CL@LOID@GL_InitExtensions?3?5max?5vertex?5un@
CONST	SEGMENT
??_C@_0CL@LOID@GL_InitExtensions?3?5max?5vertex?5un@ DB 'GL_InitExtension'
	DB	's: max vertex uniforms %i', 0aH, 00H	; `string'
CONST	ENDS
;	COMDAT ??_C@_0CK@PCHI@GL_InitExtensions?3?5max?5varying?5f@
CONST	SEGMENT
??_C@_0CK@PCHI@GL_InitExtensions?3?5max?5varying?5f@ DB 'GL_InitExtension'
	DB	's: max varying floats %i', 0aH, 00H		; `string'
CONST	ENDS
;	COMDAT ??_C@_0CI@DGHF@GL_InitExtensions?3?5MaxSkinned?5bo@
CONST	SEGMENT
??_C@_0CI@DGHF@GL_InitExtensions?3?5MaxSkinned?5bo@ DB 'GL_InitExtensions'
	DB	': MaxSkinned bones %i', 0aH, 00H		; `string'
CONST	ENDS
;	COMDAT ?GL_InitExtensions@@YAXXZ
_TEXT	SEGMENT
?GL_InitExtensions@@YAXXZ PROC NEAR			; GL_InitExtensions, COMDAT

; 451  : {

	push	ebp
	mov	ebp, esp
	sub	esp, 84					; 00000054H
	push	ebx
	push	esi
	push	edi

; 452  : 	if( g_iXashEngineBuildNumber < 4140 )

	cmp	DWORD PTR ?g_iXashEngineBuildNumber@@3HA, 4140 ; g_iXashEngineBuildNumber, 0000102cH
	jge	SHORT $L71738

; 454  : 		ALERT( at_error, "too old version of Xash3D engine. XashXT required at least build 4140 or higher\n" );

	push	OFFSET FLAT:??_C@_0FB@OLOB@too?5old?5version?5of?5Xash3D?5engine@ ; `string'
	push	4
	call	?ALERT@@YAXW4ALERT_TYPE@@PADZZ		; ALERT
	add	esp, 8

; 455  : 		g_fRenderInitialized = FALSE;

	mov	DWORD PTR ?g_fRenderInitialized@@3HA, 0	; g_fRenderInitialized

; 456  : 		return;

	jmp	$L71737
$L71738:

; 458  : 
; 459  : 	// initialize gl extensions
; 460  : 	GL_CheckExtension( "OpenGL 1.1.0", opengl_110funcs, NULL, R_OPENGL_110 );

	push	0
	push	0
	push	0
	push	OFFSET FLAT:_opengl_110funcs
	push	OFFSET FLAT:??_C@_0N@LKKG@OpenGL?51?41?40?$AA@ ; `string'
	call	?GL_CheckExtension@@YAXPBDPBUdllfunc_s@@0H_N@Z ; GL_CheckExtension
	add	esp, 20					; 00000014H

; 461  : 
; 462  : 	if( !GL_Support( R_OPENGL_110 ))

	push	0
	call	?GL_Support@@YA_NH@Z			; GL_Support
	add	esp, 4
	and	eax, 255				; 000000ffH
	test	eax, eax
	jne	SHORT $L71741

; 464  : 		ALERT( at_error, "OpenGL 1.0 can't be installed. Custom renderer disabled\n" );

	push	OFFSET FLAT:??_C@_0DJ@PLJ@OpenGL?51?40?5can?8t?5be?5installed?4?5C@ ; `string'
	push	4
	call	?ALERT@@YAXW4ALERT_TYPE@@PADZZ		; ALERT
	add	esp, 8

; 465  : 		g_fRenderInitialized = FALSE;

	mov	DWORD PTR ?g_fRenderInitialized@@3HA, 0	; g_fRenderInitialized

; 466  : 		return;

	jmp	$L71737
$L71741:

; 468  : 
; 469  : 	// get our various GL strings
; 470  : 	glConfig.vendor_string = pglGetString( GL_VENDOR );

	push	7936					; 00001f00H
	call	DWORD PTR ?pglGetString@@3P6GPBDI@ZA	; pglGetString
	mov	DWORD PTR ?glConfig@@3UglConfig_t@@A+8, eax

; 471  : 	glConfig.renderer_string = pglGetString( GL_RENDERER );

	push	7937					; 00001f01H
	call	DWORD PTR ?pglGetString@@3P6GPBDI@ZA	; pglGetString
	mov	DWORD PTR ?glConfig@@3UglConfig_t@@A, eax

; 472  : 	glConfig.version_string = pglGetString( GL_VERSION );

	push	7938					; 00001f02H
	call	DWORD PTR ?pglGetString@@3P6GPBDI@ZA	; pglGetString
	mov	DWORD PTR ?glConfig@@3UglConfig_t@@A+4, eax

; 473  : 	glConfig.extensions_string = pglGetString( GL_EXTENSIONS );

	push	7939					; 00001f03H
	call	DWORD PTR ?pglGetString@@3P6GPBDI@ZA	; pglGetString
	mov	DWORD PTR ?glConfig@@3UglConfig_t@@A+16, eax

; 474  : 
; 475  : 	if( Q_stristr( glConfig.renderer_string, "geforce" ))

	push	OFFSET FLAT:??_C@_07LDAK@geforce?$AA@	; `string'
	mov	eax, DWORD PTR ?glConfig@@3UglConfig_t@@A
	push	eax
	call	?Q_stristr@@YAPADPBD0@Z			; Q_stristr
	add	esp, 8
	test	eax, eax
	je	SHORT $L71743

; 476  : 		glConfig.hardware_type = GLHW_NVIDIA;

	mov	DWORD PTR ?glConfig@@3UglConfig_t@@A+12, 2

; 477  : 	else if( Q_stristr( glConfig.renderer_string, "quadro fx" ))

	jmp	$L71762
$L71743:
	push	OFFSET FLAT:??_C@_09CLDH@quadro?5fx?$AA@ ; `string'
	mov	ecx, DWORD PTR ?glConfig@@3UglConfig_t@@A
	push	ecx
	call	?Q_stristr@@YAPADPBD0@Z			; Q_stristr
	add	esp, 8
	test	eax, eax
	je	SHORT $L71746

; 478  : 		glConfig.hardware_type = GLHW_NVIDIA;

	mov	DWORD PTR ?glConfig@@3UglConfig_t@@A+12, 2

; 479  : 	else if( Q_stristr(glConfig.renderer_string, "rv770" ))

	jmp	$L71762
$L71746:
	push	OFFSET FLAT:??_C@_05MDAL@rv770?$AA@	; `string'
	mov	edx, DWORD PTR ?glConfig@@3UglConfig_t@@A
	push	edx
	call	?Q_stristr@@YAPADPBD0@Z			; Q_stristr
	add	esp, 8
	test	eax, eax
	je	SHORT $L71749

; 480  : 		glConfig.hardware_type = GLHW_RADEON;

	mov	DWORD PTR ?glConfig@@3UglConfig_t@@A+12, 1

; 481  : 	else if( Q_stristr(glConfig.renderer_string, "radeon hd" ))

	jmp	$L71762
$L71749:
	push	OFFSET FLAT:??_C@_09FNHN@radeon?5hd?$AA@ ; `string'
	mov	eax, DWORD PTR ?glConfig@@3UglConfig_t@@A
	push	eax
	call	?Q_stristr@@YAPADPBD0@Z			; Q_stristr
	add	esp, 8
	test	eax, eax
	je	SHORT $L71752

; 482  : 		glConfig.hardware_type = GLHW_RADEON;

	mov	DWORD PTR ?glConfig@@3UglConfig_t@@A+12, 1

; 483  : 	else if( Q_stristr( glConfig.renderer_string, "eah4850" ) || Q_stristr( glConfig.renderer_string, "eah4870" ))

	jmp	SHORT $L71762
$L71752:
	push	OFFSET FLAT:??_C@_07DHCM@eah4850?$AA@	; `string'
	mov	ecx, DWORD PTR ?glConfig@@3UglConfig_t@@A
	push	ecx
	call	?Q_stristr@@YAPADPBD0@Z			; Q_stristr
	add	esp, 8
	test	eax, eax
	jne	SHORT $L71756
	push	OFFSET FLAT:??_C@_07BKHJ@eah4870?$AA@	; `string'
	mov	edx, DWORD PTR ?glConfig@@3UglConfig_t@@A
	push	edx
	call	?Q_stristr@@YAPADPBD0@Z			; Q_stristr
	add	esp, 8
	test	eax, eax
	je	SHORT $L71755
$L71756:

; 484  : 		glConfig.hardware_type = GLHW_RADEON;

	mov	DWORD PTR ?glConfig@@3UglConfig_t@@A+12, 1

; 485  : 	else if( Q_stristr( glConfig.renderer_string, "radeon" ))

	jmp	SHORT $L71762
$L71755:
	push	OFFSET FLAT:??_C@_06EBDE@radeon?$AA@	; `string'
	mov	eax, DWORD PTR ?glConfig@@3UglConfig_t@@A
	push	eax
	call	?Q_stristr@@YAPADPBD0@Z			; Q_stristr
	add	esp, 8
	test	eax, eax
	je	SHORT $L71760

; 486  : 		glConfig.hardware_type = GLHW_RADEON;

	mov	DWORD PTR ?glConfig@@3UglConfig_t@@A+12, 1

; 487  : 	else glConfig.hardware_type = GLHW_GENERIC;

	jmp	SHORT $L71762
$L71760:
	mov	DWORD PTR ?glConfig@@3UglConfig_t@@A+12, 0
$L71762:

; 488  : 
; 489  : 	GL_CheckExtension( "glDrawRangeElements", drawrangeelementsfuncs, "gl_drawrangeelments", R_DRAW_RANGEELEMENTS_EXT );

	push	0
	push	9
	push	OFFSET FLAT:??_C@_0BE@NIJB@gl_drawrangeelments?$AA@ ; `string'
	push	OFFSET FLAT:_drawrangeelementsfuncs
	push	OFFSET FLAT:??_C@_0BE@NEHK@glDrawRangeElements?$AA@ ; `string'
	call	?GL_CheckExtension@@YAXPBDPBUdllfunc_s@@0H_N@Z ; GL_CheckExtension
	add	esp, 20					; 00000014H

; 490  : 
; 491  : 	if( !GL_Support( R_DRAW_RANGEELEMENTS_EXT ))

	push	9
	call	?GL_Support@@YA_NH@Z			; GL_Support
	add	esp, 4
	and	eax, 255				; 000000ffH
	test	eax, eax
	jne	SHORT $L71764

; 492  : 		GL_CheckExtension( "GL_EXT_draw_range_elements", drawrangeelementsextfuncs, "gl_drawrangeelments", R_DRAW_RANGEELEMENTS_EXT );

	push	0
	push	9
	push	OFFSET FLAT:??_C@_0BE@NIJB@gl_drawrangeelments?$AA@ ; `string'
	push	OFFSET FLAT:_drawrangeelementsextfuncs
	push	OFFSET FLAT:??_C@_0BL@NAPA@GL_EXT_draw_range_elements?$AA@ ; `string'
	call	?GL_CheckExtension@@YAXPBDPBUdllfunc_s@@0H_N@Z ; GL_CheckExtension
	add	esp, 20					; 00000014H
$L71764:

; 493  : 
; 494  : 	// we don't care if it's an extension or not, they are identical functions, so keep it simple in the rendering code
; 495  : 	if( pglDrawRangeElementsEXT == NULL ) pglDrawRangeElementsEXT = pglDrawRangeElements;

	cmp	DWORD PTR ?pglDrawRangeElementsEXT@@3P6GXIIIHIPBX@ZA, 0 ; pglDrawRangeElementsEXT
	jne	SHORT $L71766
	mov	ecx, DWORD PTR ?pglDrawRangeElements@@3P6GXIIIHIPBX@ZA ; pglDrawRangeElements
	mov	DWORD PTR ?pglDrawRangeElementsEXT@@3P6GXIIIHIPBX@ZA, ecx ; pglDrawRangeElementsEXT
$L71766:

; 496  : 
; 497  : 	if( !GL_Support( R_DRAW_RANGEELEMENTS_EXT ))

	push	9
	call	?GL_Support@@YA_NH@Z			; GL_Support
	add	esp, 4
	and	eax, 255				; 000000ffH
	test	eax, eax
	jne	SHORT $L71767

; 499  : 		ALERT( at_error, "GL_EXT_draw_range_elements not support. Custom renderer disabled\n" );

	push	OFFSET FLAT:??_C@_0EC@CHCD@GL_EXT_draw_range_elements?5not?5s@ ; `string'
	push	4
	call	?ALERT@@YAXW4ALERT_TYPE@@PADZZ		; ALERT
	add	esp, 8

; 500  : 		g_fRenderInitialized = FALSE;

	mov	DWORD PTR ?g_fRenderInitialized@@3HA, 0	; g_fRenderInitialized

; 501  : 		return;

	jmp	$L71737
$L71767:

; 503  : 
; 504  : 	// multitexture
; 505  : 	glConfig.max_texture_units = 1;

	mov	DWORD PTR ?glConfig@@3UglConfig_t@@A+40, 1

; 506  : 	GL_CheckExtension( "GL_ARB_multitexture", multitexturefuncs, "gl_arb_multitexture", R_ARB_MULTITEXTURE, true );

	push	1
	push	6
	push	OFFSET FLAT:??_C@_0BE@FNCD@gl_arb_multitexture?$AA@ ; `string'
	push	OFFSET FLAT:_multitexturefuncs
	push	OFFSET FLAT:??_C@_0BE@EHGK@GL_ARB_multitexture?$AA@ ; `string'
	call	?GL_CheckExtension@@YAXPBDPBUdllfunc_s@@0H_N@Z ; GL_CheckExtension
	add	esp, 20					; 00000014H

; 507  : 
; 508  : 	if( GL_Support( R_ARB_MULTITEXTURE ))

	push	6
	call	?GL_Support@@YA_NH@Z			; GL_Support
	add	esp, 4
	and	eax, 255				; 000000ffH
	test	eax, eax
	je	SHORT $L71771

; 509  : 		pglGetIntegerv( GL_MAX_TEXTURE_UNITS_ARB, &glConfig.max_texture_units );

	push	OFFSET FLAT:?glConfig@@3UglConfig_t@@A+40
	push	34018					; 000084e2H
	call	DWORD PTR ?pglGetIntegerv@@3P6GXIPAH@ZA	; pglGetIntegerv
$L71771:

; 510  : 
; 511  : 	if( glConfig.max_texture_units == 1 )

	cmp	DWORD PTR ?glConfig@@3UglConfig_t@@A+40, 1
	jne	SHORT $L71772

; 512  : 		GL_SetExtension( R_ARB_MULTITEXTURE, false );

	push	0
	push	6
	call	?GL_SetExtension@@YAXHH@Z		; GL_SetExtension
	add	esp, 8
$L71772:

; 513  : 
; 514  : 	if( !GL_Support( R_ARB_MULTITEXTURE ))

	push	6
	call	?GL_Support@@YA_NH@Z			; GL_Support
	add	esp, 4
	and	eax, 255				; 000000ffH
	test	eax, eax
	jne	SHORT $L71773

; 516  : 		ALERT( at_error, "GL_ARB_multitexture not support. Custom renderer disabled\n" );

	push	OFFSET FLAT:??_C@_0DL@FPBP@GL_ARB_multitexture?5not?5support?4@ ; `string'
	push	4
	call	?ALERT@@YAXW4ALERT_TYPE@@PADZZ		; ALERT
	add	esp, 8

; 517  : 		g_fRenderInitialized = FALSE;

	mov	DWORD PTR ?g_fRenderInitialized@@3HA, 0	; g_fRenderInitialized

; 518  : 		return;

	jmp	$L71737
$L71773:

; 520  : 
; 521  : 	// 3d texture support
; 522  : 	GL_CheckExtension( "GL_EXT_texture3D", texture3dextfuncs, "gl_texture_3d", R_TEXTURE_3D_EXT, true );

	push	1
	push	10					; 0000000aH
	push	OFFSET FLAT:??_C@_0O@DAMC@gl_texture_3d?$AA@ ; `string'
	push	OFFSET FLAT:_texture3dextfuncs
	push	OFFSET FLAT:??_C@_0BB@JKDM@GL_EXT_texture3D?$AA@ ; `string'
	call	?GL_CheckExtension@@YAXPBDPBUdllfunc_s@@0H_N@Z ; GL_CheckExtension
	add	esp, 20					; 00000014H

; 523  : 
; 524  : 	if( GL_Support( R_TEXTURE_3D_EXT ))

	push	10					; 0000000aH
	call	?GL_Support@@YA_NH@Z			; GL_Support
	add	esp, 4
	and	eax, 255				; 000000ffH
	test	eax, eax
	je	SHORT $L71778

; 526  : 		pglGetIntegerv( GL_MAX_3D_TEXTURE_SIZE, &glConfig.max_3d_texture_size );

	push	OFFSET FLAT:?glConfig@@3UglConfig_t@@A+48
	push	32883					; 00008073H
	call	DWORD PTR ?pglGetIntegerv@@3P6GXIPAH@ZA	; pglGetIntegerv

; 527  : 
; 528  : 		if( glConfig.max_3d_texture_size < 32 )

	cmp	DWORD PTR ?glConfig@@3UglConfig_t@@A+48, 32 ; 00000020H
	jge	SHORT $L71778

; 530  : 			GL_SetExtension( R_TEXTURE_3D_EXT, false );

	push	0
	push	10					; 0000000aH
	call	?GL_SetExtension@@YAXHH@Z		; GL_SetExtension
	add	esp, 8

; 531  : 			ALERT( at_error, "GL_EXT_texture3D reported bogus GL_MAX_3D_TEXTURE_SIZE, disabled\n" );

	push	OFFSET FLAT:??_C@_0EC@NDJE@GL_EXT_texture3D?5reported?5bogus?5@ ; `string'
	push	4
	call	?ALERT@@YAXW4ALERT_TYPE@@PADZZ		; ALERT
	add	esp, 8
$L71778:

; 534  : 
; 535  : 	// 2d texture array support
; 536  : 	GL_CheckExtension( "GL_EXT_texture_array", texture3dextfuncs, "gl_texture_2d_array", R_TEXTURE_ARRAY_EXT, true );

	push	1
	push	5
	push	OFFSET FLAT:??_C@_0BE@PKC@gl_texture_2d_array?$AA@ ; `string'
	push	OFFSET FLAT:_texture3dextfuncs
	push	OFFSET FLAT:??_C@_0BF@GPMN@GL_EXT_texture_array?$AA@ ; `string'
	call	?GL_CheckExtension@@YAXPBDPBUdllfunc_s@@0H_N@Z ; GL_CheckExtension
	add	esp, 20					; 00000014H

; 537  : 
; 538  : 	if( !GL_Support( R_TEXTURE_ARRAY_EXT ))

	push	5
	call	?GL_Support@@YA_NH@Z			; GL_Support
	add	esp, 4
	and	eax, 255				; 000000ffH
	test	eax, eax
	jne	SHORT $L71782

; 539  : 		ALERT( at_warning, "GL_EXT_texture_array not support. Landscapes will be unavailable\n" );

	push	OFFSET FLAT:??_C@_0EC@GAH@GL_EXT_texture_array?5not?5support@ ; `string'
	push	3
	call	?ALERT@@YAXW4ALERT_TYPE@@PADZZ		; ALERT
	add	esp, 8
$L71782:

; 540  : 
; 541  : 	// hardware cubemaps
; 542  : 	GL_CheckExtension( "GL_ARB_texture_cube_map", NULL, "gl_texture_cubemap", R_TEXTURECUBEMAP_EXT, true );

	push	1
	push	7
	push	OFFSET FLAT:??_C@_0BD@JPCC@gl_texture_cubemap?$AA@ ; `string'
	push	0
	push	OFFSET FLAT:??_C@_0BI@BMEH@GL_ARB_texture_cube_map?$AA@ ; `string'
	call	?GL_CheckExtension@@YAXPBDPBUdllfunc_s@@0H_N@Z ; GL_CheckExtension
	add	esp, 20					; 00000014H

; 543  : 
; 544  : 	if( GL_Support( R_TEXTURECUBEMAP_EXT ))

	push	7
	call	?GL_Support@@YA_NH@Z			; GL_Support
	add	esp, 4
	and	eax, 255				; 000000ffH
	test	eax, eax
	je	SHORT $L71786

; 545  : 		pglGetIntegerv( GL_MAX_CUBE_MAP_TEXTURE_SIZE_ARB, &glConfig.max_cubemap_size );

	push	OFFSET FLAT:?glConfig@@3UglConfig_t@@A+52
	push	34076					; 0000851cH
	call	DWORD PTR ?pglGetIntegerv@@3P6GXIPAH@ZA	; pglGetIntegerv

; 546  : 	else ALERT( at_warning, "GL_ARB_texture_cube_map not support. Cubemap reflections and omni shadows will be disabled\n" );

	jmp	SHORT $L71787
$L71786:
	push	OFFSET FLAT:??_C@_0FM@JLFB@GL_ARB_texture_cube_map?5not?5supp@ ; `string'
	push	3
	call	?ALERT@@YAXW4ALERT_TYPE@@PADZZ		; ALERT
	add	esp, 8
$L71787:

; 547  : 
; 548  : 	GL_CheckExtension( "GL_ARB_texture_non_power_of_two", NULL, "gl_texture_npot", R_ARB_TEXTURE_NPOT_EXT, true );

	push	1
	push	14					; 0000000eH
	push	OFFSET FLAT:??_C@_0BA@NMAL@gl_texture_npot?$AA@ ; `string'
	push	0
	push	OFFSET FLAT:??_C@_0CA@FJOC@GL_ARB_texture_non_power_of_two?$AA@ ; `string'
	call	?GL_CheckExtension@@YAXPBDPBUdllfunc_s@@0H_N@Z ; GL_CheckExtension
	add	esp, 20					; 00000014H

; 549  : 
; 550  : 	GL_CheckExtension( "GL_ARB_vertex_buffer_object", vbofuncs, "gl_vertex_buffer_object", R_ARB_VERTEX_BUFFER_OBJECT_EXT );

	push	0
	push	2
	push	OFFSET FLAT:??_C@_0BI@OBAB@gl_vertex_buffer_object?$AA@ ; `string'
	push	OFFSET FLAT:_vbofuncs
	push	OFFSET FLAT:??_C@_0BM@HCAG@GL_ARB_vertex_buffer_object?$AA@ ; `string'
	call	?GL_CheckExtension@@YAXPBDPBUdllfunc_s@@0H_N@Z ; GL_CheckExtension
	add	esp, 20					; 00000014H

; 551  : 
; 552  : 	if( !GL_Support( R_ARB_VERTEX_BUFFER_OBJECT_EXT ))

	push	2
	call	?GL_Support@@YA_NH@Z			; GL_Support
	add	esp, 4
	and	eax, 255				; 000000ffH
	test	eax, eax
	jne	SHORT $L71793

; 554  : 		ALERT( at_error, "GL_ARB_vertex_buffer_object not support. Custom renderer disabled\n" );

	push	OFFSET FLAT:??_C@_0ED@PDBL@GL_ARB_vertex_buffer_object?5not?5@ ; `string'
	push	4
	call	?ALERT@@YAXW4ALERT_TYPE@@PADZZ		; ALERT
	add	esp, 8

; 555  : 		g_fRenderInitialized = FALSE;

	mov	DWORD PTR ?g_fRenderInitialized@@3HA, 0	; g_fRenderInitialized

; 556  : 		return;

	jmp	$L71737
$L71793:

; 558  : 
; 559  : 	GL_CheckExtension( "GL_ARB_vertex_array_object", vaofuncs, "gl_vertex_array_object", R_ARB_VERTEX_ARRAY_OBJECT_EXT );

	push	0
	push	3
	push	OFFSET FLAT:??_C@_0BH@DDOL@gl_vertex_array_object?$AA@ ; `string'
	push	OFFSET FLAT:_vaofuncs
	push	OFFSET FLAT:??_C@_0BL@DEIH@GL_ARB_vertex_array_object?$AA@ ; `string'
	call	?GL_CheckExtension@@YAXPBDPBUdllfunc_s@@0H_N@Z ; GL_CheckExtension
	add	esp, 20					; 00000014H

; 560  : 
; 561  : 	if( !GL_Support( R_ARB_VERTEX_ARRAY_OBJECT_EXT ))

	push	3
	call	?GL_Support@@YA_NH@Z			; GL_Support
	add	esp, 4
	and	eax, 255				; 000000ffH
	test	eax, eax
	jne	SHORT $L71797

; 563  : 		ALERT( at_error, "GL_ARB_vertex_array_object not support. Custom renderer disabled\n" );

	push	OFFSET FLAT:??_C@_0EC@GGIC@GL_ARB_vertex_array_object?5not?5s@ ; `string'
	push	4
	call	?ALERT@@YAXW4ALERT_TYPE@@PADZZ		; ALERT
	add	esp, 8

; 564  : 		g_fRenderInitialized = FALSE;

	mov	DWORD PTR ?g_fRenderInitialized@@3HA, 0	; g_fRenderInitialized

; 565  : 		return;

	jmp	$L71737
$L71797:

; 567  : 
; 568  : 	GL_CheckExtension( "GL_EXT_gpu_shader4", NULL, "gl_ext_gpu_shader4", R_EXT_GPU_SHADER4 );

	push	0
	push	4
	push	OFFSET FLAT:??_C@_0BD@GLDC@gl_ext_gpu_shader4?$AA@ ; `string'
	push	0
	push	OFFSET FLAT:??_C@_0BD@CCBE@GL_EXT_gpu_shader4?$AA@ ; `string'
	call	?GL_CheckExtension@@YAXPBDPBUdllfunc_s@@0H_N@Z ; GL_CheckExtension
	add	esp, 20					; 00000014H

; 569  : 	GL_CheckExtension( "GL_ARB_debug_output", debugoutputfuncs, NULL, R_DEBUG_OUTPUT );

	push	0
	push	19					; 00000013H
	push	0
	push	OFFSET FLAT:_debugoutputfuncs
	push	OFFSET FLAT:??_C@_0BE@IKOO@GL_ARB_debug_output?$AA@ ; `string'
	call	?GL_CheckExtension@@YAXPBDPBUdllfunc_s@@0H_N@Z ; GL_CheckExtension
	add	esp, 20					; 00000014H

; 570  : 
; 571  : 	// vp and fp shaders
; 572  : 	GL_CheckExtension( "GL_ARB_shader_objects", shaderobjectsfuncs, "gl_shaderobjects", R_SHADER_OBJECTS_EXT );

	push	0
	push	11					; 0000000bH
	push	OFFSET FLAT:??_C@_0BB@MEGL@gl_shaderobjects?$AA@ ; `string'
	push	OFFSET FLAT:_shaderobjectsfuncs
	push	OFFSET FLAT:??_C@_0BG@KEPG@GL_ARB_shader_objects?$AA@ ; `string'
	call	?GL_CheckExtension@@YAXPBDPBUdllfunc_s@@0H_N@Z ; GL_CheckExtension
	add	esp, 20					; 00000014H

; 573  : 
; 574  : 	if( !GL_Support( R_SHADER_OBJECTS_EXT ))

	push	11					; 0000000bH
	call	?GL_Support@@YA_NH@Z			; GL_Support
	add	esp, 4
	and	eax, 255				; 000000ffH
	test	eax, eax
	jne	SHORT $L71804

; 576  : 		ALERT( at_error, "GL_ARB_shader_objects not support. Custom renderer disabled\n" );

	push	OFFSET FLAT:??_C@_0DN@JJGE@GL_ARB_shader_objects?5not?5suppor@ ; `string'
	push	4
	call	?ALERT@@YAXW4ALERT_TYPE@@PADZZ		; ALERT
	add	esp, 8

; 577  : 		g_fRenderInitialized = FALSE;

	mov	DWORD PTR ?g_fRenderInitialized@@3HA, 0	; g_fRenderInitialized

; 578  : 		return;

	jmp	$L71737
$L71804:

; 580  : 
; 581  : 	GL_CheckExtension( "GL_ARB_shading_language_100", NULL, "gl_shading_language", R_SHADER_GLSL100_EXT );

	push	0
	push	8
	push	OFFSET FLAT:??_C@_0BE@JDFA@gl_shading_language?$AA@ ; `string'
	push	0
	push	OFFSET FLAT:??_C@_0BM@BHKJ@GL_ARB_shading_language_100?$AA@ ; `string'
	call	?GL_CheckExtension@@YAXPBDPBUdllfunc_s@@0H_N@Z ; GL_CheckExtension
	add	esp, 20					; 00000014H

; 582  : 
; 583  : 	if( !GL_Support( R_SHADER_GLSL100_EXT ))

	push	8
	call	?GL_Support@@YA_NH@Z			; GL_Support
	add	esp, 4
	and	eax, 255				; 000000ffH
	test	eax, eax
	jne	SHORT $L71808

; 585  : 		ALERT( at_error, "GL_ARB_shading_language_100 not support. Custom renderer disabled\n" );

	push	OFFSET FLAT:??_C@_0ED@LPKD@GL_ARB_shading_language_100?5not?5@ ; `string'
	push	4
	call	?ALERT@@YAXW4ALERT_TYPE@@PADZZ		; ALERT
	add	esp, 8

; 586  : 		g_fRenderInitialized = FALSE;

	mov	DWORD PTR ?g_fRenderInitialized@@3HA, 0	; g_fRenderInitialized

; 587  : 		return;

	jmp	$L71737
$L71808:

; 589  : 
; 590  : 	GL_CheckExtension( "GL_ARB_vertex_shader", vertexshaderfuncs, "gl_vertexshader", R_VERTEX_SHADER_EXT );

	push	0
	push	12					; 0000000cH
	push	OFFSET FLAT:??_C@_0BA@FCIN@gl_vertexshader?$AA@ ; `string'
	push	OFFSET FLAT:_vertexshaderfuncs
	push	OFFSET FLAT:??_C@_0BF@HLIM@GL_ARB_vertex_shader?$AA@ ; `string'
	call	?GL_CheckExtension@@YAXPBDPBUdllfunc_s@@0H_N@Z ; GL_CheckExtension
	add	esp, 20					; 00000014H

; 591  : 
; 592  : 	if( !GL_Support( R_VERTEX_SHADER_EXT ))

	push	12					; 0000000cH
	call	?GL_Support@@YA_NH@Z			; GL_Support
	add	esp, 4
	and	eax, 255				; 000000ffH
	test	eax, eax
	jne	SHORT $L71812

; 594  : 		ALERT( at_error, "GL_ARB_vertex_shader not support. Custom renderer disabled\n" );

	push	OFFSET FLAT:??_C@_0DM@OFIB@GL_ARB_vertex_shader?5not?5support@ ; `string'
	push	4
	call	?ALERT@@YAXW4ALERT_TYPE@@PADZZ		; ALERT
	add	esp, 8

; 595  : 		g_fRenderInitialized = FALSE;

	mov	DWORD PTR ?g_fRenderInitialized@@3HA, 0	; g_fRenderInitialized

; 596  : 		return;

	jmp	$L71737
$L71812:

; 598  : 
; 599  : 	GL_CheckExtension( "GL_ARB_fragment_shader", NULL, "gl_pixelshader", R_FRAGMENT_SHADER_EXT );

	push	0
	push	13					; 0000000dH
	push	OFFSET FLAT:??_C@_0P@MEOB@gl_pixelshader?$AA@ ; `string'
	push	0
	push	OFFSET FLAT:??_C@_0BH@KFOL@GL_ARB_fragment_shader?$AA@ ; `string'
	call	?GL_CheckExtension@@YAXPBDPBUdllfunc_s@@0H_N@Z ; GL_CheckExtension
	add	esp, 20					; 00000014H

; 600  : 
; 601  : 	if( !GL_Support( R_FRAGMENT_SHADER_EXT ))

	push	13					; 0000000dH
	call	?GL_Support@@YA_NH@Z			; GL_Support
	add	esp, 4
	and	eax, 255				; 000000ffH
	test	eax, eax
	jne	SHORT $L71816

; 603  : 		ALERT( at_error, "GL_ARB_fragment_shader not support. Custom renderer disabled\n" );

	push	OFFSET FLAT:??_C@_0DO@EHPP@GL_ARB_fragment_shader?5not?5suppo@ ; `string'
	push	4
	call	?ALERT@@YAXW4ALERT_TYPE@@PADZZ		; ALERT
	add	esp, 8

; 604  : 		g_fRenderInitialized = FALSE;

	mov	DWORD PTR ?g_fRenderInitialized@@3HA, 0	; g_fRenderInitialized

; 605  : 		return;

	jmp	$L71737
$L71816:

; 607  : 
; 608  : 	GL_CheckExtension( "GL_ARB_depth_texture", NULL, "gl_depthtexture", R_DEPTH_TEXTURE );

	push	0
	push	15					; 0000000fH
	push	OFFSET FLAT:??_C@_0BA@OLNG@gl_depthtexture?$AA@ ; `string'
	push	0
	push	OFFSET FLAT:??_C@_0BF@KPLK@GL_ARB_depth_texture?$AA@ ; `string'
	call	?GL_CheckExtension@@YAXPBDPBUdllfunc_s@@0H_N@Z ; GL_CheckExtension
	add	esp, 20					; 00000014H

; 609  : 	GL_CheckExtension( "GL_ARB_shadow", NULL, "gl_arb_shadow", R_SHADOW_EXT );

	push	0
	push	16					; 00000010H
	push	OFFSET FLAT:??_C@_0O@EGIH@gl_arb_shadow?$AA@ ; `string'
	push	0
	push	OFFSET FLAT:??_C@_0O@GCPF@GL_ARB_shadow?$AA@ ; `string'
	call	?GL_CheckExtension@@YAXPBDPBUdllfunc_s@@0H_N@Z ; GL_CheckExtension
	add	esp, 20					; 00000014H

; 610  : 
; 611  : 	if( !GL_Support( R_DEPTH_TEXTURE ) || !GL_Support( R_SHADOW_EXT ))

	push	15					; 0000000fH
	call	?GL_Support@@YA_NH@Z			; GL_Support
	add	esp, 4
	and	eax, 255				; 000000ffH
	test	eax, eax
	je	SHORT $L71823
	push	16					; 00000010H
	call	?GL_Support@@YA_NH@Z			; GL_Support
	add	esp, 4
	and	eax, 255				; 000000ffH
	test	eax, eax
	jne	SHORT $L71822
$L71823:

; 613  : 		ALERT( at_warning, "GL_ARB_depth_texture or GL_ARB_shadow not support. Dynamic shadows disabled\n" );

	push	OFFSET FLAT:??_C@_0EN@IMBG@GL_ARB_depth_texture?5or?5GL_ARB_s@ ; `string'
	push	3
	call	?ALERT@@YAXW4ALERT_TYPE@@PADZZ		; ALERT
	add	esp, 8

; 614  : 		tr.shadows_notsupport = true;

	mov	BYTE PTR ?tr@@3Uref_globals_t@@A+1411998, 1
$L71822:

; 616  : 
; 617  : 	glConfig.max_2d_texture_size = 0;

	mov	DWORD PTR ?glConfig@@3UglConfig_t@@A+44, 0

; 618  : 	pglGetIntegerv( GL_MAX_TEXTURE_SIZE, &glConfig.max_2d_texture_size );

	push	OFFSET FLAT:?glConfig@@3UglConfig_t@@A+44
	push	3379					; 00000d33H
	call	DWORD PTR ?pglGetIntegerv@@3P6GXIPAH@ZA	; pglGetIntegerv

; 619  : 	if( glConfig.max_2d_texture_size <= 0 ) glConfig.max_2d_texture_size = 256;

	cmp	DWORD PTR ?glConfig@@3UglConfig_t@@A+44, 0
	jg	SHORT $L71825
	mov	DWORD PTR ?glConfig@@3UglConfig_t@@A+44, 256 ; 00000100H
$L71825:

; 620  : 
; 621  : 	// FBO support
; 622  : 	GL_CheckExtension( "GL_ARB_framebuffer_object", fbofuncs, "gl_framebuffers", R_FRAMEBUFFER_OBJECT );

	push	0
	push	17					; 00000011H
	push	OFFSET FLAT:??_C@_0BA@FMLF@gl_framebuffers?$AA@ ; `string'
	push	OFFSET FLAT:_fbofuncs
	push	OFFSET FLAT:??_C@_0BK@PNNB@GL_ARB_framebuffer_object?$AA@ ; `string'
	call	?GL_CheckExtension@@YAXPBDPBUdllfunc_s@@0H_N@Z ; GL_CheckExtension
	add	esp, 20					; 00000014H

; 623  : 
; 624  : 	// Paranoia OpenGL32.dll may be eliminate shadows. Run special check for it
; 625  : 	GL_CheckExtension( "PARANOIA_HACKS_V1", NULL, NULL, R_PARANOIA_EXT );

	push	0
	push	18					; 00000012H
	push	0
	push	0
	push	OFFSET FLAT:??_C@_0BC@PPEB@PARANOIA_HACKS_V1?$AA@ ; `string'
	call	?GL_CheckExtension@@YAXPBDPBUdllfunc_s@@0H_N@Z ; GL_CheckExtension
	add	esp, 20					; 00000014H

; 626  : 
; 627  : 	// check for hardware skinning
; 628  : 	pglGetIntegerv( GL_MAX_VERTEX_UNIFORM_COMPONENTS_ARB, &glConfig.max_vertex_uniforms );

	push	OFFSET FLAT:?glConfig@@3UglConfig_t@@A+60
	push	35658					; 00008b4aH
	call	DWORD PTR ?pglGetIntegerv@@3P6GXIPAH@ZA	; pglGetIntegerv

; 629  : 	pglGetIntegerv( GL_MAX_VERTEX_ATTRIBS_ARB, &glConfig.max_vertex_attribs );

	push	OFFSET FLAT:?glConfig@@3UglConfig_t@@A+64
	push	34921					; 00008869H
	call	DWORD PTR ?pglGetIntegerv@@3P6GXIPAH@ZA	; pglGetIntegerv

; 630  : 	pglGetIntegerv( GL_MAX_VARYING_FLOATS_ARB, &glConfig.max_varying_floats );

	push	OFFSET FLAT:?glConfig@@3UglConfig_t@@A+68
	push	35659					; 00008b4bH
	call	DWORD PTR ?pglGetIntegerv@@3P6GXIPAH@ZA	; pglGetIntegerv

; 631  : 
; 632  : 	if( glConfig.hardware_type == GLHW_RADEON && glConfig.max_vertex_uniforms > 512 )

	cmp	DWORD PTR ?glConfig@@3UglConfig_t@@A+12, 1
	jne	SHORT $L71829
	cmp	DWORD PTR ?glConfig@@3UglConfig_t@@A+60, 512 ; 00000200H
	jle	SHORT $L71829

; 633  : 		glConfig.max_vertex_uniforms /= 4; // only radion returns count of floats other returns count of vec4

	mov	eax, DWORD PTR ?glConfig@@3UglConfig_t@@A+60
	cdq
	and	edx, 3
	add	eax, edx
	sar	eax, 2
	mov	DWORD PTR ?glConfig@@3UglConfig_t@@A+60, eax
$L71829:

; 634  : 
; 635  : 	glConfig.max_skinning_bones = bound( 0, ( Q_max( glConfig.max_vertex_uniforms - MAX_RESERVED_UNIFORMS, 0 ) / 7 ), MAXSTUDIOBONES );

	mov	edx, DWORD PTR ?glConfig@@3UglConfig_t@@A+60
	sub	edx, 22					; 00000016H
	test	edx, edx
	jle	SHORT $L72566
	mov	eax, DWORD PTR ?glConfig@@3UglConfig_t@@A+60
	sub	eax, 22					; 00000016H
	mov	DWORD PTR -4+[ebp], eax
	jmp	SHORT $L72567
$L72566:
	mov	DWORD PTR -4+[ebp], 0
$L72567:
	mov	eax, DWORD PTR -4+[ebp]
	cdq
	mov	ecx, 7
	idiv	ecx
	test	eax, eax
	jl	SHORT $L72574
	mov	edx, DWORD PTR ?glConfig@@3UglConfig_t@@A+60
	sub	edx, 22					; 00000016H
	test	edx, edx
	jle	SHORT $L72568
	mov	eax, DWORD PTR ?glConfig@@3UglConfig_t@@A+60
	sub	eax, 22					; 00000016H
	mov	DWORD PTR -8+[ebp], eax
	jmp	SHORT $L72569
$L72568:
	mov	DWORD PTR -8+[ebp], 0
$L72569:
	mov	eax, DWORD PTR -8+[ebp]
	cdq
	mov	ecx, 7
	idiv	ecx
	cmp	eax, 128				; 00000080H
	jge	SHORT $L72572
	mov	edx, DWORD PTR ?glConfig@@3UglConfig_t@@A+60
	sub	edx, 22					; 00000016H
	test	edx, edx
	jle	SHORT $L72570
	mov	eax, DWORD PTR ?glConfig@@3UglConfig_t@@A+60
	sub	eax, 22					; 00000016H
	mov	DWORD PTR -12+[ebp], eax
	jmp	SHORT $L72571
$L72570:
	mov	DWORD PTR -12+[ebp], 0
$L72571:
	mov	eax, DWORD PTR -12+[ebp]
	cdq
	mov	ecx, 7
	idiv	ecx
	mov	DWORD PTR -16+[ebp], eax
	jmp	SHORT $L72573
$L72572:
	mov	DWORD PTR -16+[ebp], 128		; 00000080H
$L72573:
	mov	edx, DWORD PTR -16+[ebp]
	mov	DWORD PTR -20+[ebp], edx
	jmp	SHORT $L72575
$L72574:
	mov	DWORD PTR -20+[ebp], 0
$L72575:
	mov	eax, DWORD PTR -20+[ebp]
	mov	DWORD PTR ?glConfig@@3UglConfig_t@@A+72, eax

; 636  : 
; 637  : 	if( glConfig.max_skinning_bones < 32 )

	cmp	DWORD PTR ?glConfig@@3UglConfig_t@@A+72, 32 ; 00000020H
	jge	SHORT $L71830

; 639  : 		ALERT( at_error, "Hardware Skinning not support. Custom renderer disabled\n" );

	push	OFFSET FLAT:??_C@_0DJ@NHKL@Hardware?5Skinning?5not?5support?4?5C@ ; `string'
	push	4
	call	?ALERT@@YAXW4ALERT_TYPE@@PADZZ		; ALERT
	add	esp, 8

; 640  : 		g_fRenderInitialized = FALSE;

	mov	DWORD PTR ?g_fRenderInitialized@@3HA, 0	; g_fRenderInitialized

; 641  : 		return;

	jmp	$L71737
$L71830:

; 643  : 	else if( glConfig.max_skinning_bones < MAXSTUDIOBONES )

	cmp	DWORD PTR ?glConfig@@3UglConfig_t@@A+72, 128 ; 00000080H
	jge	SHORT $L71833

; 645  : 		ALERT( at_warning, "Hardware Skinning has a limitation (max %i bones)\n", glConfig.max_skinning_bones );

	mov	ecx, DWORD PTR ?glConfig@@3UglConfig_t@@A+72
	push	ecx
	push	OFFSET FLAT:??_C@_0DD@KJDP@Hardware?5Skinning?5has?5a?5limitati@ ; `string'
	push	3
	call	?ALERT@@YAXW4ALERT_TYPE@@PADZZ		; ALERT
	add	esp, 12					; 0000000cH
$L71833:

; 650  : 
; 651  : 	ALERT( at_aiconsole, "GL_InitExtensions: max vertex uniforms %i\n", glConfig.max_vertex_uniforms );

	mov	edx, DWORD PTR ?glConfig@@3UglConfig_t@@A+60
	push	edx
	push	OFFSET FLAT:??_C@_0CL@LOID@GL_InitExtensions?3?5max?5vertex?5un@ ; `string'
	push	2
	call	?ALERT@@YAXW4ALERT_TYPE@@PADZZ		; ALERT
	add	esp, 12					; 0000000cH

; 652  : 	ALERT( at_aiconsole, "GL_InitExtensions: max varying floats %i\n", glConfig.max_varying_floats );

	mov	eax, DWORD PTR ?glConfig@@3UglConfig_t@@A+68
	push	eax
	push	OFFSET FLAT:??_C@_0CK@PCHI@GL_InitExtensions?3?5max?5varying?5f@ ; `string'
	push	2
	call	?ALERT@@YAXW4ALERT_TYPE@@PADZZ		; ALERT
	add	esp, 12					; 0000000cH

; 653  : 	ALERT( at_aiconsole, "GL_InitExtensions: MaxSkinned bones %i\n", glConfig.max_skinning_bones );

	mov	ecx, DWORD PTR ?glConfig@@3UglConfig_t@@A+72
	push	ecx
	push	OFFSET FLAT:??_C@_0CI@DGHF@GL_InitExtensions?3?5MaxSkinned?5bo@ ; `string'
	push	2
	call	?ALERT@@YAXW4ALERT_TYPE@@PADZZ		; ALERT
	add	esp, 12					; 0000000cH

; 654  : 
; 655  : 	glConfig.max_texture_units = RENDER_GET_PARM( PARM_MAX_IMAGE_UNITS, 0 );

	push	0
	push	29					; 0000001dH
	call	DWORD PTR ?gRenderfuncs@@3Urender_api_s@@A
	add	esp, 8
	mov	DWORD PTR ?glConfig@@3UglConfig_t@@A+40, eax

; 656  : 
; 657  : 	if( GL_Support( R_DEBUG_OUTPUT ))

	push	19					; 00000013H
	call	?GL_Support@@YA_NH@Z			; GL_Support
	add	esp, 4
	and	eax, 255				; 000000ffH
	test	eax, eax
	je	SHORT $L71838

; 659  : 		pglDebugMessageCallbackARB( GL_DebugOutput, NULL );

	push	0
	push	OFFSET FLAT:?GL_DebugOutput@@YGXIIIIHPBDPAX@Z ; GL_DebugOutput
	call	DWORD PTR ?pglDebugMessageCallbackARB@@3P6GXP6GXIIIIHPBDPAX@Z1@ZA ; pglDebugMessageCallbackARB

; 660  : 
; 661  : 		// force everything to happen in the main thread instead of in a separate driver thread
; 662  : 		pglEnable( GL_DEBUG_OUTPUT_SYNCHRONOUS_ARB );

	push	33346					; 00008242H
	call	DWORD PTR ?pglEnable@@3P6GXI@ZA		; pglEnable

; 663  : 
; 664  : 		// enable all the low priority messages
; 665  : 		pglDebugMessageControlARB( GL_DONT_CARE, GL_DONT_CARE, GL_DEBUG_SEVERITY_LOW_ARB, 0, NULL, true );

	push	1
	push	0
	push	0
	push	37192					; 00009148H
	push	4352					; 00001100H
	push	4352					; 00001100H
	call	DWORD PTR ?pglDebugMessageControlARB@@3P6GXIIIHPBIE@ZA ; pglDebugMessageControlARB
$L71838:
$L71737:

; 667  : }

	pop	edi
	pop	esi
	pop	ebx
	mov	esp, ebp
	pop	ebp
	ret	0
?GL_InitExtensions@@YAXXZ ENDP				; GL_InitExtensions
_TEXT	ENDS
PUBLIC	??_C@_0BG@IHGG@?$FO1OpenGL?5Error?3?$FO7?5?$CFs?6?$AA@ ; `string'
PUBLIC	??_C@_0BI@KBAC@?$FO3OpenGL?5Warning?3?$FO7?5?$CFs?6?$AA@ ; `string'
PUBLIC	??_C@_0BH@FJN@OpenGL?5Perfomance?3?5?$CFs?6?$AA@ ; `string'
PUBLIC	??_C@_0M@BMCH@OpenGL?3?5?$CFs?6?$AA@		; `string'
EXTRN	?developer_level@@3HA:DWORD			; developer_level
EXTRN	?va@@YAPADPBDZZ:NEAR				; va
;	COMDAT ??_C@_0BG@IHGG@?$FO1OpenGL?5Error?3?$FO7?5?$CFs?6?$AA@
; File z:\xashxtsrc\client\render\r_opengl.cpp
CONST	SEGMENT
??_C@_0BG@IHGG@?$FO1OpenGL?5Error?3?$FO7?5?$CFs?6?$AA@ DB '^1OpenGL Error'
	DB	':^7 %s', 0aH, 00H				; `string'
CONST	ENDS
;	COMDAT ??_C@_0BI@KBAC@?$FO3OpenGL?5Warning?3?$FO7?5?$CFs?6?$AA@
CONST	SEGMENT
??_C@_0BI@KBAC@?$FO3OpenGL?5Warning?3?$FO7?5?$CFs?6?$AA@ DB '^3OpenGL War'
	DB	'ning:^7 %s', 0aH, 00H			; `string'
CONST	ENDS
;	COMDAT ??_C@_0BH@FJN@OpenGL?5Perfomance?3?5?$CFs?6?$AA@
CONST	SEGMENT
??_C@_0BH@FJN@OpenGL?5Perfomance?3?5?$CFs?6?$AA@ DB 'OpenGL Perfomance: %'
	DB	's', 0aH, 00H				; `string'
CONST	ENDS
;	COMDAT ??_C@_0M@BMCH@OpenGL?3?5?$CFs?6?$AA@
CONST	SEGMENT
??_C@_0M@BMCH@OpenGL?3?5?$CFs?6?$AA@ DB 'OpenGL: %s', 0aH, 00H ; `string'
CONST	ENDS
;	COMDAT ?GL_DebugOutput@@YGXIIIIHPBDPAX@Z
_TEXT	SEGMENT
_type$ = 12
_message$ = 28
?GL_DebugOutput@@YGXIIIIHPBDPAX@Z PROC NEAR		; GL_DebugOutput, COMDAT

; 345  : {

	push	ebp
	mov	ebp, esp
	sub	esp, 68					; 00000044H
	push	ebx
	push	esi
	push	edi

; 347  : 	{

	mov	eax, DWORD PTR _type$[ebp]
	mov	DWORD PTR -4+[ebp], eax
	mov	ecx, DWORD PTR -4+[ebp]
	sub	ecx, 33356				; 0000824cH
	mov	DWORD PTR -4+[ebp], ecx
	cmp	DWORD PTR -4+[ebp], 4
	ja	$L71689
	mov	edx, DWORD PTR -4+[ebp]
	jmp	DWORD PTR $L72578[edx*4]
$L71680:

; 348  : 	case GL_DEBUG_TYPE_ERROR_ARB:
; 349  : 		gEngfuncs.Con_Printf( va( "^1OpenGL Error:^7 %s\n", message ));

	mov	eax, DWORD PTR _message$[ebp]
	push	eax
	push	OFFSET FLAT:??_C@_0BG@IHGG@?$FO1OpenGL?5Error?3?$FO7?5?$CFs?6?$AA@ ; `string'
	call	?va@@YAPADPBDZZ				; va
	add	esp, 8
	push	eax
	call	DWORD PTR ?gEngfuncs@@3Ucl_enginefuncs_s@@A+160
	add	esp, 4

; 350  : 		break;

	jmp	$L71677
$L71682:

; 351  : 	case GL_DEBUG_TYPE_DEPRECATED_BEHAVIOR_ARB:
; 352  : 		gEngfuncs.Con_Printf( va( "^3OpenGL Warning:^7 %s\n", message ));

	mov	ecx, DWORD PTR _message$[ebp]
	push	ecx
	push	OFFSET FLAT:??_C@_0BI@KBAC@?$FO3OpenGL?5Warning?3?$FO7?5?$CFs?6?$AA@ ; `string'
	call	?va@@YAPADPBDZZ				; va
	add	esp, 8
	push	eax
	call	DWORD PTR ?gEngfuncs@@3Ucl_enginefuncs_s@@A+160
	add	esp, 4

; 353  : 		break;

	jmp	$L71677
$L71684:

; 354  : 	case GL_DEBUG_TYPE_UNDEFINED_BEHAVIOR_ARB:
; 355  : 		gEngfuncs.Con_Printf( va( "^3OpenGL Warning:^7 %s\n", message ));

	mov	edx, DWORD PTR _message$[ebp]
	push	edx
	push	OFFSET FLAT:??_C@_0BI@KBAC@?$FO3OpenGL?5Warning?3?$FO7?5?$CFs?6?$AA@ ; `string'
	call	?va@@YAPADPBDZZ				; va
	add	esp, 8
	push	eax
	call	DWORD PTR ?gEngfuncs@@3Ucl_enginefuncs_s@@A+160
	add	esp, 4

; 356  : 		break;

	jmp	SHORT $L71677
$L71685:

; 357  : 	case GL_DEBUG_TYPE_PORTABILITY_ARB:
; 358  : 		if( developer_level < DEV_EXTENDED )

	cmp	DWORD PTR ?developer_level@@3HA, 2	; developer_level
	jge	SHORT $L71686

; 359  : 			return;

	jmp	SHORT $L71675
$L71686:

; 360  : 		gEngfuncs.Con_Printf( va( "^3OpenGL Warning:^7 %s\n", message ));

	mov	eax, DWORD PTR _message$[ebp]
	push	eax
	push	OFFSET FLAT:??_C@_0BI@KBAC@?$FO3OpenGL?5Warning?3?$FO7?5?$CFs?6?$AA@ ; `string'
	call	?va@@YAPADPBDZZ				; va
	add	esp, 8
	push	eax
	call	DWORD PTR ?gEngfuncs@@3Ucl_enginefuncs_s@@A+160
	add	esp, 4

; 361  : 		break;

	jmp	SHORT $L71677
$L71687:

; 362  : 	case GL_DEBUG_TYPE_PERFORMANCE_ARB:
; 363  : 		gEngfuncs.Con_Printf( va( "OpenGL Perfomance: %s\n", message ));

	mov	ecx, DWORD PTR _message$[ebp]
	push	ecx
	push	OFFSET FLAT:??_C@_0BH@FJN@OpenGL?5Perfomance?3?5?$CFs?6?$AA@ ; `string'
	call	?va@@YAPADPBDZZ				; va
	add	esp, 8
	push	eax
	call	DWORD PTR ?gEngfuncs@@3Ucl_enginefuncs_s@@A+160
	add	esp, 4

; 364  : 		break;

	jmp	SHORT $L71677
$L71689:

; 365  : 	case GL_DEBUG_TYPE_OTHER_ARB:
; 366  : 	default:
; 367  : 		if( developer_level < DEV_EXTENDED )

	cmp	DWORD PTR ?developer_level@@3HA, 2	; developer_level
	jge	SHORT $L71690

; 368  : 			return;

	jmp	SHORT $L71675
$L71690:

; 369  : 		gEngfuncs.Con_Printf( va( "OpenGL: %s\n", message ));

	mov	edx, DWORD PTR _message$[ebp]
	push	edx
	push	OFFSET FLAT:??_C@_0M@BMCH@OpenGL?3?5?$CFs?6?$AA@ ; `string'
	call	?va@@YAPADPBDZZ				; va
	add	esp, 8
	push	eax
	call	DWORD PTR ?gEngfuncs@@3Ucl_enginefuncs_s@@A+160
	add	esp, 4
$L71677:
$L71675:

; 372  : }

	pop	edi
	pop	esi
	pop	ebx
	mov	esp, ebp
	pop	ebp
	ret	28					; 0000001cH
$L72578:
	DD	$L71680
	DD	$L71682
	DD	$L71684
	DD	$L71685
	DD	$L71687
?GL_DebugOutput@@YGXIIIIHPBDPAX@Z ENDP			; GL_DebugOutput
_TEXT	ENDS
;	COMDAT ?GL_SetDefaultState@@YAXXZ
_TEXT	SEGMENT
?GL_SetDefaultState@@YAXXZ PROC NEAR			; GL_SetDefaultState, COMDAT

; 675  : {

	push	ebp
	mov	ebp, esp
	sub	esp, 64					; 00000040H
	push	ebx
	push	esi
	push	edi

; 676  : 	if( RENDER_GET_PARM( PARM_STENCIL_ACTIVE, 0 ))

	push	0
	push	36					; 00000024H
	call	DWORD PTR ?gRenderfuncs@@3Urender_api_s@@A
	add	esp, 8
	test	eax, eax
	je	SHORT $L71842

; 677  : 		glState.stencilEnabled = true;

	mov	DWORD PTR ?glState@@3UglState_t@@A+36, 1

; 678  : 	else glState.stencilEnabled = false;

	jmp	SHORT $L71843
$L71842:
	mov	DWORD PTR ?glState@@3UglState_t@@A+36, 0
$L71843:

; 679  : 
; 680  : 	glState.frameBuffer = FBO_MAIN;

	mov	DWORD PTR ?glState@@3UglState_t@@A+24, -1

; 681  : 	glState.depthmask = -1;

	mov	DWORD PTR ?glState@@3UglState_t@@A+28, -1

; 682  : }

	pop	edi
	pop	esi
	pop	ebx
	mov	esp, ebp
	pop	ebp
	ret	0
?GL_SetDefaultState@@YAXXZ ENDP				; GL_SetDefaultState
_TEXT	ENDS
PUBLIC	??_C@_08IILE@?$CKdefault?$AA@			; `string'
PUBLIC	??_C@_06DEIA@?$CKwhite?$AA@			; `string'
PUBLIC	??_C@_05MKKJ@?$CKgray?$AA@			; `string'
PUBLIC	??_C@_06PLIK@?$CKdepth?$AA@			; `string'
;	COMDAT ??_C@_08IILE@?$CKdefault?$AA@
; File z:\xashxtsrc\client\render\r_opengl.cpp
CONST	SEGMENT
??_C@_08IILE@?$CKdefault?$AA@ DB '*default', 00H	; `string'
CONST	ENDS
;	COMDAT ??_C@_06DEIA@?$CKwhite?$AA@
CONST	SEGMENT
??_C@_06DEIA@?$CKwhite?$AA@ DB '*white', 00H		; `string'
CONST	ENDS
;	COMDAT ??_C@_05MKKJ@?$CKgray?$AA@
CONST	SEGMENT
??_C@_05MKKJ@?$CKgray?$AA@ DB '*gray', 00H		; `string'
CONST	ENDS
;	COMDAT ??_C@_06PLIK@?$CKdepth?$AA@
CONST	SEGMENT
??_C@_06PLIK@?$CKdepth?$AA@ DB '*depth', 00H		; `string'
CONST	ENDS
;	COMDAT ?GL_InitTextures@@YAXXZ
_TEXT	SEGMENT
?GL_InitTextures@@YAXXZ PROC NEAR			; GL_InitTextures, COMDAT

; 744  : {

	push	ebp
	mov	ebp, esp
	sub	esp, 64					; 00000040H
	push	ebx
	push	esi
	push	edi

; 745  : 	// NOTE: these textures already created by engine
; 746  : 	// get their texturenums for local using
; 747  : 	tr.defaultTexture = FIND_TEXTURE( "*default" );   	// use for bad textures

	push	OFFSET FLAT:??_C@_08IILE@?$CKdefault?$AA@ ; `string'
	call	DWORD PTR ?gRenderfuncs@@3Urender_api_s@@A+48
	add	esp, 4
	mov	DWORD PTR ?tr@@3Uref_globals_t@@A+44, eax

; 748  : 	tr.whiteTexture = FIND_TEXTURE( "*white" );

	push	OFFSET FLAT:??_C@_06DEIA@?$CKwhite?$AA@	; `string'
	call	DWORD PTR ?gRenderfuncs@@3Urender_api_s@@A+48
	add	esp, 4
	mov	DWORD PTR ?tr@@3Uref_globals_t@@A+32, eax

; 749  : 	tr.grayTexture = FIND_TEXTURE( "*gray" );

	push	OFFSET FLAT:??_C@_05MKKJ@?$CKgray?$AA@	; `string'
	call	DWORD PTR ?gRenderfuncs@@3Urender_api_s@@A+48
	add	esp, 4
	mov	DWORD PTR ?tr@@3Uref_globals_t@@A+36, eax

; 750  : 	tr.depthTexture = CREATE_TEXTURE( "*depth", 8, 8, NULL, TF_SHADOW ); 

	push	2176					; 00000880H
	push	0
	push	8
	push	8
	push	OFFSET FLAT:??_C@_06PLIK@?$CKdepth?$AA@	; `string'
	call	DWORD PTR ?gRenderfuncs@@3Urender_api_s@@A+64
	add	esp, 20					; 00000014H
	mov	DWORD PTR ?tr@@3Uref_globals_t@@A+40, eax

; 751  : 
; 752  : 	R_InitWhiteCubemap();

	call	?R_InitWhiteCubemap@@YAXXZ		; R_InitWhiteCubemap

; 753  : 
; 754  : 	R_CreateSpotLightTexture();

	call	?R_CreateSpotLightTexture@@YAXXZ	; R_CreateSpotLightTexture

; 755  : 
; 756  : 	R_InitAlphaContrast();

	call	?R_InitAlphaContrast@@YAXXZ		; R_InitAlphaContrast

; 757  : }

	pop	edi
	pop	esi
	pop	ebx
	mov	esp, ebp
	pop	ebp
	ret	0
?GL_InitTextures@@YAXXZ ENDP				; GL_InitTextures
_TEXT	ENDS
PUBLIC	??_C@_06KOFE@?$CKacont?$AA@			; `string'
EXTRN	_memset:NEAR
EXTRN	__chkstk:NEAR
;	COMDAT ??_C@_06KOFE@?$CKacont?$AA@
; File z:\xashxtsrc\client\render\r_opengl.cpp
CONST	SEGMENT
??_C@_06KOFE@?$CKacont?$AA@ DB '*acont', 00H		; `string'
CONST	ENDS
;	COMDAT ?R_InitAlphaContrast@@YAXXZ
_TEXT	SEGMENT
_data$ = -16384
_size$ = -16388
?R_InitAlphaContrast@@YAXXZ PROC NEAR			; R_InitAlphaContrast, COMDAT

; 715  : {

	push	ebp
	mov	ebp, esp
	mov	eax, 16452				; 00004044H
	call	__chkstk
	push	ebx
	push	esi
	push	edi

; 716  : 	byte	data[64*64*4];
; 717  : 	int	size = 64;

	mov	DWORD PTR _size$[ebp], 64		; 00000040H

; 718  : 
; 719  : 	memset( data, size, size * size * 4 );

	mov	eax, DWORD PTR _size$[ebp]
	imul	eax, DWORD PTR _size$[ebp]
	shl	eax, 2
	push	eax
	mov	ecx, DWORD PTR _size$[ebp]
	push	ecx
	lea	edx, DWORD PTR _data$[ebp]
	push	edx
	call	_memset
	add	esp, 12					; 0000000cH

; 720  : 
; 721  : 	tr.alphaContrastTexture = CREATE_TEXTURE( "*acont", size, size, data, TF_ALPHACONTRAST );

	push	4194304					; 00400000H
	lea	eax, DWORD PTR _data$[ebp]
	push	eax
	mov	ecx, DWORD PTR _size$[ebp]
	push	ecx
	mov	edx, DWORD PTR _size$[ebp]
	push	edx
	push	OFFSET FLAT:??_C@_06KOFE@?$CKacont?$AA@	; `string'
	call	DWORD PTR ?gRenderfuncs@@3Urender_api_s@@A+64
	add	esp, 20					; 00000014H
	mov	DWORD PTR ?tr@@3Uref_globals_t@@A+48, eax

; 722  : }

	pop	edi
	pop	esi
	pop	ebx
	mov	esp, ebp
	pop	ebp
	ret	0
?R_InitAlphaContrast@@YAXXZ ENDP			; R_InitAlphaContrast
_TEXT	ENDS
PUBLIC	??_C@_0L@NEOO@?$CKwhiteCube?$AA@		; `string'
;	COMDAT ??_C@_0L@NEOO@?$CKwhiteCube?$AA@
; File z:\xashxtsrc\client\render\r_opengl.cpp
CONST	SEGMENT
??_C@_0L@NEOO@?$CKwhiteCube?$AA@ DB '*whiteCube', 00H	; `string'
CONST	ENDS
;	COMDAT ?R_InitWhiteCubemap@@YAXXZ
_TEXT	SEGMENT
_dataCM$ = -384
_size$ = -388
?R_InitWhiteCubemap@@YAXXZ PROC NEAR			; R_InitWhiteCubemap, COMDAT

; 730  : {

	push	ebp
	mov	ebp, esp
	sub	esp, 452				; 000001c4H
	push	ebx
	push	esi
	push	edi

; 731  : 	byte	dataCM[4*4*6*4];
; 732  : 	int	size = 4;

	mov	DWORD PTR _size$[ebp], 4

; 733  : 
; 734  : 	if( !GL_Support( R_TEXTURECUBEMAP_EXT ))

	push	7
	call	?GL_Support@@YA_NH@Z			; GL_Support
	add	esp, 4
	and	eax, 255				; 000000ffH
	test	eax, eax
	jne	SHORT $L71878

; 735  : 		return;

	jmp	SHORT $L71875
$L71878:

; 736  : 
; 737  : 	// white cubemap - just stub for pointlights
; 738  : 	memset( dataCM, 0xFF, sizeof( dataCM ));

	push	384					; 00000180H
	push	255					; 000000ffH
	lea	eax, DWORD PTR _dataCM$[ebp]
	push	eax
	call	_memset
	add	esp, 12					; 0000000cH

; 739  : 
; 740  : 	tr.dlightCubeTexture = CREATE_TEXTURE( "*whiteCube", size, size, dataCM, TF_NOMIPMAP|TF_CUBEMAP|TF_CLAMP ); 

	push	6208					; 00001840H
	lea	ecx, DWORD PTR _dataCM$[ebp]
	push	ecx
	mov	edx, DWORD PTR _size$[ebp]
	push	edx
	mov	eax, DWORD PTR _size$[ebp]
	push	eax
	push	OFFSET FLAT:??_C@_0L@NEOO@?$CKwhiteCube?$AA@ ; `string'
	call	DWORD PTR ?gRenderfuncs@@3Urender_api_s@@A+64
	add	esp, 20					; 00000014H
	mov	DWORD PTR ?tr@@3Uref_globals_t@@A+52, eax
$L71875:

; 741  : }

	pop	edi
	pop	esi
	pop	ebx
	mov	esp, ebp
	pop	ebp
	ret	0
?R_InitWhiteCubemap@@YAXXZ ENDP				; R_InitWhiteCubemap
_TEXT	ENDS
EXTRN	?FreeMeshCacheVL@CStudioModelRenderer@@QAEXXZ:NEAR ; CStudioModelRenderer::FreeMeshCacheVL
EXTRN	?R_FreeCinematics@@YAXXZ:NEAR			; R_FreeCinematics
EXTRN	?DestroyAllModelInstances@CStudioModelRenderer@@QAEXXZ:NEAR ; CStudioModelRenderer::DestroyAllModelInstances
EXTRN	?GL_FreeGPUShaders@@YAXXZ:NEAR			; GL_FreeGPUShaders
EXTRN	?g_StudioRenderer@@3VCStudioModelRenderer@@A:BYTE ; g_StudioRenderer
EXTRN	?R_GrassShutdown@@YAXXZ:NEAR			; R_GrassShutdown
EXTRN	?R_ResetWeather@@YAXXZ:NEAR			; R_ResetWeather
;	COMDAT ?R_Shutdown@@YAXXZ
_TEXT	SEGMENT
?R_Shutdown@@YAXXZ PROC NEAR				; R_Shutdown, COMDAT

; 796  : {

	push	ebp
	mov	ebp, esp
	sub	esp, 64					; 00000040H
	push	ebx
	push	esi
	push	edi

; 797  : 	g_StudioRenderer.DestroyAllModelInstances();

	mov	ecx, OFFSET FLAT:?g_StudioRenderer@@3VCStudioModelRenderer@@A
	call	?DestroyAllModelInstances@CStudioModelRenderer@@QAEXXZ ; CStudioModelRenderer::DestroyAllModelInstances

; 798  : 	g_StudioRenderer.FreeMeshCacheVL();

	mov	ecx, OFFSET FLAT:?g_StudioRenderer@@3VCStudioModelRenderer@@A
	call	?FreeMeshCacheVL@CStudioModelRenderer@@QAEXXZ ; CStudioModelRenderer::FreeMeshCacheVL

; 799  : 
; 800  : 	R_FreeCinematics();

	call	?R_FreeCinematics@@YAXXZ		; R_FreeCinematics

; 801  : 	R_ResetWeather();

	call	?R_ResetWeather@@YAXXZ			; R_ResetWeather

; 802  : 	R_GrassShutdown();

	call	?R_GrassShutdown@@YAXXZ			; R_GrassShutdown

; 803  : 	GL_FreeGPUShaders();

	call	?GL_FreeGPUShaders@@YAXXZ		; GL_FreeGPUShaders

; 804  : 
; 805  : 	// now all extensions are disabled
; 806  : 	memset( glConfig.extension, 0, sizeof( glConfig.extension[0] ) * R_EXTCOUNT );

	push	20					; 00000014H
	push	0
	push	OFFSET FLAT:?glConfig@@3UglConfig_t@@A+20
	call	_memset
	add	esp, 12					; 0000000cH

; 807  : }

	pop	edi
	pop	esi
	pop	ebx
	mov	esp, ebp
	pop	ebp
	ret	0
?R_Shutdown@@YAXXZ ENDP					; R_Shutdown
_TEXT	ENDS
PUBLIC	??_C@_0BC@GIMK@GL_STACK_OVERFLOW?$AA@		; `string'
PUBLIC	??_C@_0BD@OFDG@GL_STACK_UNDERFLOW?$AA@		; `string'
PUBLIC	??_C@_0BA@CPMK@GL_INVALID_ENUM?$AA@		; `string'
PUBLIC	??_C@_0BB@IOAE@GL_INVALID_VALUE?$AA@		; `string'
PUBLIC	??_C@_0BF@FONF@GL_INVALID_OPERATION?$AA@	; `string'
PUBLIC	??_C@_0BB@OEHJ@GL_OUT_OF_MEMORY?$AA@		; `string'
PUBLIC	??_C@_0O@DPFN@UNKNOWN?5ERROR?$AA@		; `string'
PUBLIC	??_C@_0CI@BOBI@?$FO3OpenGL?5Error?3?$FO7?5?$CFs?5?$CIcalled?5at?5@ ; `string'
PUBLIC	?GL_CheckForErrors_@@YAXPBDH@Z			; GL_CheckForErrors_
EXTRN	?gl_check_errors@@3PAUcvar_s@@A:DWORD		; gl_check_errors
;	COMDAT ??_C@_0BC@GIMK@GL_STACK_OVERFLOW?$AA@
; File z:\xashxtsrc\client\render\r_opengl.cpp
CONST	SEGMENT
??_C@_0BC@GIMK@GL_STACK_OVERFLOW?$AA@ DB 'GL_STACK_OVERFLOW', 00H ; `string'
CONST	ENDS
;	COMDAT ??_C@_0BD@OFDG@GL_STACK_UNDERFLOW?$AA@
CONST	SEGMENT
??_C@_0BD@OFDG@GL_STACK_UNDERFLOW?$AA@ DB 'GL_STACK_UNDERFLOW', 00H ; `string'
CONST	ENDS
;	COMDAT ??_C@_0BA@CPMK@GL_INVALID_ENUM?$AA@
CONST	SEGMENT
??_C@_0BA@CPMK@GL_INVALID_ENUM?$AA@ DB 'GL_INVALID_ENUM', 00H ; `string'
CONST	ENDS
;	COMDAT ??_C@_0BB@IOAE@GL_INVALID_VALUE?$AA@
CONST	SEGMENT
??_C@_0BB@IOAE@GL_INVALID_VALUE?$AA@ DB 'GL_INVALID_VALUE', 00H ; `string'
CONST	ENDS
;	COMDAT ??_C@_0BF@FONF@GL_INVALID_OPERATION?$AA@
CONST	SEGMENT
??_C@_0BF@FONF@GL_INVALID_OPERATION?$AA@ DB 'GL_INVALID_OPERATION', 00H ; `string'
CONST	ENDS
;	COMDAT ??_C@_0BB@OEHJ@GL_OUT_OF_MEMORY?$AA@
CONST	SEGMENT
??_C@_0BB@OEHJ@GL_OUT_OF_MEMORY?$AA@ DB 'GL_OUT_OF_MEMORY', 00H ; `string'
CONST	ENDS
;	COMDAT ??_C@_0O@DPFN@UNKNOWN?5ERROR?$AA@
CONST	SEGMENT
??_C@_0O@DPFN@UNKNOWN?5ERROR?$AA@ DB 'UNKNOWN ERROR', 00H ; `string'
CONST	ENDS
;	COMDAT ??_C@_0CI@BOBI@?$FO3OpenGL?5Error?3?$FO7?5?$CFs?5?$CIcalled?5at?5@
CONST	SEGMENT
??_C@_0CI@BOBI@?$FO3OpenGL?5Error?3?$FO7?5?$CFs?5?$CIcalled?5at?5@ DB '^3'
	DB	'OpenGL Error:^7 %s (called at %s:%i)', 0aH, 00H ; `string'
CONST	ENDS
;	COMDAT ?GL_CheckForErrors_@@YAXPBDH@Z
_TEXT	SEGMENT
_filename$ = 8
_fileline$ = 12
_err$ = -4
_str$ = -8
?GL_CheckForErrors_@@YAXPBDH@Z PROC NEAR		; GL_CheckForErrors_, COMDAT

; 817  : {

	push	ebp
	mov	ebp, esp
	sub	esp, 80					; 00000050H
	push	ebx
	push	esi
	push	edi

; 818  : 	int	err;
; 819  : 	char	*str;
; 820  : 
; 821  : 	if( !CVAR_TO_BOOL( gl_check_errors ))

	cmp	DWORD PTR ?gl_check_errors@@3PAUcvar_s@@A, 0 ; gl_check_errors
	je	SHORT $L72592
	mov	eax, DWORD PTR ?gl_check_errors@@3PAUcvar_s@@A ; gl_check_errors
	fld	DWORD PTR [eax+12]
	fcomp	DWORD PTR __real@4@00000000000000000000
	fnstsw	ax
	test	ah, 64					; 00000040H
	jne	SHORT $L72592
	mov	BYTE PTR -12+[ebp], 1
	jmp	SHORT $L72593
$L72592:
	mov	BYTE PTR -12+[ebp], 0
$L72593:
	mov	ecx, DWORD PTR -12+[ebp]
	and	ecx, 255				; 000000ffH
	test	ecx, ecx
	jne	SHORT $L71901

; 822  : 		return;

	jmp	$L71898
$L71901:

; 823  : 
; 824  : 	if(( err = pglGetError( )) == GL_NO_ERROR )

	call	DWORD PTR ?pglGetError@@3P6GIXZA	; pglGetError
	mov	DWORD PTR _err$[ebp], eax
	cmp	DWORD PTR _err$[ebp], 0
	jne	SHORT $L71902

; 825  : 		return;

	jmp	SHORT $L71898
$L71902:

; 828  : 	{

	mov	edx, DWORD PTR _err$[ebp]
	mov	DWORD PTR -16+[ebp], edx
	mov	eax, DWORD PTR -16+[ebp]
	sub	eax, 1280				; 00000500H
	mov	DWORD PTR -16+[ebp], eax
	cmp	DWORD PTR -16+[ebp], 5
	ja	SHORT $L71919
	mov	ecx, DWORD PTR -16+[ebp]
	jmp	DWORD PTR $L72594[ecx*4]
$L71907:

; 829  : 	case GL_STACK_OVERFLOW:
; 830  : 		str = "GL_STACK_OVERFLOW";

	mov	DWORD PTR _str$[ebp], OFFSET FLAT:??_C@_0BC@GIMK@GL_STACK_OVERFLOW?$AA@ ; `string'

; 831  : 		break;

	jmp	SHORT $L71904
$L71909:

; 832  : 	case GL_STACK_UNDERFLOW:
; 833  : 		str = "GL_STACK_UNDERFLOW";

	mov	DWORD PTR _str$[ebp], OFFSET FLAT:??_C@_0BD@OFDG@GL_STACK_UNDERFLOW?$AA@ ; `string'

; 834  : 		break;

	jmp	SHORT $L71904
$L71911:

; 835  : 	case GL_INVALID_ENUM:
; 836  : 		str = "GL_INVALID_ENUM";

	mov	DWORD PTR _str$[ebp], OFFSET FLAT:??_C@_0BA@CPMK@GL_INVALID_ENUM?$AA@ ; `string'

; 837  : 		break;

	jmp	SHORT $L71904
$L71913:

; 838  : 	case GL_INVALID_VALUE:
; 839  : 		str = "GL_INVALID_VALUE";

	mov	DWORD PTR _str$[ebp], OFFSET FLAT:??_C@_0BB@IOAE@GL_INVALID_VALUE?$AA@ ; `string'

; 840  : 		break;

	jmp	SHORT $L71904
$L71915:

; 841  : 	case GL_INVALID_OPERATION:
; 842  : 		str = "GL_INVALID_OPERATION";

	mov	DWORD PTR _str$[ebp], OFFSET FLAT:??_C@_0BF@FONF@GL_INVALID_OPERATION?$AA@ ; `string'

; 843  : 		break;

	jmp	SHORT $L71904
$L71917:

; 844  : 	case GL_OUT_OF_MEMORY:
; 845  : 		str = "GL_OUT_OF_MEMORY";

	mov	DWORD PTR _str$[ebp], OFFSET FLAT:??_C@_0BB@OEHJ@GL_OUT_OF_MEMORY?$AA@ ; `string'

; 846  : 		break;

	jmp	SHORT $L71904
$L71919:

; 847  : 	default:
; 848  : 		str = "UNKNOWN ERROR";

	mov	DWORD PTR _str$[ebp], OFFSET FLAT:??_C@_0O@DPFN@UNKNOWN?5ERROR?$AA@ ; `string'
$L71904:

; 851  : 
; 852  : 	gEngfuncs.Con_Printf( "^3OpenGL Error:^7 %s (called at %s:%i)\n", str, filename, fileline );

	mov	edx, DWORD PTR _fileline$[ebp]
	push	edx
	mov	eax, DWORD PTR _filename$[ebp]
	push	eax
	mov	ecx, DWORD PTR _str$[ebp]
	push	ecx
	push	OFFSET FLAT:??_C@_0CI@BOBI@?$FO3OpenGL?5Error?3?$FO7?5?$CFs?5?$CIcalled?5at?5@ ; `string'
	call	DWORD PTR ?gEngfuncs@@3Ucl_enginefuncs_s@@A+160
	add	esp, 16					; 00000010H
$L71898:

; 853  : }

	pop	edi
	pop	esi
	pop	ebx
	mov	esp, ebp
	pop	ebp
	ret	0
$L72594:
	DD	$L71911
	DD	$L71913
	DD	$L71915
	DD	$L71907
	DD	$L71909
	DD	$L71917
?GL_CheckForErrors_@@YAXPBDH@Z ENDP			; GL_CheckForErrors_
_TEXT	ENDS
END
