	TITLE	Z:\XashXTSRC\server\game.cpp
	.386P
include listing.inc
if @Version gt 510
.model FLAT
else
_TEXT	SEGMENT PARA USE32 PUBLIC 'CODE'
_TEXT	ENDS
_DATA	SEGMENT DWORD USE32 PUBLIC 'DATA'
_DATA	ENDS
CONST	SEGMENT DWORD USE32 PUBLIC 'CONST'
CONST	ENDS
_BSS	SEGMENT DWORD USE32 PUBLIC 'BSS'
_BSS	ENDS
$$SYMBOLS	SEGMENT BYTE USE32 'DEBSYM'
$$SYMBOLS	ENDS
$$TYPES	SEGMENT BYTE USE32 'DEBTYP'
$$TYPES	ENDS
_TLS	SEGMENT DWORD USE32 PUBLIC 'TLS'
_TLS	ENDS
;	COMDAT ??_C@_04NHIK@?$CFs?3?3?$AA@
CONST	SEGMENT DWORD USE32 PUBLIC 'CONST'
CONST	ENDS
;	COMDAT ??_C@_09JDJH@classname?$AA@
CONST	SEGMENT DWORD USE32 PUBLIC 'CONST'
CONST	ENDS
;	COMDAT ??_C@_0L@PMO@targetname?$AA@
CONST	SEGMENT DWORD USE32 PUBLIC 'CONST'
CONST	ENDS
;	COMDAT ??_C@_06CCPD@target?$AA@
CONST	SEGMENT DWORD USE32 PUBLIC 'CONST'
CONST	ENDS
;	COMDAT ??_C@_0BF@KILF@Bad?5ent?5in?5OFFSET?$CI?$CJ?6?$AA@
CONST	SEGMENT DWORD USE32 PUBLIC 'CONST'
CONST	ENDS
;	COMDAT ??_C@_0BF@BH@Bad?5pev?5in?5OFFSET?$CI?$CJ?6?$AA@
CONST	SEGMENT DWORD USE32 PUBLIC 'CONST'
CONST	ENDS
;	COMDAT ??_C@_04GOCP@null?$AA@
CONST	SEGMENT DWORD USE32 PUBLIC 'CONST'
CONST	ENDS
;	COMDAT ??_C@_06FOPF@parent?$AA@
CONST	SEGMENT DWORD USE32 PUBLIC 'CONST'
CONST	ENDS
;	COMDAT ??_C@_08IDGH@movewith?$AA@
CONST	SEGMENT DWORD USE32 PUBLIC 'CONST'
CONST	ENDS
;	COMDAT ??_C@_0M@FCIN@parentflags?$AA@
CONST	SEGMENT DWORD USE32 PUBLIC 'CONST'
CONST	ENDS
;	COMDAT ??_C@_05JCDO@style?$AA@
CONST	SEGMENT DWORD USE32 PUBLIC 'CONST'
CONST	ENDS
;	COMDAT ??_C@_0L@MCHI@reflection?$AA@
CONST	SEGMENT DWORD USE32 PUBLIC 'CONST'
CONST	ENDS
;	COMDAT ??_C@_0N@DCCA@vlight_cache?$AA@
CONST	SEGMENT DWORD USE32 PUBLIC 'CONST'
CONST	ENDS
;	COMDAT ??_C@_00A@?$AA@
CONST	SEGMENT DWORD USE32 PUBLIC 'CONST'
CONST	ENDS
;	COMDAT ??_C@_0CH@JICI@FUNCTION?5NOT?5IN?5TABLE?$CB?3?5?$CFs?3?$CFs?5?$CI?$CF@
CONST	SEGMENT DWORD USE32 PUBLIC 'CONST'
CONST	ENDS
;	COMDAT ??_C@_0BB@GGHG@displaysoundlist?$AA@
CONST	SEGMENT DWORD USE32 PUBLIC 'CONST'
CONST	ENDS
;	COMDAT ??_C@_01PLJA@0?$AA@
CONST	SEGMENT DWORD USE32 PUBLIC 'CONST'
CONST	ENDS
;	COMDAT ??_C@_0N@FNEM@mp_fragsleft?$AA@
CONST	SEGMENT DWORD USE32 PUBLIC 'CONST'
CONST	ENDS
;	COMDAT ??_C@_0M@IHID@mp_timeleft?$AA@
CONST	SEGMENT DWORD USE32 PUBLIC 'CONST'
CONST	ENDS
;	COMDAT ??_C@_0M@KOKP@mp_teamplay?$AA@
CONST	SEGMENT DWORD USE32 PUBLIC 'CONST'
CONST	ENDS
;	COMDAT ??_C@_0N@MKGH@mp_fraglimit?$AA@
CONST	SEGMENT DWORD USE32 PUBLIC 'CONST'
CONST	ENDS
;	COMDAT ??_C@_0N@JECA@mp_timelimit?$AA@
CONST	SEGMENT DWORD USE32 PUBLIC 'CONST'
CONST	ENDS
;	COMDAT ??_C@_0BA@NHMN@mp_friendlyfire?$AA@
CONST	SEGMENT DWORD USE32 PUBLIC 'CONST'
CONST	ENDS
;	COMDAT ??_C@_0O@OCEA@mp_falldamage?$AA@
CONST	SEGMENT DWORD USE32 PUBLIC 'CONST'
CONST	ENDS
;	COMDAT ??_C@_0O@FPOG@mp_weaponstay?$AA@
CONST	SEGMENT DWORD USE32 PUBLIC 'CONST'
CONST	ENDS
;	COMDAT ??_C@_0BA@OHKH@mp_forcerespawn?$AA@
CONST	SEGMENT DWORD USE32 PUBLIC 'CONST'
CONST	ENDS
;	COMDAT ??_C@_01FBAH@1?$AA@
CONST	SEGMENT DWORD USE32 PUBLIC 'CONST'
CONST	ENDS
;	COMDAT ??_C@_0O@DCFE@mp_flashlight?$AA@
CONST	SEGMENT DWORD USE32 PUBLIC 'CONST'
CONST	ENDS
;	COMDAT ??_C@_0BB@IDFJ@mp_autocrosshair?$AA@
CONST	SEGMENT DWORD USE32 PUBLIC 'CONST'
CONST	ENDS
;	COMDAT ??_C@_0P@FJGF@decalfrequency?$AA@
CONST	SEGMENT DWORD USE32 PUBLIC 'CONST'
CONST	ENDS
;	COMDAT ??_C@_0M@ENJF@mp_teamlist?$AA@
CONST	SEGMENT DWORD USE32 PUBLIC 'CONST'
CONST	ENDS
;	COMDAT ??_C@_0BB@HGPB@hgrunt?$DLscientist?$AA@
CONST	SEGMENT DWORD USE32 PUBLIC 'CONST'
CONST	ENDS
;	COMDAT ??_C@_0BA@HLDE@mp_teamoverride?$AA@
CONST	SEGMENT DWORD USE32 PUBLIC 'CONST'
CONST	ENDS
;	COMDAT ??_C@_0P@OMJO@mp_defaultteam?$AA@
CONST	SEGMENT DWORD USE32 PUBLIC 'CONST'
CONST	ENDS
;	COMDAT ??_C@_0BB@GNCO@mp_allowmonsters?$AA@
CONST	SEGMENT DWORD USE32 PUBLIC 'CONST'
CONST	ENDS
;	COMDAT ??_C@_0M@KANF@mp_chattime?$AA@
CONST	SEGMENT DWORD USE32 PUBLIC 'CONST'
CONST	ENDS
;	COMDAT ??_C@_02FCMB@10?$AA@
CONST	SEGMENT DWORD USE32 PUBLIC 'CONST'
CONST	ENDS
;	COMDAT ??_C@_0L@HJFJ@phys_debug?$AA@
CONST	SEGMENT DWORD USE32 PUBLIC 'CONST'
CONST	ENDS
;	COMDAT ??_C@_0M@OOPC@phys_qdebug?$AA@
CONST	SEGMENT DWORD USE32 PUBLIC 'CONST'
CONST	ENDS
;	COMDAT ??_C@_08FNPH@p_speeds?$AA@
CONST	SEGMENT DWORD USE32 PUBLIC 'CONST'
CONST	ENDS
;	COMDAT ??_C@_0P@FPKK@sv_sync_physic?$AA@
CONST	SEGMENT DWORD USE32 PUBLIC 'CONST'
CONST	ENDS
;	COMDAT ??_C@_0BC@NPKK@sk_agrunt_health1?$AA@
CONST	SEGMENT DWORD USE32 PUBLIC 'CONST'
CONST	ENDS
;	COMDAT ??_C@_0BC@CABD@sk_agrunt_health2?$AA@
CONST	SEGMENT DWORD USE32 PUBLIC 'CONST'
CONST	ENDS
;	COMDAT ??_C@_0BC@IKIE@sk_agrunt_health3?$AA@
CONST	SEGMENT DWORD USE32 PUBLIC 'CONST'
CONST	ENDS
;	COMDAT ??_C@_0BF@NCLM@sk_agrunt_dmg_punch1?$AA@
CONST	SEGMENT DWORD USE32 PUBLIC 'CONST'
CONST	ENDS
;	COMDAT ??_C@_0BF@CNAF@sk_agrunt_dmg_punch2?$AA@
CONST	SEGMENT DWORD USE32 PUBLIC 'CONST'
CONST	ENDS
;	COMDAT ??_C@_0BF@IHJC@sk_agrunt_dmg_punch3?$AA@
CONST	SEGMENT DWORD USE32 PUBLIC 'CONST'
CONST	ENDS
;	COMDAT ??_C@_0BC@GHJ@sk_apache_health1?$AA@
CONST	SEGMENT DWORD USE32 PUBLIC 'CONST'
CONST	ENDS
;	COMDAT ??_C@_0BC@PJMA@sk_apache_health2?$AA@
CONST	SEGMENT DWORD USE32 PUBLIC 'CONST'
CONST	ENDS
;	COMDAT ??_C@_0BC@FDFH@sk_apache_health3?$AA@
CONST	SEGMENT DWORD USE32 PUBLIC 'CONST'
CONST	ENDS
;	COMDAT ??_C@_0BC@CMFK@sk_barney_health1?$AA@
CONST	SEGMENT DWORD USE32 PUBLIC 'CONST'
CONST	ENDS
;	COMDAT ??_C@_0BC@NDOD@sk_barney_health2?$AA@
CONST	SEGMENT DWORD USE32 PUBLIC 'CONST'
CONST	ENDS
;	COMDAT ??_C@_0BC@HJHE@sk_barney_health3?$AA@
CONST	SEGMENT DWORD USE32 PUBLIC 'CONST'
CONST	ENDS
;	COMDAT ??_C@_0BF@OBBN@sk_bullsquid_health1?$AA@
CONST	SEGMENT DWORD USE32 PUBLIC 'CONST'
CONST	ENDS
;	COMDAT ??_C@_0BF@BOKE@sk_bullsquid_health2?$AA@
CONST	SEGMENT DWORD USE32 PUBLIC 'CONST'
CONST	ENDS
;	COMDAT ??_C@_0BF@LEDD@sk_bullsquid_health3?$AA@
CONST	SEGMENT DWORD USE32 PUBLIC 'CONST'
CONST	ENDS
;	COMDAT ??_C@_0BH@FMJ@sk_bullsquid_dmg_bite1?$AA@
CONST	SEGMENT DWORD USE32 PUBLIC 'CONST'
CONST	ENDS
;	COMDAT ??_C@_0BH@PKHA@sk_bullsquid_dmg_bite2?$AA@
CONST	SEGMENT DWORD USE32 PUBLIC 'CONST'
CONST	ENDS
;	COMDAT ??_C@_0BH@FAOH@sk_bullsquid_dmg_bite3?$AA@
CONST	SEGMENT DWORD USE32 PUBLIC 'CONST'
CONST	ENDS
;	COMDAT ??_C@_0BH@IPEE@sk_bullsquid_dmg_whip1?$AA@
CONST	SEGMENT DWORD USE32 PUBLIC 'CONST'
CONST	ENDS
;	COMDAT ??_C@_0BH@HAPN@sk_bullsquid_dmg_whip2?$AA@
CONST	SEGMENT DWORD USE32 PUBLIC 'CONST'
CONST	ENDS
;	COMDAT ??_C@_0BH@NKGK@sk_bullsquid_dmg_whip3?$AA@
CONST	SEGMENT DWORD USE32 PUBLIC 'CONST'
CONST	ENDS
;	COMDAT ??_C@_0BH@CKMK@sk_bullsquid_dmg_spit1?$AA@
CONST	SEGMENT DWORD USE32 PUBLIC 'CONST'
CONST	ENDS
;	COMDAT ??_C@_0BH@NFHD@sk_bullsquid_dmg_spit2?$AA@
CONST	SEGMENT DWORD USE32 PUBLIC 'CONST'
CONST	ENDS
;	COMDAT ??_C@_0BH@HPOE@sk_bullsquid_dmg_spit3?$AA@
CONST	SEGMENT DWORD USE32 PUBLIC 'CONST'
CONST	ENDS
;	COMDAT ??_C@_0BL@EDLI@sk_bigmomma_health_factor1?$AA@
CONST	SEGMENT DWORD USE32 PUBLIC 'CONST'
CONST	ENDS
;	COMDAT ??_C@_03NNMA@1?40?$AA@
CONST	SEGMENT DWORD USE32 PUBLIC 'CONST'
CONST	ENDS
;	COMDAT ??_C@_0BL@LMAB@sk_bigmomma_health_factor2?$AA@
CONST	SEGMENT DWORD USE32 PUBLIC 'CONST'
CONST	ENDS
;	COMDAT ??_C@_0BL@BGJG@sk_bigmomma_health_factor3?$AA@
CONST	SEGMENT DWORD USE32 PUBLIC 'CONST'
CONST	ENDS
;	COMDAT ??_C@_0BH@KKIK@sk_bigmomma_dmg_slash1?$AA@
CONST	SEGMENT DWORD USE32 PUBLIC 'CONST'
CONST	ENDS
;	COMDAT ??_C@_02IGL@50?$AA@
CONST	SEGMENT DWORD USE32 PUBLIC 'CONST'
CONST	ENDS
;	COMDAT ??_C@_0BH@FFDD@sk_bigmomma_dmg_slash2?$AA@
CONST	SEGMENT DWORD USE32 PUBLIC 'CONST'
CONST	ENDS
;	COMDAT ??_C@_0BH@PPKE@sk_bigmomma_dmg_slash3?$AA@
CONST	SEGMENT DWORD USE32 PUBLIC 'CONST'
CONST	ENDS
;	COMDAT ??_C@_0BH@OAHP@sk_bigmomma_dmg_blast1?$AA@
CONST	SEGMENT DWORD USE32 PUBLIC 'CONST'
CONST	ENDS
;	COMDAT ??_C@_03HFMC@100?$AA@
CONST	SEGMENT DWORD USE32 PUBLIC 'CONST'
CONST	ENDS
;	COMDAT ??_C@_0BH@BPMG@sk_bigmomma_dmg_blast2?$AA@
CONST	SEGMENT DWORD USE32 PUBLIC 'CONST'
CONST	ENDS
;	COMDAT ??_C@_0BH@LFFB@sk_bigmomma_dmg_blast3?$AA@
CONST	SEGMENT DWORD USE32 PUBLIC 'CONST'
CONST	ENDS
;	COMDAT ??_C@_0BK@CDFD@sk_bigmomma_radius_blast1?$AA@
CONST	SEGMENT DWORD USE32 PUBLIC 'CONST'
CONST	ENDS
;	COMDAT ??_C@_03MPPJ@250?$AA@
CONST	SEGMENT DWORD USE32 PUBLIC 'CONST'
CONST	ENDS
;	COMDAT ??_C@_0BK@NMOK@sk_bigmomma_radius_blast2?$AA@
CONST	SEGMENT DWORD USE32 PUBLIC 'CONST'
CONST	ENDS
;	COMDAT ??_C@_0BK@HGHN@sk_bigmomma_radius_blast3?$AA@
CONST	SEGMENT DWORD USE32 PUBLIC 'CONST'
CONST	ENDS
;	COMDAT ??_C@_0BF@JEJB@sk_gargantua_health1?$AA@
CONST	SEGMENT DWORD USE32 PUBLIC 'CONST'
CONST	ENDS
;	COMDAT ??_C@_0BF@GLCI@sk_gargantua_health2?$AA@
CONST	SEGMENT DWORD USE32 PUBLIC 'CONST'
CONST	ENDS
;	COMDAT ??_C@_0BF@MBLP@sk_gargantua_health3?$AA@
CONST	SEGMENT DWORD USE32 PUBLIC 'CONST'
CONST	ENDS
;	COMDAT ??_C@_0BI@OMKD@sk_gargantua_dmg_slash1?$AA@
CONST	SEGMENT DWORD USE32 PUBLIC 'CONST'
CONST	ENDS
;	COMDAT ??_C@_0BI@BDBK@sk_gargantua_dmg_slash2?$AA@
CONST	SEGMENT DWORD USE32 PUBLIC 'CONST'
CONST	ENDS
;	COMDAT ??_C@_0BI@LJIN@sk_gargantua_dmg_slash3?$AA@
CONST	SEGMENT DWORD USE32 PUBLIC 'CONST'
CONST	ENDS
;	COMDAT ??_C@_0BH@OJK@sk_gargantua_dmg_fire1?$AA@
CONST	SEGMENT DWORD USE32 PUBLIC 'CONST'
CONST	ENDS
;	COMDAT ??_C@_0BH@PBCD@sk_gargantua_dmg_fire2?$AA@
CONST	SEGMENT DWORD USE32 PUBLIC 'CONST'
CONST	ENDS
;	COMDAT ??_C@_0BH@FLLE@sk_gargantua_dmg_fire3?$AA@
CONST	SEGMENT DWORD USE32 PUBLIC 'CONST'
CONST	ENDS
;	COMDAT ??_C@_0BI@JIPF@sk_gargantua_dmg_stomp1?$AA@
CONST	SEGMENT DWORD USE32 PUBLIC 'CONST'
CONST	ENDS
;	COMDAT ??_C@_0BI@GHEM@sk_gargantua_dmg_stomp2?$AA@
CONST	SEGMENT DWORD USE32 PUBLIC 'CONST'
CONST	ENDS
;	COMDAT ??_C@_0BI@MNNL@sk_gargantua_dmg_stomp3?$AA@
CONST	SEGMENT DWORD USE32 PUBLIC 'CONST'
CONST	ENDS
;	COMDAT ??_C@_0BF@KBBM@sk_hassassin_health1?$AA@
CONST	SEGMENT DWORD USE32 PUBLIC 'CONST'
CONST	ENDS
;	COMDAT ??_C@_0BF@FOKF@sk_hassassin_health2?$AA@
CONST	SEGMENT DWORD USE32 PUBLIC 'CONST'
CONST	ENDS
;	COMDAT ??_C@_0BF@PEDC@sk_hassassin_health3?$AA@
CONST	SEGMENT DWORD USE32 PUBLIC 'CONST'
CONST	ENDS
;	COMDAT ??_C@_0BE@PNLG@sk_headcrab_health1?$AA@
CONST	SEGMENT DWORD USE32 PUBLIC 'CONST'
CONST	ENDS
;	COMDAT ??_C@_0BE@CAP@sk_headcrab_health2?$AA@
CONST	SEGMENT DWORD USE32 PUBLIC 'CONST'
CONST	ENDS
;	COMDAT ??_C@_0BE@KIJI@sk_headcrab_health3?$AA@
CONST	SEGMENT DWORD USE32 PUBLIC 'CONST'
CONST	ENDS
;	COMDAT ??_C@_0BG@OCAC@sk_headcrab_dmg_bite1?$AA@
CONST	SEGMENT DWORD USE32 PUBLIC 'CONST'
CONST	ENDS
;	COMDAT ??_C@_0BG@BNLL@sk_headcrab_dmg_bite2?$AA@
CONST	SEGMENT DWORD USE32 PUBLIC 'CONST'
CONST	ENDS
;	COMDAT ??_C@_0BG@LHCM@sk_headcrab_dmg_bite3?$AA@
CONST	SEGMENT DWORD USE32 PUBLIC 'CONST'
CONST	ENDS
;	COMDAT ??_C@_0BC@HNHA@sk_hgrunt_health1?$AA@
CONST	SEGMENT DWORD USE32 PUBLIC 'CONST'
CONST	ENDS
;	COMDAT ??_C@_0BC@ICMJ@sk_hgrunt_health2?$AA@
CONST	SEGMENT DWORD USE32 PUBLIC 'CONST'
CONST	ENDS
;	COMDAT ??_C@_0BC@CIFO@sk_hgrunt_health3?$AA@
CONST	SEGMENT DWORD USE32 PUBLIC 'CONST'
CONST	ENDS
;	COMDAT ??_C@_0BA@CNFO@sk_hgrunt_kick1?$AA@
CONST	SEGMENT DWORD USE32 PUBLIC 'CONST'
CONST	ENDS
;	COMDAT ??_C@_0BA@NCOH@sk_hgrunt_kick2?$AA@
CONST	SEGMENT DWORD USE32 PUBLIC 'CONST'
CONST	ENDS
;	COMDAT ??_C@_0BA@HIHA@sk_hgrunt_kick3?$AA@
CONST	SEGMENT DWORD USE32 PUBLIC 'CONST'
CONST	ENDS
;	COMDAT ??_C@_0BD@CBMA@sk_hgrunt_pellets1?$AA@
CONST	SEGMENT DWORD USE32 PUBLIC 'CONST'
CONST	ENDS
;	COMDAT ??_C@_0BD@NOHJ@sk_hgrunt_pellets2?$AA@
CONST	SEGMENT DWORD USE32 PUBLIC 'CONST'
CONST	ENDS
;	COMDAT ??_C@_0BD@HEOO@sk_hgrunt_pellets3?$AA@
CONST	SEGMENT DWORD USE32 PUBLIC 'CONST'
CONST	ENDS
;	COMDAT ??_C@_0BC@NGMH@sk_hgrunt_gspeed1?$AA@
CONST	SEGMENT DWORD USE32 PUBLIC 'CONST'
CONST	ENDS
;	COMDAT ??_C@_0BC@CJHO@sk_hgrunt_gspeed2?$AA@
CONST	SEGMENT DWORD USE32 PUBLIC 'CONST'
CONST	ENDS
;	COMDAT ??_C@_0BC@IDOJ@sk_hgrunt_gspeed3?$AA@
CONST	SEGMENT DWORD USE32 PUBLIC 'CONST'
CONST	ENDS
;	COMDAT ??_C@_0BE@DBBL@sk_houndeye_health1?$AA@
CONST	SEGMENT DWORD USE32 PUBLIC 'CONST'
CONST	ENDS
;	COMDAT ??_C@_0BE@MOKC@sk_houndeye_health2?$AA@
CONST	SEGMENT DWORD USE32 PUBLIC 'CONST'
CONST	ENDS
;	COMDAT ??_C@_0BE@GEDF@sk_houndeye_health3?$AA@
CONST	SEGMENT DWORD USE32 PUBLIC 'CONST'
CONST	ENDS
;	COMDAT ??_C@_0BH@OMHB@sk_houndeye_dmg_blast1?$AA@
CONST	SEGMENT DWORD USE32 PUBLIC 'CONST'
CONST	ENDS
;	COMDAT ??_C@_0BH@BDMI@sk_houndeye_dmg_blast2?$AA@
CONST	SEGMENT DWORD USE32 PUBLIC 'CONST'
CONST	ENDS
;	COMDAT ??_C@_0BH@LJFP@sk_houndeye_dmg_blast3?$AA@
CONST	SEGMENT DWORD USE32 PUBLIC 'CONST'
CONST	ENDS
;	COMDAT ??_C@_0BC@DFPE@sk_islave_health1?$AA@
CONST	SEGMENT DWORD USE32 PUBLIC 'CONST'
CONST	ENDS
;	COMDAT ??_C@_0BC@MKEN@sk_islave_health2?$AA@
CONST	SEGMENT DWORD USE32 PUBLIC 'CONST'
CONST	ENDS
;	COMDAT ??_C@_0BC@GANK@sk_islave_health3?$AA@
CONST	SEGMENT DWORD USE32 PUBLIC 'CONST'
CONST	ENDS
;	COMDAT ??_C@_0BE@KHKM@sk_islave_dmg_claw1?$AA@
CONST	SEGMENT DWORD USE32 PUBLIC 'CONST'
CONST	ENDS
;	COMDAT ??_C@_0BE@FIBF@sk_islave_dmg_claw2?$AA@
CONST	SEGMENT DWORD USE32 PUBLIC 'CONST'
CONST	ENDS
;	COMDAT ??_C@_0BE@PCIC@sk_islave_dmg_claw3?$AA@
CONST	SEGMENT DWORD USE32 PUBLIC 'CONST'
CONST	ENDS
;	COMDAT ??_C@_0BI@DKIB@sk_islave_dmg_clawrake1?$AA@
CONST	SEGMENT DWORD USE32 PUBLIC 'CONST'
CONST	ENDS
;	COMDAT ??_C@_0BI@MFDI@sk_islave_dmg_clawrake2?$AA@
CONST	SEGMENT DWORD USE32 PUBLIC 'CONST'
CONST	ENDS
;	COMDAT ??_C@_0BI@GPKP@sk_islave_dmg_clawrake3?$AA@
CONST	SEGMENT DWORD USE32 PUBLIC 'CONST'
CONST	ENDS
;	COMDAT ??_C@_0BD@FNNB@sk_islave_dmg_zap1?$AA@
CONST	SEGMENT DWORD USE32 PUBLIC 'CONST'
CONST	ENDS
;	COMDAT ??_C@_0BD@KCGI@sk_islave_dmg_zap2?$AA@
CONST	SEGMENT DWORD USE32 PUBLIC 'CONST'
CONST	ENDS
;	COMDAT ??_C@_0BD@IPP@sk_islave_dmg_zap3?$AA@
CONST	SEGMENT DWORD USE32 PUBLIC 'CONST'
CONST	ENDS
;	COMDAT ??_C@_0BH@CCKN@sk_ichthyosaur_health1?$AA@
CONST	SEGMENT DWORD USE32 PUBLIC 'CONST'
CONST	ENDS
;	COMDAT ??_C@_0BH@NNBE@sk_ichthyosaur_health2?$AA@
CONST	SEGMENT DWORD USE32 PUBLIC 'CONST'
CONST	ENDS
;	COMDAT ??_C@_0BH@HHID@sk_ichthyosaur_health3?$AA@
CONST	SEGMENT DWORD USE32 PUBLIC 'CONST'
CONST	ENDS
;	COMDAT ??_C@_0BG@PCPN@sk_ichthyosaur_shake1?$AA@
CONST	SEGMENT DWORD USE32 PUBLIC 'CONST'
CONST	ENDS
;	COMDAT ??_C@_0BG@NEE@sk_ichthyosaur_shake2?$AA@
CONST	SEGMENT DWORD USE32 PUBLIC 'CONST'
CONST	ENDS
;	COMDAT ??_C@_0BG@KHND@sk_ichthyosaur_shake3?$AA@
CONST	SEGMENT DWORD USE32 PUBLIC 'CONST'
CONST	ENDS
;	COMDAT ??_C@_0BB@FJFI@sk_leech_health1?$AA@
CONST	SEGMENT DWORD USE32 PUBLIC 'CONST'
CONST	ENDS
;	COMDAT ??_C@_0BB@KGOB@sk_leech_health2?$AA@
CONST	SEGMENT DWORD USE32 PUBLIC 'CONST'
CONST	ENDS
;	COMDAT ??_C@_0BB@MHG@sk_leech_health3?$AA@
CONST	SEGMENT DWORD USE32 PUBLIC 'CONST'
CONST	ENDS
;	COMDAT ??_C@_0BD@OMHH@sk_leech_dmg_bite1?$AA@
CONST	SEGMENT DWORD USE32 PUBLIC 'CONST'
CONST	ENDS
;	COMDAT ??_C@_0BD@BDMO@sk_leech_dmg_bite2?$AA@
CONST	SEGMENT DWORD USE32 PUBLIC 'CONST'
CONST	ENDS
;	COMDAT ??_C@_0BD@LJFJ@sk_leech_dmg_bite3?$AA@
CONST	SEGMENT DWORD USE32 PUBLIC 'CONST'
CONST	ENDS
;	COMDAT ??_C@_0BG@OOEF@sk_controller_health1?$AA@
CONST	SEGMENT DWORD USE32 PUBLIC 'CONST'
CONST	ENDS
;	COMDAT ??_C@_0BG@BBPM@sk_controller_health2?$AA@
CONST	SEGMENT DWORD USE32 PUBLIC 'CONST'
CONST	ENDS
;	COMDAT ??_C@_0BG@LLGL@sk_controller_health3?$AA@
CONST	SEGMENT DWORD USE32 PUBLIC 'CONST'
CONST	ENDS
;	COMDAT ??_C@_0BG@CDHG@sk_controller_dmgzap1?$AA@
CONST	SEGMENT DWORD USE32 PUBLIC 'CONST'
CONST	ENDS
;	COMDAT ??_C@_0BG@NMMP@sk_controller_dmgzap2?$AA@
CONST	SEGMENT DWORD USE32 PUBLIC 'CONST'
CONST	ENDS
;	COMDAT ??_C@_0BG@HGFI@sk_controller_dmgzap3?$AA@
CONST	SEGMENT DWORD USE32 PUBLIC 'CONST'
CONST	ENDS
;	COMDAT ??_C@_0BJ@NPJL@sk_controller_speedball1?$AA@
CONST	SEGMENT DWORD USE32 PUBLIC 'CONST'
CONST	ENDS
;	COMDAT ??_C@_0BJ@CACC@sk_controller_speedball2?$AA@
CONST	SEGMENT DWORD USE32 PUBLIC 'CONST'
CONST	ENDS
;	COMDAT ??_C@_0BJ@IKLF@sk_controller_speedball3?$AA@
CONST	SEGMENT DWORD USE32 PUBLIC 'CONST'
CONST	ENDS
;	COMDAT ??_C@_0BH@HGIG@sk_controller_dmgball1?$AA@
CONST	SEGMENT DWORD USE32 PUBLIC 'CONST'
CONST	ENDS
;	COMDAT ??_C@_0BH@IJDP@sk_controller_dmgball2?$AA@
CONST	SEGMENT DWORD USE32 PUBLIC 'CONST'
CONST	ENDS
;	COMDAT ??_C@_0BH@CDKI@sk_controller_dmgball3?$AA@
CONST	SEGMENT DWORD USE32 PUBLIC 'CONST'
CONST	ENDS
;	COMDAT ??_C@_0BF@DBKC@sk_nihilanth_health1?$AA@
CONST	SEGMENT DWORD USE32 PUBLIC 'CONST'
CONST	ENDS
;	COMDAT ??_C@_0BF@MOBL@sk_nihilanth_health2?$AA@
CONST	SEGMENT DWORD USE32 PUBLIC 'CONST'
CONST	ENDS
;	COMDAT ??_C@_0BF@GEIM@sk_nihilanth_health3?$AA@
CONST	SEGMENT DWORD USE32 PUBLIC 'CONST'
CONST	ENDS
;	COMDAT ??_C@_0BC@DDOH@sk_nihilanth_zap1?$AA@
CONST	SEGMENT DWORD USE32 PUBLIC 'CONST'
CONST	ENDS
;	COMDAT ??_C@_0BC@MMFO@sk_nihilanth_zap2?$AA@
CONST	SEGMENT DWORD USE32 PUBLIC 'CONST'
CONST	ENDS
;	COMDAT ??_C@_0BC@GGMJ@sk_nihilanth_zap3?$AA@
CONST	SEGMENT DWORD USE32 PUBLIC 'CONST'
CONST	ENDS
;	COMDAT ??_C@_0BF@FJNI@sk_scientist_health1?$AA@
CONST	SEGMENT DWORD USE32 PUBLIC 'CONST'
CONST	ENDS
;	COMDAT ??_C@_0BF@KGGB@sk_scientist_health2?$AA@
CONST	SEGMENT DWORD USE32 PUBLIC 'CONST'
CONST	ENDS
;	COMDAT ??_C@_0BF@MPG@sk_scientist_health3?$AA@
CONST	SEGMENT DWORD USE32 PUBLIC 'CONST'
CONST	ENDS
;	COMDAT ??_C@_0BB@DEIC@sk_snark_health1?$AA@
CONST	SEGMENT DWORD USE32 PUBLIC 'CONST'
CONST	ENDS
;	COMDAT ??_C@_0BB@MLDL@sk_snark_health2?$AA@
CONST	SEGMENT DWORD USE32 PUBLIC 'CONST'
CONST	ENDS
;	COMDAT ??_C@_0BB@GBKM@sk_snark_health3?$AA@
CONST	SEGMENT DWORD USE32 PUBLIC 'CONST'
CONST	ENDS
;	COMDAT ??_C@_0BD@LFAM@sk_snark_dmg_bite1?$AA@
CONST	SEGMENT DWORD USE32 PUBLIC 'CONST'
CONST	ENDS
;	COMDAT ??_C@_0BD@EKLF@sk_snark_dmg_bite2?$AA@
CONST	SEGMENT DWORD USE32 PUBLIC 'CONST'
CONST	ENDS
;	COMDAT ??_C@_0BD@OACC@sk_snark_dmg_bite3?$AA@
CONST	SEGMENT DWORD USE32 PUBLIC 'CONST'
CONST	ENDS
;	COMDAT ??_C@_0BC@ECG@sk_snark_dmg_pop1?$AA@
CONST	SEGMENT DWORD USE32 PUBLIC 'CONST'
CONST	ENDS
;	COMDAT ??_C@_0BC@PLJP@sk_snark_dmg_pop2?$AA@
CONST	SEGMENT DWORD USE32 PUBLIC 'CONST'
CONST	ENDS
;	COMDAT ??_C@_0BC@FBAI@sk_snark_dmg_pop3?$AA@
CONST	SEGMENT DWORD USE32 PUBLIC 'CONST'
CONST	ENDS
;	COMDAT ??_C@_0BC@HHBE@sk_zombie_health1?$AA@
CONST	SEGMENT DWORD USE32 PUBLIC 'CONST'
CONST	ENDS
;	COMDAT ??_C@_0BC@IIKN@sk_zombie_health2?$AA@
CONST	SEGMENT DWORD USE32 PUBLIC 'CONST'
CONST	ENDS
;	COMDAT ??_C@_0BC@CCDK@sk_zombie_health3?$AA@
CONST	SEGMENT DWORD USE32 PUBLIC 'CONST'
CONST	ENDS
;	COMDAT ??_C@_0BJ@NMBI@sk_zombie_dmg_one_slash1?$AA@
CONST	SEGMENT DWORD USE32 PUBLIC 'CONST'
CONST	ENDS
;	COMDAT ??_C@_0BJ@CDKB@sk_zombie_dmg_one_slash2?$AA@
CONST	SEGMENT DWORD USE32 PUBLIC 'CONST'
CONST	ENDS
;	COMDAT ??_C@_0BJ@IJDG@sk_zombie_dmg_one_slash3?$AA@
CONST	SEGMENT DWORD USE32 PUBLIC 'CONST'
CONST	ENDS
;	COMDAT ??_C@_0BK@DOMK@sk_zombie_dmg_both_slash1?$AA@
CONST	SEGMENT DWORD USE32 PUBLIC 'CONST'
CONST	ENDS
;	COMDAT ??_C@_0BK@MBHD@sk_zombie_dmg_both_slash2?$AA@
CONST	SEGMENT DWORD USE32 PUBLIC 'CONST'
CONST	ENDS
;	COMDAT ??_C@_0BK@GLOE@sk_zombie_dmg_both_slash3?$AA@
CONST	SEGMENT DWORD USE32 PUBLIC 'CONST'
CONST	ENDS
;	COMDAT ??_C@_0BC@DEFG@sk_turret_health1?$AA@
CONST	SEGMENT DWORD USE32 PUBLIC 'CONST'
CONST	ENDS
;	COMDAT ??_C@_0BC@MLOP@sk_turret_health2?$AA@
CONST	SEGMENT DWORD USE32 PUBLIC 'CONST'
CONST	ENDS
;	COMDAT ??_C@_0BC@GBHI@sk_turret_health3?$AA@
CONST	SEGMENT DWORD USE32 PUBLIC 'CONST'
CONST	ENDS
;	COMDAT ??_C@_0BG@NPCC@sk_miniturret_health1?$AA@
CONST	SEGMENT DWORD USE32 PUBLIC 'CONST'
CONST	ENDS
;	COMDAT ??_C@_0BG@CAJL@sk_miniturret_health2?$AA@
CONST	SEGMENT DWORD USE32 PUBLIC 'CONST'
CONST	ENDS
;	COMDAT ??_C@_0BG@IKAM@sk_miniturret_health3?$AA@
CONST	SEGMENT DWORD USE32 PUBLIC 'CONST'
CONST	ENDS
;	COMDAT ??_C@_0BC@LAAK@sk_sentry_health1?$AA@
CONST	SEGMENT DWORD USE32 PUBLIC 'CONST'
CONST	ENDS
;	COMDAT ??_C@_0BC@EPLD@sk_sentry_health2?$AA@
CONST	SEGMENT DWORD USE32 PUBLIC 'CONST'
CONST	ENDS
;	COMDAT ??_C@_0BC@OFCE@sk_sentry_health3?$AA@
CONST	SEGMENT DWORD USE32 PUBLIC 'CONST'
CONST	ENDS
;	COMDAT ??_C@_0BA@KDPF@sk_plr_crowbar1?$AA@
CONST	SEGMENT DWORD USE32 PUBLIC 'CONST'
CONST	ENDS
;	COMDAT ??_C@_0BA@FMEM@sk_plr_crowbar2?$AA@
CONST	SEGMENT DWORD USE32 PUBLIC 'CONST'
CONST	ENDS
;	COMDAT ??_C@_0BA@PGNL@sk_plr_crowbar3?$AA@
CONST	SEGMENT DWORD USE32 PUBLIC 'CONST'
CONST	ENDS
;	COMDAT ??_C@_0BF@MBHM@sk_plr_crowbar_stab1?$AA@
CONST	SEGMENT DWORD USE32 PUBLIC 'CONST'
CONST	ENDS
;	COMDAT ??_C@_0BF@DOMF@sk_plr_crowbar_stab2?$AA@
CONST	SEGMENT DWORD USE32 PUBLIC 'CONST'
CONST	ENDS
;	COMDAT ??_C@_0BF@JEFC@sk_plr_crowbar_stab3?$AA@
CONST	SEGMENT DWORD USE32 PUBLIC 'CONST'
CONST	ENDS
;	COMDAT ??_C@_0M@FFDJ@sk_plr_axe1?$AA@
CONST	SEGMENT DWORD USE32 PUBLIC 'CONST'
CONST	ENDS
;	COMDAT ??_C@_0M@KKIA@sk_plr_axe2?$AA@
CONST	SEGMENT DWORD USE32 PUBLIC 'CONST'
CONST	ENDS
;	COMDAT ??_C@_0M@BH@sk_plr_axe3?$AA@
CONST	SEGMENT DWORD USE32 PUBLIC 'CONST'
CONST	ENDS
;	COMDAT ??_C@_0BA@NNMF@sk_plr_axe_sec1?$AA@
CONST	SEGMENT DWORD USE32 PUBLIC 'CONST'
CONST	ENDS
;	COMDAT ??_C@_0BA@CCHM@sk_plr_axe_sec2?$AA@
CONST	SEGMENT DWORD USE32 PUBLIC 'CONST'
CONST	ENDS
;	COMDAT ??_C@_0BA@IIOL@sk_plr_axe_sec3?$AA@
CONST	SEGMENT DWORD USE32 PUBLIC 'CONST'
CONST	ENDS
;	COMDAT ??_C@_0BB@BAEG@sk_plr_chainsaw1?$AA@
CONST	SEGMENT DWORD USE32 PUBLIC 'CONST'
CONST	ENDS
;	COMDAT ??_C@_0BB@OPPP@sk_plr_chainsaw2?$AA@
CONST	SEGMENT DWORD USE32 PUBLIC 'CONST'
CONST	ENDS
;	COMDAT ??_C@_0BB@EFGI@sk_plr_chainsaw3?$AA@
CONST	SEGMENT DWORD USE32 PUBLIC 'CONST'
CONST	ENDS
;	COMDAT ??_C@_0BF@IJNP@sk_plr_chainsaw_sec1?$AA@
CONST	SEGMENT DWORD USE32 PUBLIC 'CONST'
CONST	ENDS
;	COMDAT ??_C@_0BF@HGGG@sk_plr_chainsaw_sec2?$AA@
CONST	SEGMENT DWORD USE32 PUBLIC 'CONST'
CONST	ENDS
;	COMDAT ??_C@_0BF@NMPB@sk_plr_chainsaw_sec3?$AA@
CONST	SEGMENT DWORD USE32 PUBLIC 'CONST'
CONST	ENDS
;	COMDAT ??_C@_0BD@IFOA@sk_plr_9mm_bullet1?$AA@
CONST	SEGMENT DWORD USE32 PUBLIC 'CONST'
CONST	ENDS
;	COMDAT ??_C@_0BD@HKFJ@sk_plr_9mm_bullet2?$AA@
CONST	SEGMENT DWORD USE32 PUBLIC 'CONST'
CONST	ENDS
;	COMDAT ??_C@_0BD@NAMO@sk_plr_9mm_bullet3?$AA@
CONST	SEGMENT DWORD USE32 PUBLIC 'CONST'
CONST	ENDS
;	COMDAT ??_C@_0BD@FGHN@sk_plr_357_bullet1?$AA@
CONST	SEGMENT DWORD USE32 PUBLIC 'CONST'
CONST	ENDS
;	COMDAT ??_C@_0BD@KJME@sk_plr_357_bullet2?$AA@
CONST	SEGMENT DWORD USE32 PUBLIC 'CONST'
CONST	ENDS
;	COMDAT ??_C@_0BD@DFD@sk_plr_357_bullet3?$AA@
CONST	SEGMENT DWORD USE32 PUBLIC 'CONST'
CONST	ENDS
;	COMDAT ??_C@_0BF@GNPC@sk_plr_9mmAR_bullet1?$AA@
CONST	SEGMENT DWORD USE32 PUBLIC 'CONST'
CONST	ENDS
;	COMDAT ??_C@_0BF@JCEL@sk_plr_9mmAR_bullet2?$AA@
CONST	SEGMENT DWORD USE32 PUBLIC 'CONST'
CONST	ENDS
;	COMDAT ??_C@_0BF@DINM@sk_plr_9mmAR_bullet3?$AA@
CONST	SEGMENT DWORD USE32 PUBLIC 'CONST'
CONST	ENDS
;	COMDAT ??_C@_0BG@GCHJ@sk_plr_9mmAR_grenade1?$AA@
CONST	SEGMENT DWORD USE32 PUBLIC 'CONST'
CONST	ENDS
;	COMDAT ??_C@_0BG@JNMA@sk_plr_9mmAR_grenade2?$AA@
CONST	SEGMENT DWORD USE32 PUBLIC 'CONST'
CONST	ENDS
;	COMDAT ??_C@_0BG@DHFH@sk_plr_9mmAR_grenade3?$AA@
CONST	SEGMENT DWORD USE32 PUBLIC 'CONST'
CONST	ENDS
;	COMDAT ??_C@_0BB@HLNJ@sk_plr_buckshot1?$AA@
CONST	SEGMENT DWORD USE32 PUBLIC 'CONST'
CONST	ENDS
;	COMDAT ??_C@_0BB@IEGA@sk_plr_buckshot2?$AA@
CONST	SEGMENT DWORD USE32 PUBLIC 'CONST'
CONST	ENDS
;	COMDAT ??_C@_0BB@COPH@sk_plr_buckshot3?$AA@
CONST	SEGMENT DWORD USE32 PUBLIC 'CONST'
CONST	ENDS
;	COMDAT ??_C@_0BJ@CKHD@sk_plr_xbow_bolt_client1?$AA@
CONST	SEGMENT DWORD USE32 PUBLIC 'CONST'
CONST	ENDS
;	COMDAT ??_C@_0BJ@NFMK@sk_plr_xbow_bolt_client2?$AA@
CONST	SEGMENT DWORD USE32 PUBLIC 'CONST'
CONST	ENDS
;	COMDAT ??_C@_0BJ@HPFN@sk_plr_xbow_bolt_client3?$AA@
CONST	SEGMENT DWORD USE32 PUBLIC 'CONST'
CONST	ENDS
;	COMDAT ??_C@_0BK@NMNJ@sk_plr_xbow_bolt_monster1?$AA@
CONST	SEGMENT DWORD USE32 PUBLIC 'CONST'
CONST	ENDS
;	COMDAT ??_C@_0BK@CDGA@sk_plr_xbow_bolt_monster2?$AA@
CONST	SEGMENT DWORD USE32 PUBLIC 'CONST'
CONST	ENDS
;	COMDAT ??_C@_0BK@IJPH@sk_plr_xbow_bolt_monster3?$AA@
CONST	SEGMENT DWORD USE32 PUBLIC 'CONST'
CONST	ENDS
;	COMDAT ??_C@_0M@NCAO@sk_plr_rpg1?$AA@
CONST	SEGMENT DWORD USE32 PUBLIC 'CONST'
CONST	ENDS
;	COMDAT ??_C@_0M@CNLH@sk_plr_rpg2?$AA@
CONST	SEGMENT DWORD USE32 PUBLIC 'CONST'
CONST	ENDS
;	COMDAT ??_C@_0M@IHCA@sk_plr_rpg3?$AA@
CONST	SEGMENT DWORD USE32 PUBLIC 'CONST'
CONST	ENDS
;	COMDAT ??_C@_0O@HDAN@sk_plr_gauss1?$AA@
CONST	SEGMENT DWORD USE32 PUBLIC 'CONST'
CONST	ENDS
;	COMDAT ??_C@_0O@IMLE@sk_plr_gauss2?$AA@
CONST	SEGMENT DWORD USE32 PUBLIC 'CONST'
CONST	ENDS
;	COMDAT ??_C@_0O@CGCD@sk_plr_gauss3?$AA@
CONST	SEGMENT DWORD USE32 PUBLIC 'CONST'
CONST	ENDS
;	COMDAT ??_C@_0BE@FFGP@sk_plr_egon_narrow1?$AA@
CONST	SEGMENT DWORD USE32 PUBLIC 'CONST'
CONST	ENDS
;	COMDAT ??_C@_0BE@KKNG@sk_plr_egon_narrow2?$AA@
CONST	SEGMENT DWORD USE32 PUBLIC 'CONST'
CONST	ENDS
;	COMDAT ??_C@_0BE@EB@sk_plr_egon_narrow3?$AA@
CONST	SEGMENT DWORD USE32 PUBLIC 'CONST'
CONST	ENDS
;	COMDAT ??_C@_0BC@PMAM@sk_plr_egon_wide1?$AA@
CONST	SEGMENT DWORD USE32 PUBLIC 'CONST'
CONST	ENDS
;	COMDAT ??_C@_0BC@DLF@sk_plr_egon_wide2?$AA@
CONST	SEGMENT DWORD USE32 PUBLIC 'CONST'
CONST	ENDS
;	COMDAT ??_C@_0BC@KJCC@sk_plr_egon_wide3?$AA@
CONST	SEGMENT DWORD USE32 PUBLIC 'CONST'
CONST	ENDS
;	COMDAT ??_C@_0BF@IGDM@sk_plr_hand_grenade1?$AA@
CONST	SEGMENT DWORD USE32 PUBLIC 'CONST'
CONST	ENDS
;	COMDAT ??_C@_0BF@HJIF@sk_plr_hand_grenade2?$AA@
CONST	SEGMENT DWORD USE32 PUBLIC 'CONST'
CONST	ENDS
;	COMDAT ??_C@_0BF@NDBC@sk_plr_hand_grenade3?$AA@
CONST	SEGMENT DWORD USE32 PUBLIC 'CONST'
CONST	ENDS
;	COMDAT ??_C@_0BA@PALH@sk_plr_satchel1?$AA@
CONST	SEGMENT DWORD USE32 PUBLIC 'CONST'
CONST	ENDS
;	COMDAT ??_C@_0BA@PAO@sk_plr_satchel2?$AA@
CONST	SEGMENT DWORD USE32 PUBLIC 'CONST'
CONST	ENDS
;	COMDAT ??_C@_0BA@KFJJ@sk_plr_satchel3?$AA@
CONST	SEGMENT DWORD USE32 PUBLIC 'CONST'
CONST	ENDS
;	COMDAT ??_C@_0BB@ICKA@sk_plr_tripmine1?$AA@
CONST	SEGMENT DWORD USE32 PUBLIC 'CONST'
CONST	ENDS
;	COMDAT ??_C@_0BB@HNBJ@sk_plr_tripmine2?$AA@
CONST	SEGMENT DWORD USE32 PUBLIC 'CONST'
CONST	ENDS
;	COMDAT ??_C@_0BB@NHIO@sk_plr_tripmine3?$AA@
CONST	SEGMENT DWORD USE32 PUBLIC 'CONST'
CONST	ENDS
;	COMDAT ??_C@_0BA@KKKF@sk_12mm_bullet1?$AA@
CONST	SEGMENT DWORD USE32 PUBLIC 'CONST'
CONST	ENDS
;	COMDAT ??_C@_0BA@FFBM@sk_12mm_bullet2?$AA@
CONST	SEGMENT DWORD USE32 PUBLIC 'CONST'
CONST	ENDS
;	COMDAT ??_C@_0BA@PPIL@sk_12mm_bullet3?$AA@
CONST	SEGMENT DWORD USE32 PUBLIC 'CONST'
CONST	ENDS
;	COMDAT ??_C@_0BB@IDKC@sk_9mmAR_bullet1?$AA@
CONST	SEGMENT DWORD USE32 PUBLIC 'CONST'
CONST	ENDS
;	COMDAT ??_C@_0BB@HMBL@sk_9mmAR_bullet2?$AA@
CONST	SEGMENT DWORD USE32 PUBLIC 'CONST'
CONST	ENDS
;	COMDAT ??_C@_0BB@NGIM@sk_9mmAR_bullet3?$AA@
CONST	SEGMENT DWORD USE32 PUBLIC 'CONST'
CONST	ENDS
;	COMDAT ??_C@_0P@ONCA@sk_9mm_bullet1?$AA@
CONST	SEGMENT DWORD USE32 PUBLIC 'CONST'
CONST	ENDS
;	COMDAT ??_C@_0P@BCJJ@sk_9mm_bullet2?$AA@
CONST	SEGMENT DWORD USE32 PUBLIC 'CONST'
CONST	ENDS
;	COMDAT ??_C@_0P@LIAO@sk_9mm_bullet3?$AA@
CONST	SEGMENT DWORD USE32 PUBLIC 'CONST'
CONST	ENDS
;	COMDAT ??_C@_0P@PEKC@sk_hornet_dmg1?$AA@
CONST	SEGMENT DWORD USE32 PUBLIC 'CONST'
CONST	ENDS
;	COMDAT ??_C@_0P@LBL@sk_hornet_dmg2?$AA@
CONST	SEGMENT DWORD USE32 PUBLIC 'CONST'
CONST	ENDS
;	COMDAT ??_C@_0P@KBIM@sk_hornet_dmg3?$AA@
CONST	SEGMENT DWORD USE32 PUBLIC 'CONST'
CONST	ENDS
;	COMDAT ??_C@_0BA@MEMG@sk_suitcharger1?$AA@
CONST	SEGMENT DWORD USE32 PUBLIC 'CONST'
CONST	ENDS
;	COMDAT ??_C@_0BA@DLHP@sk_suitcharger2?$AA@
CONST	SEGMENT DWORD USE32 PUBLIC 'CONST'
CONST	ENDS
;	COMDAT ??_C@_0BA@JBOI@sk_suitcharger3?$AA@
CONST	SEGMENT DWORD USE32 PUBLIC 'CONST'
CONST	ENDS
;	COMDAT ??_C@_0M@BLEL@sk_battery1?$AA@
CONST	SEGMENT DWORD USE32 PUBLIC 'CONST'
CONST	ENDS
;	COMDAT ??_C@_0M@OEPC@sk_battery2?$AA@
CONST	SEGMENT DWORD USE32 PUBLIC 'CONST'
CONST	ENDS
;	COMDAT ??_C@_0M@EOGF@sk_battery3?$AA@
CONST	SEGMENT DWORD USE32 PUBLIC 'CONST'
CONST	ENDS
;	COMDAT ??_C@_0BC@JFJN@sk_healthcharger1?$AA@
CONST	SEGMENT DWORD USE32 PUBLIC 'CONST'
CONST	ENDS
;	COMDAT ??_C@_0BC@GKCE@sk_healthcharger2?$AA@
CONST	SEGMENT DWORD USE32 PUBLIC 'CONST'
CONST	ENDS
;	COMDAT ??_C@_0BC@MALD@sk_healthcharger3?$AA@
CONST	SEGMENT DWORD USE32 PUBLIC 'CONST'
CONST	ENDS
;	COMDAT ??_C@_0O@KCOP@sk_healthkit1?$AA@
CONST	SEGMENT DWORD USE32 PUBLIC 'CONST'
CONST	ENDS
;	COMDAT ??_C@_0O@FNFG@sk_healthkit2?$AA@
CONST	SEGMENT DWORD USE32 PUBLIC 'CONST'
CONST	ENDS
;	COMDAT ??_C@_0O@PHMB@sk_healthkit3?$AA@
CONST	SEGMENT DWORD USE32 PUBLIC 'CONST'
CONST	ENDS
;	COMDAT ??_C@_0BD@MCLL@sk_scientist_heal1?$AA@
CONST	SEGMENT DWORD USE32 PUBLIC 'CONST'
CONST	ENDS
;	COMDAT ??_C@_0BD@DNAC@sk_scientist_heal2?$AA@
CONST	SEGMENT DWORD USE32 PUBLIC 'CONST'
CONST	ENDS
;	COMDAT ??_C@_0BD@JHJF@sk_scientist_heal3?$AA@
CONST	SEGMENT DWORD USE32 PUBLIC 'CONST'
CONST	ENDS
;	COMDAT ??_C@_0BB@JAAB@sk_monster_head1?$AA@
CONST	SEGMENT DWORD USE32 PUBLIC 'CONST'
CONST	ENDS
;	COMDAT ??_C@_01KOLO@2?$AA@
CONST	SEGMENT DWORD USE32 PUBLIC 'CONST'
CONST	ENDS
;	COMDAT ??_C@_0BB@GPLI@sk_monster_head2?$AA@
CONST	SEGMENT DWORD USE32 PUBLIC 'CONST'
CONST	ENDS
;	COMDAT ??_C@_0BB@MFCP@sk_monster_head3?$AA@
CONST	SEGMENT DWORD USE32 PUBLIC 'CONST'
CONST	ENDS
;	COMDAT ??_C@_0BC@ODAK@sk_monster_chest1?$AA@
CONST	SEGMENT DWORD USE32 PUBLIC 'CONST'
CONST	ENDS
;	COMDAT ??_C@_0BC@BMLD@sk_monster_chest2?$AA@
CONST	SEGMENT DWORD USE32 PUBLIC 'CONST'
CONST	ENDS
;	COMDAT ??_C@_0BC@LGCE@sk_monster_chest3?$AA@
CONST	SEGMENT DWORD USE32 PUBLIC 'CONST'
CONST	ENDS
;	COMDAT ??_C@_0BE@HDLO@sk_monster_stomach1?$AA@
CONST	SEGMENT DWORD USE32 PUBLIC 'CONST'
CONST	ENDS
;	COMDAT ??_C@_0BE@IMAH@sk_monster_stomach2?$AA@
CONST	SEGMENT DWORD USE32 PUBLIC 'CONST'
CONST	ENDS
;	COMDAT ??_C@_0BE@CGJA@sk_monster_stomach3?$AA@
CONST	SEGMENT DWORD USE32 PUBLIC 'CONST'
CONST	ENDS
;	COMDAT ??_C@_0BA@HFLM@sk_monster_arm1?$AA@
CONST	SEGMENT DWORD USE32 PUBLIC 'CONST'
CONST	ENDS
;	COMDAT ??_C@_0BA@IKAF@sk_monster_arm2?$AA@
CONST	SEGMENT DWORD USE32 PUBLIC 'CONST'
CONST	ENDS
;	COMDAT ??_C@_0BA@CAJC@sk_monster_arm3?$AA@
CONST	SEGMENT DWORD USE32 PUBLIC 'CONST'
CONST	ENDS
;	COMDAT ??_C@_0BA@OIDM@sk_monster_leg1?$AA@
CONST	SEGMENT DWORD USE32 PUBLIC 'CONST'
CONST	ENDS
;	COMDAT ??_C@_0BA@BHIF@sk_monster_leg2?$AA@
CONST	SEGMENT DWORD USE32 PUBLIC 'CONST'
CONST	ENDS
;	COMDAT ??_C@_0BA@LNBC@sk_monster_leg3?$AA@
CONST	SEGMENT DWORD USE32 PUBLIC 'CONST'
CONST	ENDS
;	COMDAT ??_C@_0BA@NBKO@sk_player_head1?$AA@
CONST	SEGMENT DWORD USE32 PUBLIC 'CONST'
CONST	ENDS
;	COMDAT ??_C@_0BA@COBH@sk_player_head2?$AA@
CONST	SEGMENT DWORD USE32 PUBLIC 'CONST'
CONST	ENDS
;	COMDAT ??_C@_0BA@IEIA@sk_player_head3?$AA@
CONST	SEGMENT DWORD USE32 PUBLIC 'CONST'
CONST	ENDS
;	COMDAT ??_C@_0BB@FLEL@sk_player_chest1?$AA@
CONST	SEGMENT DWORD USE32 PUBLIC 'CONST'
CONST	ENDS
;	COMDAT ??_C@_0BB@KEPC@sk_player_chest2?$AA@
CONST	SEGMENT DWORD USE32 PUBLIC 'CONST'
CONST	ENDS
;	COMDAT ??_C@_0BB@OGF@sk_player_chest3?$AA@
CONST	SEGMENT DWORD USE32 PUBLIC 'CONST'
CONST	ENDS
;	COMDAT ??_C@_0BD@GFHC@sk_player_stomach1?$AA@
CONST	SEGMENT DWORD USE32 PUBLIC 'CONST'
CONST	ENDS
;	COMDAT ??_C@_0BD@JKML@sk_player_stomach2?$AA@
CONST	SEGMENT DWORD USE32 PUBLIC 'CONST'
CONST	ENDS
;	COMDAT ??_C@_0BD@DAFM@sk_player_stomach3?$AA@
CONST	SEGMENT DWORD USE32 PUBLIC 'CONST'
CONST	ENDS
;	COMDAT ??_C@_0P@NKHJ@sk_player_arm1?$AA@
CONST	SEGMENT DWORD USE32 PUBLIC 'CONST'
CONST	ENDS
;	COMDAT ??_C@_0P@CFMA@sk_player_arm2?$AA@
CONST	SEGMENT DWORD USE32 PUBLIC 'CONST'
CONST	ENDS
;	COMDAT ??_C@_0P@IPFH@sk_player_arm3?$AA@
CONST	SEGMENT DWORD USE32 PUBLIC 'CONST'
CONST	ENDS
;	COMDAT ??_C@_0P@EHPJ@sk_player_leg1?$AA@
CONST	SEGMENT DWORD USE32 PUBLIC 'CONST'
CONST	ENDS
;	COMDAT ??_C@_0P@LIEA@sk_player_leg2?$AA@
CONST	SEGMENT DWORD USE32 PUBLIC 'CONST'
CONST	ENDS
;	COMDAT ??_C@_0P@BCNH@sk_player_leg3?$AA@
CONST	SEGMENT DWORD USE32 PUBLIC 'CONST'
CONST	ENDS
;	COMDAT ??_C@_0L@GIJ@sv_gravity?$AA@
CONST	SEGMENT DWORD USE32 PUBLIC 'CONST'
CONST	ENDS
;	COMDAT ??_C@_06MMCC@sv_aim?$AA@
CONST	SEGMENT DWORD USE32 PUBLIC 'CONST'
CONST	ENDS
;	COMDAT ??_C@_0N@LGHF@mp_footsteps?$AA@
CONST	SEGMENT DWORD USE32 PUBLIC 'CONST'
CONST	ENDS
;	COMDAT ??_C@_0M@IBOF@sv_stepsize?$AA@
CONST	SEGMENT DWORD USE32 PUBLIC 'CONST'
CONST	ENDS
;	COMDAT ??_C@_0BE@NCFI@showtriggers_toggle?$AA@
CONST	SEGMENT DWORD USE32 PUBLIC 'CONST'
CONST	ENDS
;	COMDAT ??_C@_0BC@KBPB@dump_entity_sizes?$AA@
CONST	SEGMENT DWORD USE32 PUBLIC 'CONST'
CONST	ENDS
;	COMDAT ??_C@_0BC@DHKF@dump_entity_names?$AA@
CONST	SEGMENT DWORD USE32 PUBLIC 'CONST'
CONST	ENDS
;	COMDAT ??_C@_0N@OEMG@dump_strings?$AA@
CONST	SEGMENT DWORD USE32 PUBLIC 'CONST'
CONST	ENDS
;	COMDAT ??_C@_0M@MJCC@qphys_debug?$AA@
CONST	SEGMENT DWORD USE32 PUBLIC 'CONST'
CONST	ENDS
;	COMDAT ??_C@_0P@DNID@sv_allow_PhysX?$AA@
CONST	SEGMENT DWORD USE32 PUBLIC 'CONST'
CONST	ENDS
;	COMDAT ??_C@_0BA@HNAG@exec?5skill?4cfg?6?$AA@
CONST	SEGMENT DWORD USE32 PUBLIC 'CONST'
CONST	ENDS
;	COMDAT ??_C@_0CE@EGBJ@z?3?2xashxtsrc?2game_shared?2utlarra@
CONST	SEGMENT DWORD USE32 PUBLIC 'CONST'
CONST	ENDS
;	COMDAT ??_C@_0EF@KBFD@?$CIBase?$CI?$CJ?5?$DN?$DN?5NULL?$CJ?5?$HM?$HM?5?$CI?$CGsrc?5?$DM?5Base@
CONST	SEGMENT DWORD USE32 PUBLIC 'CONST'
CONST	ENDS
;	COMDAT ??_C@_0CI@IOBG@?$CIelem?5?$DN?$DN?5Count?$CI?$CJ?$CJ?5?$HM?$HM?5IsValidInde@
CONST	SEGMENT DWORD USE32 PUBLIC 'CONST'
CONST	ENDS
;	COMDAT ??_C@_0CF@KIKJ@z?3?2xashxtsrc?2game_shared?2utlmemo@
CONST	SEGMENT DWORD USE32 PUBLIC 'CONST'
CONST	ENDS
;	COMDAT ??_C@_0P@MOH@nGrowSize?5?$DO?$DN?50?$AA@
CONST	SEGMENT DWORD USE32 PUBLIC 'CONST'
CONST	ENDS
;	COMDAT ??_C@_0O@KBCN@?$CBIsReadOnly?$CI?$CJ?$AA@
CONST	SEGMENT DWORD USE32 PUBLIC 'CONST'
CONST	ENDS
;	COMDAT ??_C@_0O@MLLF@IsIdxValid?$CIi?$CJ?$AA@
CONST	SEGMENT DWORD USE32 PUBLIC 'CONST'
CONST	ENDS
;	COMDAT ??_C@_0DG@DBGD@IsValidIndex?$CIelem?$CJ?5?$HM?$HM?5?$CI?5m_Size?5?$DN@
CONST	SEGMENT DWORD USE32 PUBLIC 'CONST'
CONST	ENDS
;	COMDAT ??_C@_07BGLK@num?5?$DO?50?$AA@
CONST	SEGMENT DWORD USE32 PUBLIC 'CONST'
CONST	ENDS
;	COMDAT ??_C@_09JCKE@m_pMemory?$AA@
CONST	SEGMENT DWORD USE32 PUBLIC 'CONST'
CONST	ENDS
;	COMDAT ?SinCos@@YAXMPAM0@Z
_TEXT	SEGMENT PARA USE32 PUBLIC 'CODE'
_TEXT	ENDS
;	COMDAT ??0Vector2D@@QAE@XZ
_TEXT	SEGMENT PARA USE32 PUBLIC 'CODE'
_TEXT	ENDS
;	COMDAT ??0Vector2D@@QAE@MM@Z
_TEXT	SEGMENT PARA USE32 PUBLIC 'CODE'
_TEXT	ENDS
;	COMDAT ??DVector2D@@QBE?AV0@M@Z
_TEXT	SEGMENT PARA USE32 PUBLIC 'CODE'
_TEXT	ENDS
;	COMDAT ?Length@Vector2D@@QBEMXZ
_TEXT	SEGMENT PARA USE32 PUBLIC 'CODE'
_TEXT	ENDS
;	COMDAT ??0Vector@@QAE@XZ
_TEXT	SEGMENT PARA USE32 PUBLIC 'CODE'
_TEXT	ENDS
;	COMDAT ??0Vector@@QAE@MMM@Z
_TEXT	SEGMENT PARA USE32 PUBLIC 'CODE'
_TEXT	ENDS
;	COMDAT ??0Vector@@QAE@ABV0@@Z
_TEXT	SEGMENT PARA USE32 PUBLIC 'CODE'
_TEXT	ENDS
;	COMDAT ??8Vector@@QBEHABV0@@Z
_TEXT	SEGMENT PARA USE32 PUBLIC 'CODE'
_TEXT	ENDS
;	COMDAT ??9Vector@@QBEHABV0@@Z
_TEXT	SEGMENT PARA USE32 PUBLIC 'CODE'
_TEXT	ENDS
;	COMDAT ??HVector@@QBE?AV0@ABV0@@Z
_TEXT	SEGMENT PARA USE32 PUBLIC 'CODE'
_TEXT	ENDS
;	COMDAT ??GVector@@QBE?AV0@ABV0@@Z
_TEXT	SEGMENT PARA USE32 PUBLIC 'CODE'
_TEXT	ENDS
;	COMDAT ??DVector@@QBE?AV0@M@Z
_TEXT	SEGMENT PARA USE32 PUBLIC 'CODE'
_TEXT	ENDS
;	COMDAT ?Length@Vector@@QBEMXZ
_TEXT	SEGMENT PARA USE32 PUBLIC 'CODE'
_TEXT	ENDS
;	COMDAT ??BVector@@QAEPAMXZ
_TEXT	SEGMENT PARA USE32 PUBLIC 'CODE'
_TEXT	ENDS
;	COMDAT ??BVector@@QBEPBMXZ
_TEXT	SEGMENT PARA USE32 PUBLIC 'CODE'
_TEXT	ENDS
;	COMDAT ??0Vector4D@@QAE@XZ
_TEXT	SEGMENT PARA USE32 PUBLIC 'CODE'
_TEXT	ENDS
;	COMDAT ??0Vector4D@@QAE@MMMM@Z
_TEXT	SEGMENT PARA USE32 PUBLIC 'CODE'
_TEXT	ENDS
;	COMDAT ??0Vector4D@@QAE@ABV0@@Z
_TEXT	SEGMENT PARA USE32 PUBLIC 'CODE'
_TEXT	ENDS
;	COMDAT ??BVector4D@@QAEPAMXZ
_TEXT	SEGMENT PARA USE32 PUBLIC 'CODE'
_TEXT	ENDS
;	COMDAT ??BVector4D@@QBEPBMXZ
_TEXT	SEGMENT PARA USE32 PUBLIC 'CODE'
_TEXT	ENDS
;	COMDAT ??BVector4D@@QAE?AVVector@@XZ
_TEXT	SEGMENT PARA USE32 PUBLIC 'CODE'
_TEXT	ENDS
;	COMDAT ??BVector4D@@QBE?BVVector@@XZ
_TEXT	SEGMENT PARA USE32 PUBLIC 'CODE'
_TEXT	ENDS
;	COMDAT ?Length@Vector4D@@QBEMXZ
_TEXT	SEGMENT PARA USE32 PUBLIC 'CODE'
_TEXT	ENDS
;	COMDAT ??8Vector4D@@QBE_NABV0@@Z
_TEXT	SEGMENT PARA USE32 PUBLIC 'CODE'
_TEXT	ENDS
;	COMDAT ??0Radian@@QAE@MMM@Z
_TEXT	SEGMENT PARA USE32 PUBLIC 'CODE'
_TEXT	ENDS
;	COMDAT ??BRadian@@QBEPBMXZ
_TEXT	SEGMENT PARA USE32 PUBLIC 'CODE'
_TEXT	ENDS
;	COMDAT ??8Radian@@QBEHABV0@@Z
_TEXT	SEGMENT PARA USE32 PUBLIC 'CODE'
_TEXT	ENDS
;	COMDAT ??0matrix3x3@@QAE@MMMMMMMMM@Z
_TEXT	SEGMENT PARA USE32 PUBLIC 'CODE'
_TEXT	ENDS
;	COMDAT ??Amatrix3x3@@QBEPBMH@Z
_TEXT	SEGMENT PARA USE32 PUBLIC 'CODE'
_TEXT	ENDS
;	COMDAT ??8matrix3x3@@QBEHABV0@@Z
_TEXT	SEGMENT PARA USE32 PUBLIC 'CODE'
_TEXT	ENDS
;	COMDAT ?GetAngles@matrix3x3@@QAE?AVVector@@XZ
_TEXT	SEGMENT PARA USE32 PUBLIC 'CODE'
_TEXT	ENDS
;	COMDAT ??_H@YGXPAXIHP6EX0@Z@Z
_TEXT	SEGMENT PARA USE32 PUBLIC 'CODE'
_TEXT	ENDS
;	COMDAT ??0matrix3x3@@QAE@ABV0@@Z
_TEXT	SEGMENT PARA USE32 PUBLIC 'CODE'
_TEXT	ENDS
;	COMDAT ??0matrix3x4@@QAE@MMMMMMMMMMMM@Z
_TEXT	SEGMENT PARA USE32 PUBLIC 'CODE'
_TEXT	ENDS
;	COMDAT ??Amatrix3x4@@QBEPBMH@Z
_TEXT	SEGMENT PARA USE32 PUBLIC 'CODE'
_TEXT	ENDS
;	COMDAT ??8matrix3x4@@QBEHABV0@@Z
_TEXT	SEGMENT PARA USE32 PUBLIC 'CODE'
_TEXT	ENDS
;	COMDAT ?GetAngles@matrix3x4@@QAE?AVVector@@XZ
_TEXT	SEGMENT PARA USE32 PUBLIC 'CODE'
_TEXT	ENDS
;	COMDAT ??0matrix3x4@@QAE@ABV0@@Z
_TEXT	SEGMENT PARA USE32 PUBLIC 'CODE'
_TEXT	ENDS
;	COMDAT ??0matrix4x4@@QAE@MMMMMMMMMMMMMMMM@Z
_TEXT	SEGMENT PARA USE32 PUBLIC 'CODE'
_TEXT	ENDS
;	COMDAT ??0matrix4x4@@QAE@ABVVector@@0M@Z
_TEXT	SEGMENT PARA USE32 PUBLIC 'CODE'
_TEXT	ENDS
;	COMDAT ??Amatrix4x4@@QBEPBMH@Z
_TEXT	SEGMENT PARA USE32 PUBLIC 'CODE'
_TEXT	ENDS
;	COMDAT ??8matrix4x4@@QBEHABV0@@Z
_TEXT	SEGMENT PARA USE32 PUBLIC 'CODE'
_TEXT	ENDS
;	COMDAT ?GetAngles@matrix4x4@@QAE?AVVector@@XZ
_TEXT	SEGMENT PARA USE32 PUBLIC 'CODE'
_TEXT	ENDS
;	COMDAT ??0matrix4x4@@QAE@ABV0@@Z
_TEXT	SEGMENT PARA USE32 PUBLIC 'CODE'
_TEXT	ENDS
;	COMDAT ?SimpleSpline@@YAMM@Z
_TEXT	SEGMENT PARA USE32 PUBLIC 'CODE'
_TEXT	ENDS
;	COMDAT ?GET_PRIVATE@@YAPAXPAUedict_s@@@Z
_TEXT	SEGMENT PARA USE32 PUBLIC 'CODE'
_TEXT	ENDS
;	COMDAT ??2@YAPAXIPAX@Z
_TEXT	SEGMENT PARA USE32 PUBLIC 'CODE'
_TEXT	ENDS
;	COMDAT ?UtlMemory_CalcNewAllocationCount@@YAHHHHH@Z
_TEXT	SEGMENT PARA USE32 PUBLIC 'CODE'
_TEXT	ENDS
;	COMDAT ?StringLessThan@@YA_NABQBD0@Z
_TEXT	SEGMENT PARA USE32 PUBLIC 'CODE'
_TEXT	ENDS
;	COMDAT ?ENT@@YAPAUedict_s@@PBUentvars_s@@@Z
_TEXT	SEGMENT PARA USE32 PUBLIC 'CODE'
_TEXT	ENDS
;	COMDAT ?ENT@@YAPAUedict_s@@H@Z
_TEXT	SEGMENT PARA USE32 PUBLIC 'CODE'
_TEXT	ENDS
;	COMDAT ?OFFSET@@YAHPBUedict_s@@@Z
_TEXT	SEGMENT PARA USE32 PUBLIC 'CODE'
_TEXT	ENDS
;	COMDAT ?OFFSET@@YAHPAUentvars_s@@@Z
_TEXT	SEGMENT PARA USE32 PUBLIC 'CODE'
_TEXT	ENDS
;	COMDAT ?VARS@@YAPAUentvars_s@@PAUedict_s@@@Z
_TEXT	SEGMENT PARA USE32 PUBLIC 'CODE'
_TEXT	ENDS
;	COMDAT ?ENTINDEX@@YAHPAUedict_s@@@Z
_TEXT	SEGMENT PARA USE32 PUBLIC 'CODE'
_TEXT	ENDS
;	COMDAT ?INDEXENT@@YAPAUedict_s@@H@Z
_TEXT	SEGMENT PARA USE32 PUBLIC 'CODE'
_TEXT	ENDS
;	COMDAT ?FNullEnt@@YAHH@Z
_TEXT	SEGMENT PARA USE32 PUBLIC 'CODE'
_TEXT	ENDS
;	COMDAT ?FNullEnt@@YAHPBUedict_s@@@Z
_TEXT	SEGMENT PARA USE32 PUBLIC 'CODE'
_TEXT	ENDS
;	COMDAT ?FNullEnt@@YAHPAUentvars_s@@@Z
_TEXT	SEGMENT PARA USE32 PUBLIC 'CODE'
_TEXT	ENDS
;	COMDAT ?FStrEq@@YAHPBD0@Z
_TEXT	SEGMENT PARA USE32 PUBLIC 'CODE'
_TEXT	ENDS
;	COMDAT ?Get@EHANDLE@@QAEPAUedict_s@@XZ
_TEXT	SEGMENT PARA USE32 PUBLIC 'CODE'
_TEXT	ENDS
;	COMDAT ??BEHANDLE@@QAEHXZ
_TEXT	SEGMENT PARA USE32 PUBLIC 'CODE'
_TEXT	ENDS
;	COMDAT ??CEHANDLE@@QAEPAVCBaseEntity@@XZ
_TEXT	SEGMENT PARA USE32 PUBLIC 'CODE'
_TEXT	ENDS
;	COMDAT ?GetClassname@CBaseEntity@@QAEPBDXZ
_TEXT	SEGMENT PARA USE32 PUBLIC 'CODE'
_TEXT	ENDS
;	COMDAT ?GetTargetname@CBaseEntity@@QAEPBDXZ
_TEXT	SEGMENT PARA USE32 PUBLIC 'CODE'
_TEXT	ENDS
;	COMDAT ?ObjectCaps@CBaseEntity@@UAEHXZ
_TEXT	SEGMENT PARA USE32 PUBLIC 'CODE'
_TEXT	ENDS
;	COMDAT ?Instance@CBaseEntity@@SAPAV1@PAUedict_s@@@Z
_TEXT	SEGMENT PARA USE32 PUBLIC 'CODE'
_TEXT	ENDS
;	COMDAT ?Instance@CBaseEntity@@SAPAV1@PAUentvars_s@@@Z
_TEXT	SEGMENT PARA USE32 PUBLIC 'CODE'
_TEXT	ENDS
;	COMDAT ?FunctionCheck@CBaseEntity@@QAEXPAXPAD@Z
_TEXT	SEGMENT PARA USE32 PUBLIC 'CODE'
_TEXT	ENDS
;	COMDAT ?ClearGroundEntity@CBaseEntity@@QAEXXZ
_TEXT	SEGMENT PARA USE32 PUBLIC 'CODE'
_TEXT	ENDS
;	COMDAT ?GetModelType@CBaseEntity@@QAE?AW4modtype_t@@XZ
_TEXT	SEGMENT PARA USE32 PUBLIC 'CODE'
_TEXT	ENDS
;	COMDAT ?edict@CBaseEntity@@QAEPAUedict_s@@XZ
_TEXT	SEGMENT PARA USE32 PUBLIC 'CODE'
_TEXT	ENDS
;	COMDAT ?EntityToWorldTransform@CBaseEntity@@QBEABVmatrix4x4@@XZ
_TEXT	SEGMENT PARA USE32 PUBLIC 'CODE'
_TEXT	ENDS
;	COMDAT ?GetLocalTime@CBaseEntity@@QBEMXZ
_TEXT	SEGMENT PARA USE32 PUBLIC 'CODE'
_TEXT	ENDS
;	COMDAT ?SetConditions@CBaseMonster@@QAEXH@Z
_TEXT	SEGMENT PARA USE32 PUBLIC 'CODE'
_TEXT	ENDS
;	COMDAT ?HasConditions@CBaseMonster@@QAEHH@Z
_TEXT	SEGMENT PARA USE32 PUBLIC 'CODE'
_TEXT	ENDS
;	COMDAT ?Cmd_ShowTriggers_f@@YAXXZ
_TEXT	SEGMENT PARA USE32 PUBLIC 'CODE'
_TEXT	ENDS
;	COMDAT ?GameDLLInit@@YAXXZ
_TEXT	SEGMENT PARA USE32 PUBLIC 'CODE'
_TEXT	ENDS
;	COMDAT ?GameDLLShutdown@@YAXXZ
_TEXT	SEGMENT PARA USE32 PUBLIC 'CODE'
_TEXT	ENDS
;	COMDAT ??0?$CUtlArray@PADV?$CUtlMemory@PADH@@@@QAE@HH@Z
_TEXT	SEGMENT PARA USE32 PUBLIC 'CODE'
_TEXT	ENDS
;	COMDAT ??1?$CUtlArray@PADV?$CUtlMemory@PADH@@@@QAE@XZ
_TEXT	SEGMENT PARA USE32 PUBLIC 'CODE'
_TEXT	ENDS
;	COMDAT ??A?$CUtlArray@PADV?$CUtlMemory@PADH@@@@QAEAAPADH@Z
_TEXT	SEGMENT PARA USE32 PUBLIC 'CODE'
_TEXT	ENDS
;	COMDAT ?Count@?$CUtlArray@PADV?$CUtlMemory@PADH@@@@QBEHXZ
_TEXT	SEGMENT PARA USE32 PUBLIC 'CODE'
_TEXT	ENDS
;	COMDAT ?AddToTail@?$CUtlArray@PADV?$CUtlMemory@PADH@@@@QAEHABQAD@Z
_TEXT	SEGMENT PARA USE32 PUBLIC 'CODE'
_TEXT	ENDS
;	COMDAT ?Base@?$CUtlArray@PADV?$CUtlMemory@PADH@@@@QAEPAPADXZ
_TEXT	SEGMENT PARA USE32 PUBLIC 'CODE'
_TEXT	ENDS
;	COMDAT ?ResetDbgInfo@?$CUtlArray@PADV?$CUtlMemory@PADH@@@@IAEXXZ
_TEXT	SEGMENT PARA USE32 PUBLIC 'CODE'
_TEXT	ENDS
;	COMDAT ?InsertBefore@?$CUtlArray@PADV?$CUtlMemory@PADH@@@@QAEHHABQAD@Z
_TEXT	SEGMENT PARA USE32 PUBLIC 'CODE'
_TEXT	ENDS
;	COMDAT ?Purge@?$CUtlArray@PADV?$CUtlMemory@PADH@@@@QAEXXZ
_TEXT	SEGMENT PARA USE32 PUBLIC 'CODE'
_TEXT	ENDS
;	COMDAT ??0?$CUtlMemory@PADH@@QAE@HH@Z
_TEXT	SEGMENT PARA USE32 PUBLIC 'CODE'
_TEXT	ENDS
;	COMDAT ??1?$CUtlMemory@PADH@@QAE@XZ
_TEXT	SEGMENT PARA USE32 PUBLIC 'CODE'
_TEXT	ENDS
;	COMDAT ??A?$CUtlMemory@PADH@@QAEAAPADH@Z
_TEXT	SEGMENT PARA USE32 PUBLIC 'CODE'
_TEXT	ENDS
;	COMDAT ?Base@?$CUtlMemory@PADH@@QAEPAPADXZ
_TEXT	SEGMENT PARA USE32 PUBLIC 'CODE'
_TEXT	ENDS
;	COMDAT ?ValidateGrowSize@?$CUtlMemory@PADH@@IAEXXZ
_TEXT	SEGMENT PARA USE32 PUBLIC 'CODE'
_TEXT	ENDS
;	COMDAT ?Element@?$CUtlArray@PADV?$CUtlMemory@PADH@@@@QAEAAPADH@Z
_TEXT	SEGMENT PARA USE32 PUBLIC 'CODE'
_TEXT	ENDS
;	COMDAT ?IsValidIndex@?$CUtlArray@PADV?$CUtlMemory@PADH@@@@QBE_NH@Z
_TEXT	SEGMENT PARA USE32 PUBLIC 'CODE'
_TEXT	ENDS
;	COMDAT ?RemoveAll@?$CUtlArray@PADV?$CUtlMemory@PADH@@@@QAEXXZ
_TEXT	SEGMENT PARA USE32 PUBLIC 'CODE'
_TEXT	ENDS
;	COMDAT ?GrowVector@?$CUtlArray@PADV?$CUtlMemory@PADH@@@@IAEXH@Z
_TEXT	SEGMENT PARA USE32 PUBLIC 'CODE'
_TEXT	ENDS
;	COMDAT ?ShiftElementsRight@?$CUtlArray@PADV?$CUtlMemory@PADH@@@@IAEXHH@Z
_TEXT	SEGMENT PARA USE32 PUBLIC 'CODE'
_TEXT	ENDS
;	COMDAT ?CopyConstruct@@YAXPAPADABQAD@Z
_TEXT	SEGMENT PARA USE32 PUBLIC 'CODE'
_TEXT	ENDS
;	COMDAT ?IsIdxValid@?$CUtlMemory@PADH@@QBE_NH@Z
_TEXT	SEGMENT PARA USE32 PUBLIC 'CODE'
_TEXT	ENDS
;	COMDAT ?Purge@?$CUtlMemory@PADH@@QAEXXZ
_TEXT	SEGMENT PARA USE32 PUBLIC 'CODE'
_TEXT	ENDS
;	COMDAT ?IsReadOnly@?$CUtlMemory@PADH@@QBE_NXZ
_TEXT	SEGMENT PARA USE32 PUBLIC 'CODE'
_TEXT	ENDS
;	COMDAT ?NumAllocated@?$CUtlMemory@PADH@@QBEHXZ
_TEXT	SEGMENT PARA USE32 PUBLIC 'CODE'
_TEXT	ENDS
;	COMDAT ?Grow@?$CUtlMemory@PADH@@QAEXH@Z
_TEXT	SEGMENT PARA USE32 PUBLIC 'CODE'
_TEXT	ENDS
;	COMDAT ?IsExternallyAllocated@?$CUtlMemory@PADH@@QBE_NXZ
_TEXT	SEGMENT PARA USE32 PUBLIC 'CODE'
_TEXT	ENDS
;	COMDAT ?Destruct@@YAXPAPAD@Z
_TEXT	SEGMENT PARA USE32 PUBLIC 'CODE'
_TEXT	ENDS
FLAT	GROUP _DATA, CONST, _BSS
	ASSUME	CS: FLAT, DS: FLAT, SS: FLAT
endif
PUBLIC	??_C@_01KOLO@2?$AA@				; `string'
PUBLIC	?sk_monster_head2@@3Ucvar_s@@A			; sk_monster_head2
PUBLIC	??_C@_0BB@GPLI@sk_monster_head2?$AA@		; `string'
PUBLIC	?sk_monster_head3@@3Ucvar_s@@A			; sk_monster_head3
PUBLIC	??_C@_0BB@MFCP@sk_monster_head3?$AA@		; `string'
PUBLIC	?sk_monster_chest1@@3Ucvar_s@@A			; sk_monster_chest1
PUBLIC	??_C@_0BC@ODAK@sk_monster_chest1?$AA@		; `string'
PUBLIC	?sk_monster_chest2@@3Ucvar_s@@A			; sk_monster_chest2
PUBLIC	??_C@_0BC@BMLD@sk_monster_chest2?$AA@		; `string'
PUBLIC	?sk_monster_chest3@@3Ucvar_s@@A			; sk_monster_chest3
PUBLIC	??_C@_0BC@LGCE@sk_monster_chest3?$AA@		; `string'
PUBLIC	?sk_monster_stomach1@@3Ucvar_s@@A		; sk_monster_stomach1
PUBLIC	??_C@_0BE@HDLO@sk_monster_stomach1?$AA@		; `string'
PUBLIC	?sk_monster_stomach2@@3Ucvar_s@@A		; sk_monster_stomach2
PUBLIC	??_C@_0BE@IMAH@sk_monster_stomach2?$AA@		; `string'
PUBLIC	?sk_monster_stomach3@@3Ucvar_s@@A		; sk_monster_stomach3
PUBLIC	??_C@_0BE@CGJA@sk_monster_stomach3?$AA@		; `string'
PUBLIC	?sk_monster_arm1@@3Ucvar_s@@A			; sk_monster_arm1
PUBLIC	??_C@_0BA@HFLM@sk_monster_arm1?$AA@		; `string'
PUBLIC	?sk_monster_arm2@@3Ucvar_s@@A			; sk_monster_arm2
PUBLIC	??_C@_0BA@IKAF@sk_monster_arm2?$AA@		; `string'
PUBLIC	?sk_monster_arm3@@3Ucvar_s@@A			; sk_monster_arm3
PUBLIC	??_C@_0BA@CAJC@sk_monster_arm3?$AA@		; `string'
PUBLIC	?sk_monster_leg1@@3Ucvar_s@@A			; sk_monster_leg1
PUBLIC	??_C@_0BA@OIDM@sk_monster_leg1?$AA@		; `string'
PUBLIC	?sk_monster_leg2@@3Ucvar_s@@A			; sk_monster_leg2
PUBLIC	??_C@_0BA@BHIF@sk_monster_leg2?$AA@		; `string'
PUBLIC	?sk_monster_leg3@@3Ucvar_s@@A			; sk_monster_leg3
PUBLIC	??_C@_0BA@LNBC@sk_monster_leg3?$AA@		; `string'
PUBLIC	?sk_player_head1@@3Ucvar_s@@A			; sk_player_head1
PUBLIC	??_C@_0BA@NBKO@sk_player_head1?$AA@		; `string'
PUBLIC	?sk_player_head2@@3Ucvar_s@@A			; sk_player_head2
PUBLIC	??_C@_0BA@COBH@sk_player_head2?$AA@		; `string'
PUBLIC	?sk_player_head3@@3Ucvar_s@@A			; sk_player_head3
PUBLIC	??_C@_0BA@IEIA@sk_player_head3?$AA@		; `string'
PUBLIC	?sk_player_chest1@@3Ucvar_s@@A			; sk_player_chest1
PUBLIC	??_C@_0BB@FLEL@sk_player_chest1?$AA@		; `string'
PUBLIC	?sk_player_chest2@@3Ucvar_s@@A			; sk_player_chest2
PUBLIC	??_C@_0BB@KEPC@sk_player_chest2?$AA@		; `string'
PUBLIC	?sk_player_chest3@@3Ucvar_s@@A			; sk_player_chest3
PUBLIC	??_C@_0BB@OGF@sk_player_chest3?$AA@		; `string'
PUBLIC	?sk_player_stomach1@@3Ucvar_s@@A		; sk_player_stomach1
PUBLIC	??_C@_0BD@GFHC@sk_player_stomach1?$AA@		; `string'
PUBLIC	?sk_player_stomach2@@3Ucvar_s@@A		; sk_player_stomach2
PUBLIC	??_C@_0BD@JKML@sk_player_stomach2?$AA@		; `string'
PUBLIC	?sk_player_stomach3@@3Ucvar_s@@A		; sk_player_stomach3
PUBLIC	??_C@_0BD@DAFM@sk_player_stomach3?$AA@		; `string'
PUBLIC	?sk_player_arm1@@3Ucvar_s@@A			; sk_player_arm1
PUBLIC	??_C@_0P@NKHJ@sk_player_arm1?$AA@		; `string'
PUBLIC	?sk_player_arm2@@3Ucvar_s@@A			; sk_player_arm2
PUBLIC	??_C@_0P@CFMA@sk_player_arm2?$AA@		; `string'
PUBLIC	?sk_player_arm3@@3Ucvar_s@@A			; sk_player_arm3
PUBLIC	??_C@_0P@IPFH@sk_player_arm3?$AA@		; `string'
PUBLIC	?sk_player_leg1@@3Ucvar_s@@A			; sk_player_leg1
PUBLIC	??_C@_0P@EHPJ@sk_player_leg1?$AA@		; `string'
PUBLIC	?sk_player_leg2@@3Ucvar_s@@A			; sk_player_leg2
PUBLIC	??_C@_0P@LIEA@sk_player_leg2?$AA@		; `string'
PUBLIC	?sk_player_leg3@@3Ucvar_s@@A			; sk_player_leg3
PUBLIC	??_C@_0P@BCNH@sk_player_leg3?$AA@		; `string'
PUBLIC	??_C@_0BB@GGHG@displaysoundlist?$AA@		; `string'
PUBLIC	??_C@_01PLJA@0?$AA@				; `string'
PUBLIC	?fragsleft@@3Ucvar_s@@A				; fragsleft
PUBLIC	??_C@_0N@FNEM@mp_fragsleft?$AA@			; `string'
PUBLIC	?timeleft@@3Ucvar_s@@A				; timeleft
PUBLIC	?displaysoundlist@@3Ucvar_s@@A			; displaysoundlist
PUBLIC	??_C@_0M@IHID@mp_timeleft?$AA@			; `string'
PUBLIC	?teamplay@@3Ucvar_s@@A				; teamplay
PUBLIC	??_C@_0M@KOKP@mp_teamplay?$AA@			; `string'
PUBLIC	?fraglimit@@3Ucvar_s@@A				; fraglimit
PUBLIC	??_C@_0N@MKGH@mp_fraglimit?$AA@			; `string'
PUBLIC	?timelimit@@3Ucvar_s@@A				; timelimit
PUBLIC	??_C@_0N@JECA@mp_timelimit?$AA@			; `string'
PUBLIC	?friendlyfire@@3Ucvar_s@@A			; friendlyfire
PUBLIC	??_C@_0BA@NHMN@mp_friendlyfire?$AA@		; `string'
PUBLIC	?falldamage@@3Ucvar_s@@A			; falldamage
PUBLIC	??_C@_0O@OCEA@mp_falldamage?$AA@		; `string'
PUBLIC	?weaponstay@@3Ucvar_s@@A			; weaponstay
PUBLIC	??_C@_0O@FPOG@mp_weaponstay?$AA@		; `string'
PUBLIC	?forcerespawn@@3Ucvar_s@@A			; forcerespawn
PUBLIC	??_C@_0BA@OHKH@mp_forcerespawn?$AA@		; `string'
PUBLIC	?flashlight@@3Ucvar_s@@A			; flashlight
PUBLIC	??_C@_01FBAH@1?$AA@				; `string'
PUBLIC	?aimcrosshair@@3Ucvar_s@@A			; aimcrosshair
PUBLIC	??_C@_0O@DCFE@mp_flashlight?$AA@		; `string'
PUBLIC	?decalfrequency@@3Ucvar_s@@A			; decalfrequency
PUBLIC	??_C@_0BB@IDFJ@mp_autocrosshair?$AA@		; `string'
PUBLIC	?teamlist@@3Ucvar_s@@A				; teamlist
PUBLIC	??_C@_0P@FJGF@decalfrequency?$AA@		; `string'
PUBLIC	?teamoverride@@3Ucvar_s@@A			; teamoverride
PUBLIC	??_C@_0M@ENJF@mp_teamlist?$AA@			; `string'
PUBLIC	?defaultteam@@3Ucvar_s@@A			; defaultteam
PUBLIC	??_C@_0BB@HGPB@hgrunt?$DLscientist?$AA@		; `string'
PUBLIC	?allowmonsters@@3Ucvar_s@@A			; allowmonsters
PUBLIC	??_C@_0BA@HLDE@mp_teamoverride?$AA@		; `string'
PUBLIC	?g_psv_gravity@@3PAUcvar_s@@A			; g_psv_gravity
PUBLIC	??_C@_0P@OMJO@mp_defaultteam?$AA@		; `string'
PUBLIC	?g_psv_aim@@3PAUcvar_s@@A			; g_psv_aim
PUBLIC	??_C@_0BB@GNCO@mp_allowmonsters?$AA@		; `string'
PUBLIC	?mp_chattime@@3Ucvar_s@@A			; mp_chattime
PUBLIC	?g_psv_stepsize@@3PAUcvar_s@@A			; g_psv_stepsize
PUBLIC	?g_footsteps@@3PAUcvar_s@@A			; g_footsteps
PUBLIC	??_C@_0M@KANF@mp_chattime?$AA@			; `string'
PUBLIC	?g_debugdraw@@3PAUcvar_s@@A			; g_debugdraw
PUBLIC	??_C@_02FCMB@10?$AA@				; `string'
PUBLIC	?p_speeds@@3PAUcvar_s@@A			; p_speeds
PUBLIC	?debugdraw@@3Ucvar_s@@A				; debugdraw
PUBLIC	?g_physdebug@@3PAUcvar_s@@A			; g_physdebug
PUBLIC	??_C@_0L@HJFJ@phys_debug?$AA@			; `string'
PUBLIC	?g_allow_physx@@3PAUcvar_s@@A			; g_allow_physx
PUBLIC	?physdebug@@3Ucvar_s@@A				; physdebug
PUBLIC	?g_sync_physic@@3Ucvar_s@@A			; g_sync_physic
PUBLIC	??_C@_0M@OOPC@phys_qdebug?$AA@			; `string'
PUBLIC	?physstats@@3Ucvar_s@@A				; physstats
PUBLIC	??_C@_08FNPH@p_speeds?$AA@			; `string'
PUBLIC	??_C@_0P@FPKK@sv_sync_physic?$AA@		; `string'
PUBLIC	?sk_agrunt_health1@@3Ucvar_s@@A			; sk_agrunt_health1
PUBLIC	??_C@_0BC@NPKK@sk_agrunt_health1?$AA@		; `string'
PUBLIC	?sk_agrunt_health2@@3Ucvar_s@@A			; sk_agrunt_health2
PUBLIC	??_C@_0BC@CABD@sk_agrunt_health2?$AA@		; `string'
PUBLIC	?sk_agrunt_health3@@3Ucvar_s@@A			; sk_agrunt_health3
PUBLIC	??_C@_0BC@IKIE@sk_agrunt_health3?$AA@		; `string'
PUBLIC	?sk_agrunt_dmg_punch1@@3Ucvar_s@@A		; sk_agrunt_dmg_punch1
PUBLIC	??_C@_0BF@NCLM@sk_agrunt_dmg_punch1?$AA@	; `string'
PUBLIC	?sk_agrunt_dmg_punch2@@3Ucvar_s@@A		; sk_agrunt_dmg_punch2
PUBLIC	??_C@_0BF@CNAF@sk_agrunt_dmg_punch2?$AA@	; `string'
PUBLIC	?sk_agrunt_dmg_punch3@@3Ucvar_s@@A		; sk_agrunt_dmg_punch3
PUBLIC	??_C@_0BF@IHJC@sk_agrunt_dmg_punch3?$AA@	; `string'
PUBLIC	?sk_apache_health1@@3Ucvar_s@@A			; sk_apache_health1
PUBLIC	??_C@_0BC@GHJ@sk_apache_health1?$AA@		; `string'
PUBLIC	?sk_apache_health2@@3Ucvar_s@@A			; sk_apache_health2
PUBLIC	??_C@_0BC@PJMA@sk_apache_health2?$AA@		; `string'
PUBLIC	?sk_apache_health3@@3Ucvar_s@@A			; sk_apache_health3
PUBLIC	??_C@_0BC@FDFH@sk_apache_health3?$AA@		; `string'
PUBLIC	?sk_barney_health1@@3Ucvar_s@@A			; sk_barney_health1
PUBLIC	??_C@_0BC@CMFK@sk_barney_health1?$AA@		; `string'
PUBLIC	?sk_barney_health2@@3Ucvar_s@@A			; sk_barney_health2
PUBLIC	??_C@_0BC@NDOD@sk_barney_health2?$AA@		; `string'
PUBLIC	?sk_barney_health3@@3Ucvar_s@@A			; sk_barney_health3
PUBLIC	??_C@_0BC@HJHE@sk_barney_health3?$AA@		; `string'
PUBLIC	?sk_bullsquid_health1@@3Ucvar_s@@A		; sk_bullsquid_health1
PUBLIC	??_C@_0BF@OBBN@sk_bullsquid_health1?$AA@	; `string'
PUBLIC	?sk_bullsquid_health2@@3Ucvar_s@@A		; sk_bullsquid_health2
PUBLIC	??_C@_0BF@BOKE@sk_bullsquid_health2?$AA@	; `string'
PUBLIC	?sk_bullsquid_health3@@3Ucvar_s@@A		; sk_bullsquid_health3
PUBLIC	??_C@_0BF@LEDD@sk_bullsquid_health3?$AA@	; `string'
PUBLIC	?sk_bullsquid_dmg_bite1@@3Ucvar_s@@A		; sk_bullsquid_dmg_bite1
PUBLIC	??_C@_0BH@FMJ@sk_bullsquid_dmg_bite1?$AA@	; `string'
PUBLIC	?sk_bullsquid_dmg_bite2@@3Ucvar_s@@A		; sk_bullsquid_dmg_bite2
PUBLIC	??_C@_0BH@PKHA@sk_bullsquid_dmg_bite2?$AA@	; `string'
PUBLIC	?sk_bullsquid_dmg_bite3@@3Ucvar_s@@A		; sk_bullsquid_dmg_bite3
PUBLIC	??_C@_0BH@FAOH@sk_bullsquid_dmg_bite3?$AA@	; `string'
PUBLIC	?sk_bullsquid_dmg_whip1@@3Ucvar_s@@A		; sk_bullsquid_dmg_whip1
PUBLIC	??_C@_0BH@IPEE@sk_bullsquid_dmg_whip1?$AA@	; `string'
PUBLIC	?sk_bullsquid_dmg_whip2@@3Ucvar_s@@A		; sk_bullsquid_dmg_whip2
PUBLIC	??_C@_0BH@HAPN@sk_bullsquid_dmg_whip2?$AA@	; `string'
PUBLIC	?sk_bullsquid_dmg_whip3@@3Ucvar_s@@A		; sk_bullsquid_dmg_whip3
PUBLIC	??_C@_0BH@NKGK@sk_bullsquid_dmg_whip3?$AA@	; `string'
PUBLIC	?sk_bullsquid_dmg_spit1@@3Ucvar_s@@A		; sk_bullsquid_dmg_spit1
PUBLIC	??_C@_0BH@CKMK@sk_bullsquid_dmg_spit1?$AA@	; `string'
PUBLIC	?sk_bullsquid_dmg_spit2@@3Ucvar_s@@A		; sk_bullsquid_dmg_spit2
PUBLIC	??_C@_0BH@NFHD@sk_bullsquid_dmg_spit2?$AA@	; `string'
PUBLIC	?sk_bullsquid_dmg_spit3@@3Ucvar_s@@A		; sk_bullsquid_dmg_spit3
PUBLIC	??_C@_0BH@HPOE@sk_bullsquid_dmg_spit3?$AA@	; `string'
PUBLIC	?sk_bigmomma_health_factor1@@3Ucvar_s@@A	; sk_bigmomma_health_factor1
PUBLIC	??_C@_0BL@EDLI@sk_bigmomma_health_factor1?$AA@	; `string'
PUBLIC	??_C@_03NNMA@1?40?$AA@				; `string'
PUBLIC	?sk_bigmomma_health_factor2@@3Ucvar_s@@A	; sk_bigmomma_health_factor2
PUBLIC	??_C@_0BL@LMAB@sk_bigmomma_health_factor2?$AA@	; `string'
PUBLIC	?sk_bigmomma_health_factor3@@3Ucvar_s@@A	; sk_bigmomma_health_factor3
PUBLIC	??_C@_0BL@BGJG@sk_bigmomma_health_factor3?$AA@	; `string'
PUBLIC	?sk_bigmomma_dmg_slash1@@3Ucvar_s@@A		; sk_bigmomma_dmg_slash1
PUBLIC	??_C@_0BH@KKIK@sk_bigmomma_dmg_slash1?$AA@	; `string'
PUBLIC	??_C@_02IGL@50?$AA@				; `string'
PUBLIC	?sk_bigmomma_dmg_slash2@@3Ucvar_s@@A		; sk_bigmomma_dmg_slash2
PUBLIC	??_C@_0BH@FFDD@sk_bigmomma_dmg_slash2?$AA@	; `string'
PUBLIC	?sk_bigmomma_dmg_slash3@@3Ucvar_s@@A		; sk_bigmomma_dmg_slash3
PUBLIC	??_C@_0BH@PPKE@sk_bigmomma_dmg_slash3?$AA@	; `string'
PUBLIC	?sk_bigmomma_dmg_blast1@@3Ucvar_s@@A		; sk_bigmomma_dmg_blast1
PUBLIC	??_C@_0BH@OAHP@sk_bigmomma_dmg_blast1?$AA@	; `string'
PUBLIC	??_C@_03HFMC@100?$AA@				; `string'
PUBLIC	?sk_bigmomma_dmg_blast2@@3Ucvar_s@@A		; sk_bigmomma_dmg_blast2
PUBLIC	??_C@_0BH@BPMG@sk_bigmomma_dmg_blast2?$AA@	; `string'
PUBLIC	?sk_bigmomma_dmg_blast3@@3Ucvar_s@@A		; sk_bigmomma_dmg_blast3
PUBLIC	??_C@_0BH@LFFB@sk_bigmomma_dmg_blast3?$AA@	; `string'
PUBLIC	?sk_bigmomma_radius_blast1@@3Ucvar_s@@A		; sk_bigmomma_radius_blast1
PUBLIC	??_C@_0BK@CDFD@sk_bigmomma_radius_blast1?$AA@	; `string'
PUBLIC	??_C@_03MPPJ@250?$AA@				; `string'
PUBLIC	?sk_bigmomma_radius_blast2@@3Ucvar_s@@A		; sk_bigmomma_radius_blast2
PUBLIC	??_C@_0BK@NMOK@sk_bigmomma_radius_blast2?$AA@	; `string'
PUBLIC	?sk_bigmomma_radius_blast3@@3Ucvar_s@@A		; sk_bigmomma_radius_blast3
PUBLIC	??_C@_0BK@HGHN@sk_bigmomma_radius_blast3?$AA@	; `string'
PUBLIC	?sk_gargantua_health1@@3Ucvar_s@@A		; sk_gargantua_health1
PUBLIC	??_C@_0BF@JEJB@sk_gargantua_health1?$AA@	; `string'
PUBLIC	?sk_gargantua_health2@@3Ucvar_s@@A		; sk_gargantua_health2
PUBLIC	??_C@_0BF@GLCI@sk_gargantua_health2?$AA@	; `string'
PUBLIC	?sk_gargantua_health3@@3Ucvar_s@@A		; sk_gargantua_health3
PUBLIC	??_C@_0BF@MBLP@sk_gargantua_health3?$AA@	; `string'
PUBLIC	?sk_gargantua_dmg_slash1@@3Ucvar_s@@A		; sk_gargantua_dmg_slash1
PUBLIC	??_C@_0BI@OMKD@sk_gargantua_dmg_slash1?$AA@	; `string'
PUBLIC	?sk_gargantua_dmg_slash2@@3Ucvar_s@@A		; sk_gargantua_dmg_slash2
PUBLIC	??_C@_0BI@BDBK@sk_gargantua_dmg_slash2?$AA@	; `string'
PUBLIC	?sk_gargantua_dmg_slash3@@3Ucvar_s@@A		; sk_gargantua_dmg_slash3
PUBLIC	??_C@_0BI@LJIN@sk_gargantua_dmg_slash3?$AA@	; `string'
PUBLIC	?sk_gargantua_dmg_fire1@@3Ucvar_s@@A		; sk_gargantua_dmg_fire1
PUBLIC	??_C@_0BH@OJK@sk_gargantua_dmg_fire1?$AA@	; `string'
PUBLIC	?sk_gargantua_dmg_fire2@@3Ucvar_s@@A		; sk_gargantua_dmg_fire2
PUBLIC	??_C@_0BH@PBCD@sk_gargantua_dmg_fire2?$AA@	; `string'
PUBLIC	?sk_gargantua_dmg_fire3@@3Ucvar_s@@A		; sk_gargantua_dmg_fire3
PUBLIC	??_C@_0BH@FLLE@sk_gargantua_dmg_fire3?$AA@	; `string'
PUBLIC	?sk_gargantua_dmg_stomp1@@3Ucvar_s@@A		; sk_gargantua_dmg_stomp1
PUBLIC	??_C@_0BI@JIPF@sk_gargantua_dmg_stomp1?$AA@	; `string'
PUBLIC	?sk_gargantua_dmg_stomp2@@3Ucvar_s@@A		; sk_gargantua_dmg_stomp2
PUBLIC	??_C@_0BI@GHEM@sk_gargantua_dmg_stomp2?$AA@	; `string'
PUBLIC	?sk_gargantua_dmg_stomp3@@3Ucvar_s@@A		; sk_gargantua_dmg_stomp3
PUBLIC	??_C@_0BI@MNNL@sk_gargantua_dmg_stomp3?$AA@	; `string'
PUBLIC	?sk_hassassin_health1@@3Ucvar_s@@A		; sk_hassassin_health1
PUBLIC	??_C@_0BF@KBBM@sk_hassassin_health1?$AA@	; `string'
PUBLIC	?sk_hassassin_health2@@3Ucvar_s@@A		; sk_hassassin_health2
PUBLIC	??_C@_0BF@FOKF@sk_hassassin_health2?$AA@	; `string'
PUBLIC	?sk_hassassin_health3@@3Ucvar_s@@A		; sk_hassassin_health3
PUBLIC	??_C@_0BF@PEDC@sk_hassassin_health3?$AA@	; `string'
PUBLIC	?sk_headcrab_health1@@3Ucvar_s@@A		; sk_headcrab_health1
PUBLIC	??_C@_0BE@PNLG@sk_headcrab_health1?$AA@		; `string'
PUBLIC	?sk_headcrab_health2@@3Ucvar_s@@A		; sk_headcrab_health2
PUBLIC	??_C@_0BE@CAP@sk_headcrab_health2?$AA@		; `string'
PUBLIC	?sk_headcrab_health3@@3Ucvar_s@@A		; sk_headcrab_health3
PUBLIC	??_C@_0BE@KIJI@sk_headcrab_health3?$AA@		; `string'
PUBLIC	?sk_headcrab_dmg_bite1@@3Ucvar_s@@A		; sk_headcrab_dmg_bite1
PUBLIC	??_C@_0BG@OCAC@sk_headcrab_dmg_bite1?$AA@	; `string'
PUBLIC	?sk_headcrab_dmg_bite2@@3Ucvar_s@@A		; sk_headcrab_dmg_bite2
PUBLIC	??_C@_0BG@BNLL@sk_headcrab_dmg_bite2?$AA@	; `string'
PUBLIC	?sk_headcrab_dmg_bite3@@3Ucvar_s@@A		; sk_headcrab_dmg_bite3
PUBLIC	??_C@_0BG@LHCM@sk_headcrab_dmg_bite3?$AA@	; `string'
PUBLIC	?sk_hgrunt_health1@@3Ucvar_s@@A			; sk_hgrunt_health1
PUBLIC	??_C@_0BC@HNHA@sk_hgrunt_health1?$AA@		; `string'
PUBLIC	?sk_hgrunt_health2@@3Ucvar_s@@A			; sk_hgrunt_health2
PUBLIC	??_C@_0BC@ICMJ@sk_hgrunt_health2?$AA@		; `string'
PUBLIC	?sk_hgrunt_health3@@3Ucvar_s@@A			; sk_hgrunt_health3
PUBLIC	??_C@_0BC@CIFO@sk_hgrunt_health3?$AA@		; `string'
PUBLIC	?sk_hgrunt_kick1@@3Ucvar_s@@A			; sk_hgrunt_kick1
PUBLIC	??_C@_0BA@CNFO@sk_hgrunt_kick1?$AA@		; `string'
PUBLIC	?sk_hgrunt_kick2@@3Ucvar_s@@A			; sk_hgrunt_kick2
PUBLIC	??_C@_0BA@NCOH@sk_hgrunt_kick2?$AA@		; `string'
PUBLIC	?sk_hgrunt_kick3@@3Ucvar_s@@A			; sk_hgrunt_kick3
PUBLIC	??_C@_0BA@HIHA@sk_hgrunt_kick3?$AA@		; `string'
PUBLIC	?sk_hgrunt_pellets1@@3Ucvar_s@@A		; sk_hgrunt_pellets1
PUBLIC	??_C@_0BD@CBMA@sk_hgrunt_pellets1?$AA@		; `string'
PUBLIC	?sk_hgrunt_pellets2@@3Ucvar_s@@A		; sk_hgrunt_pellets2
PUBLIC	??_C@_0BD@NOHJ@sk_hgrunt_pellets2?$AA@		; `string'
PUBLIC	?sk_hgrunt_pellets3@@3Ucvar_s@@A		; sk_hgrunt_pellets3
PUBLIC	??_C@_0BD@HEOO@sk_hgrunt_pellets3?$AA@		; `string'
PUBLIC	?sk_hgrunt_gspeed1@@3Ucvar_s@@A			; sk_hgrunt_gspeed1
PUBLIC	??_C@_0BC@NGMH@sk_hgrunt_gspeed1?$AA@		; `string'
PUBLIC	?sk_hgrunt_gspeed2@@3Ucvar_s@@A			; sk_hgrunt_gspeed2
PUBLIC	??_C@_0BC@CJHO@sk_hgrunt_gspeed2?$AA@		; `string'
PUBLIC	?sk_hgrunt_gspeed3@@3Ucvar_s@@A			; sk_hgrunt_gspeed3
PUBLIC	??_C@_0BC@IDOJ@sk_hgrunt_gspeed3?$AA@		; `string'
PUBLIC	?sk_houndeye_health1@@3Ucvar_s@@A		; sk_houndeye_health1
PUBLIC	??_C@_0BE@DBBL@sk_houndeye_health1?$AA@		; `string'
PUBLIC	?sk_houndeye_health2@@3Ucvar_s@@A		; sk_houndeye_health2
PUBLIC	??_C@_0BE@MOKC@sk_houndeye_health2?$AA@		; `string'
PUBLIC	?sk_houndeye_health3@@3Ucvar_s@@A		; sk_houndeye_health3
PUBLIC	??_C@_0BE@GEDF@sk_houndeye_health3?$AA@		; `string'
PUBLIC	?sk_houndeye_dmg_blast1@@3Ucvar_s@@A		; sk_houndeye_dmg_blast1
PUBLIC	??_C@_0BH@OMHB@sk_houndeye_dmg_blast1?$AA@	; `string'
PUBLIC	?sk_houndeye_dmg_blast2@@3Ucvar_s@@A		; sk_houndeye_dmg_blast2
PUBLIC	??_C@_0BH@BDMI@sk_houndeye_dmg_blast2?$AA@	; `string'
PUBLIC	?sk_houndeye_dmg_blast3@@3Ucvar_s@@A		; sk_houndeye_dmg_blast3
PUBLIC	??_C@_0BH@LJFP@sk_houndeye_dmg_blast3?$AA@	; `string'
PUBLIC	?sk_islave_health1@@3Ucvar_s@@A			; sk_islave_health1
PUBLIC	??_C@_0BC@DFPE@sk_islave_health1?$AA@		; `string'
PUBLIC	?sk_islave_health2@@3Ucvar_s@@A			; sk_islave_health2
PUBLIC	??_C@_0BC@MKEN@sk_islave_health2?$AA@		; `string'
PUBLIC	?sk_islave_health3@@3Ucvar_s@@A			; sk_islave_health3
PUBLIC	??_C@_0BC@GANK@sk_islave_health3?$AA@		; `string'
PUBLIC	?sk_islave_dmg_claw1@@3Ucvar_s@@A		; sk_islave_dmg_claw1
PUBLIC	??_C@_0BE@KHKM@sk_islave_dmg_claw1?$AA@		; `string'
PUBLIC	?sk_islave_dmg_claw2@@3Ucvar_s@@A		; sk_islave_dmg_claw2
PUBLIC	??_C@_0BE@FIBF@sk_islave_dmg_claw2?$AA@		; `string'
PUBLIC	?sk_islave_dmg_claw3@@3Ucvar_s@@A		; sk_islave_dmg_claw3
PUBLIC	??_C@_0BE@PCIC@sk_islave_dmg_claw3?$AA@		; `string'
PUBLIC	?sk_islave_dmg_clawrake1@@3Ucvar_s@@A		; sk_islave_dmg_clawrake1
PUBLIC	??_C@_0BI@DKIB@sk_islave_dmg_clawrake1?$AA@	; `string'
PUBLIC	?sk_islave_dmg_clawrake2@@3Ucvar_s@@A		; sk_islave_dmg_clawrake2
PUBLIC	??_C@_0BI@MFDI@sk_islave_dmg_clawrake2?$AA@	; `string'
PUBLIC	?sk_islave_dmg_clawrake3@@3Ucvar_s@@A		; sk_islave_dmg_clawrake3
PUBLIC	??_C@_0BI@GPKP@sk_islave_dmg_clawrake3?$AA@	; `string'
PUBLIC	?sk_islave_dmg_zap1@@3Ucvar_s@@A		; sk_islave_dmg_zap1
PUBLIC	??_C@_0BD@FNNB@sk_islave_dmg_zap1?$AA@		; `string'
PUBLIC	?sk_islave_dmg_zap2@@3Ucvar_s@@A		; sk_islave_dmg_zap2
PUBLIC	??_C@_0BD@KCGI@sk_islave_dmg_zap2?$AA@		; `string'
PUBLIC	?sk_islave_dmg_zap3@@3Ucvar_s@@A		; sk_islave_dmg_zap3
PUBLIC	??_C@_0BD@IPP@sk_islave_dmg_zap3?$AA@		; `string'
PUBLIC	?sk_ichthyosaur_health1@@3Ucvar_s@@A		; sk_ichthyosaur_health1
PUBLIC	??_C@_0BH@CCKN@sk_ichthyosaur_health1?$AA@	; `string'
PUBLIC	?sk_ichthyosaur_health2@@3Ucvar_s@@A		; sk_ichthyosaur_health2
PUBLIC	??_C@_0BH@NNBE@sk_ichthyosaur_health2?$AA@	; `string'
PUBLIC	?sk_ichthyosaur_health3@@3Ucvar_s@@A		; sk_ichthyosaur_health3
PUBLIC	??_C@_0BH@HHID@sk_ichthyosaur_health3?$AA@	; `string'
PUBLIC	?sk_ichthyosaur_shake1@@3Ucvar_s@@A		; sk_ichthyosaur_shake1
PUBLIC	??_C@_0BG@PCPN@sk_ichthyosaur_shake1?$AA@	; `string'
PUBLIC	?sk_ichthyosaur_shake2@@3Ucvar_s@@A		; sk_ichthyosaur_shake2
PUBLIC	??_C@_0BG@NEE@sk_ichthyosaur_shake2?$AA@	; `string'
PUBLIC	?sk_ichthyosaur_shake3@@3Ucvar_s@@A		; sk_ichthyosaur_shake3
PUBLIC	??_C@_0BG@KHND@sk_ichthyosaur_shake3?$AA@	; `string'
PUBLIC	?sk_leech_health1@@3Ucvar_s@@A			; sk_leech_health1
PUBLIC	??_C@_0BB@FJFI@sk_leech_health1?$AA@		; `string'
PUBLIC	?sk_leech_health2@@3Ucvar_s@@A			; sk_leech_health2
PUBLIC	??_C@_0BB@KGOB@sk_leech_health2?$AA@		; `string'
PUBLIC	?sk_leech_health3@@3Ucvar_s@@A			; sk_leech_health3
PUBLIC	??_C@_0BB@MHG@sk_leech_health3?$AA@		; `string'
PUBLIC	?sk_leech_dmg_bite1@@3Ucvar_s@@A		; sk_leech_dmg_bite1
PUBLIC	??_C@_0BD@OMHH@sk_leech_dmg_bite1?$AA@		; `string'
PUBLIC	?sk_leech_dmg_bite2@@3Ucvar_s@@A		; sk_leech_dmg_bite2
PUBLIC	??_C@_0BD@BDMO@sk_leech_dmg_bite2?$AA@		; `string'
PUBLIC	?sk_leech_dmg_bite3@@3Ucvar_s@@A		; sk_leech_dmg_bite3
PUBLIC	??_C@_0BD@LJFJ@sk_leech_dmg_bite3?$AA@		; `string'
PUBLIC	?sk_controller_health1@@3Ucvar_s@@A		; sk_controller_health1
PUBLIC	??_C@_0BG@OOEF@sk_controller_health1?$AA@	; `string'
PUBLIC	?sk_controller_health2@@3Ucvar_s@@A		; sk_controller_health2
PUBLIC	??_C@_0BG@BBPM@sk_controller_health2?$AA@	; `string'
PUBLIC	?sk_controller_health3@@3Ucvar_s@@A		; sk_controller_health3
PUBLIC	??_C@_0BG@LLGL@sk_controller_health3?$AA@	; `string'
PUBLIC	?sk_controller_dmgzap1@@3Ucvar_s@@A		; sk_controller_dmgzap1
PUBLIC	??_C@_0BG@CDHG@sk_controller_dmgzap1?$AA@	; `string'
PUBLIC	?sk_controller_dmgzap2@@3Ucvar_s@@A		; sk_controller_dmgzap2
PUBLIC	??_C@_0BG@NMMP@sk_controller_dmgzap2?$AA@	; `string'
PUBLIC	?sk_controller_dmgzap3@@3Ucvar_s@@A		; sk_controller_dmgzap3
PUBLIC	??_C@_0BG@HGFI@sk_controller_dmgzap3?$AA@	; `string'
PUBLIC	?sk_controller_speedball1@@3Ucvar_s@@A		; sk_controller_speedball1
PUBLIC	??_C@_0BJ@NPJL@sk_controller_speedball1?$AA@	; `string'
PUBLIC	?sk_controller_speedball2@@3Ucvar_s@@A		; sk_controller_speedball2
PUBLIC	??_C@_0BJ@CACC@sk_controller_speedball2?$AA@	; `string'
PUBLIC	?sk_controller_speedball3@@3Ucvar_s@@A		; sk_controller_speedball3
PUBLIC	??_C@_0BJ@IKLF@sk_controller_speedball3?$AA@	; `string'
PUBLIC	?sk_controller_dmgball1@@3Ucvar_s@@A		; sk_controller_dmgball1
PUBLIC	??_C@_0BH@HGIG@sk_controller_dmgball1?$AA@	; `string'
PUBLIC	?sk_controller_dmgball2@@3Ucvar_s@@A		; sk_controller_dmgball2
PUBLIC	??_C@_0BH@IJDP@sk_controller_dmgball2?$AA@	; `string'
PUBLIC	?sk_controller_dmgball3@@3Ucvar_s@@A		; sk_controller_dmgball3
PUBLIC	??_C@_0BH@CDKI@sk_controller_dmgball3?$AA@	; `string'
PUBLIC	?sk_nihilanth_health1@@3Ucvar_s@@A		; sk_nihilanth_health1
PUBLIC	??_C@_0BF@DBKC@sk_nihilanth_health1?$AA@	; `string'
PUBLIC	?sk_nihilanth_health2@@3Ucvar_s@@A		; sk_nihilanth_health2
PUBLIC	??_C@_0BF@MOBL@sk_nihilanth_health2?$AA@	; `string'
PUBLIC	?sk_nihilanth_health3@@3Ucvar_s@@A		; sk_nihilanth_health3
PUBLIC	??_C@_0BF@GEIM@sk_nihilanth_health3?$AA@	; `string'
PUBLIC	?sk_nihilanth_zap1@@3Ucvar_s@@A			; sk_nihilanth_zap1
PUBLIC	??_C@_0BC@DDOH@sk_nihilanth_zap1?$AA@		; `string'
PUBLIC	?sk_nihilanth_zap2@@3Ucvar_s@@A			; sk_nihilanth_zap2
PUBLIC	??_C@_0BC@MMFO@sk_nihilanth_zap2?$AA@		; `string'
PUBLIC	?sk_nihilanth_zap3@@3Ucvar_s@@A			; sk_nihilanth_zap3
PUBLIC	??_C@_0BC@GGMJ@sk_nihilanth_zap3?$AA@		; `string'
PUBLIC	?sk_scientist_health1@@3Ucvar_s@@A		; sk_scientist_health1
PUBLIC	??_C@_0BF@FJNI@sk_scientist_health1?$AA@	; `string'
PUBLIC	?sk_scientist_health2@@3Ucvar_s@@A		; sk_scientist_health2
PUBLIC	??_C@_0BF@KGGB@sk_scientist_health2?$AA@	; `string'
PUBLIC	?sk_scientist_health3@@3Ucvar_s@@A		; sk_scientist_health3
PUBLIC	??_C@_0BF@MPG@sk_scientist_health3?$AA@		; `string'
PUBLIC	?sk_snark_health1@@3Ucvar_s@@A			; sk_snark_health1
PUBLIC	??_C@_0BB@DEIC@sk_snark_health1?$AA@		; `string'
PUBLIC	?sk_snark_health2@@3Ucvar_s@@A			; sk_snark_health2
PUBLIC	??_C@_0BB@MLDL@sk_snark_health2?$AA@		; `string'
PUBLIC	?sk_snark_health3@@3Ucvar_s@@A			; sk_snark_health3
PUBLIC	??_C@_0BB@GBKM@sk_snark_health3?$AA@		; `string'
PUBLIC	?sk_snark_dmg_bite1@@3Ucvar_s@@A		; sk_snark_dmg_bite1
PUBLIC	??_C@_0BD@LFAM@sk_snark_dmg_bite1?$AA@		; `string'
PUBLIC	?sk_snark_dmg_bite2@@3Ucvar_s@@A		; sk_snark_dmg_bite2
PUBLIC	??_C@_0BD@EKLF@sk_snark_dmg_bite2?$AA@		; `string'
PUBLIC	?sk_snark_dmg_bite3@@3Ucvar_s@@A		; sk_snark_dmg_bite3
PUBLIC	??_C@_0BD@OACC@sk_snark_dmg_bite3?$AA@		; `string'
PUBLIC	?sk_snark_dmg_pop1@@3Ucvar_s@@A			; sk_snark_dmg_pop1
PUBLIC	??_C@_0BC@ECG@sk_snark_dmg_pop1?$AA@		; `string'
PUBLIC	?sk_snark_dmg_pop2@@3Ucvar_s@@A			; sk_snark_dmg_pop2
PUBLIC	??_C@_0BC@PLJP@sk_snark_dmg_pop2?$AA@		; `string'
PUBLIC	?sk_snark_dmg_pop3@@3Ucvar_s@@A			; sk_snark_dmg_pop3
PUBLIC	??_C@_0BC@FBAI@sk_snark_dmg_pop3?$AA@		; `string'
PUBLIC	?sk_zombie_health1@@3Ucvar_s@@A			; sk_zombie_health1
PUBLIC	??_C@_0BC@HHBE@sk_zombie_health1?$AA@		; `string'
PUBLIC	?sk_zombie_health2@@3Ucvar_s@@A			; sk_zombie_health2
PUBLIC	??_C@_0BC@IIKN@sk_zombie_health2?$AA@		; `string'
PUBLIC	?sk_zombie_health3@@3Ucvar_s@@A			; sk_zombie_health3
PUBLIC	??_C@_0BC@CCDK@sk_zombie_health3?$AA@		; `string'
PUBLIC	?sk_zombie_dmg_one_slash1@@3Ucvar_s@@A		; sk_zombie_dmg_one_slash1
PUBLIC	??_C@_0BJ@NMBI@sk_zombie_dmg_one_slash1?$AA@	; `string'
PUBLIC	?sk_zombie_dmg_one_slash2@@3Ucvar_s@@A		; sk_zombie_dmg_one_slash2
PUBLIC	??_C@_0BJ@CDKB@sk_zombie_dmg_one_slash2?$AA@	; `string'
PUBLIC	?sk_zombie_dmg_one_slash3@@3Ucvar_s@@A		; sk_zombie_dmg_one_slash3
PUBLIC	??_C@_0BJ@IJDG@sk_zombie_dmg_one_slash3?$AA@	; `string'
PUBLIC	?sk_zombie_dmg_both_slash1@@3Ucvar_s@@A		; sk_zombie_dmg_both_slash1
PUBLIC	??_C@_0BK@DOMK@sk_zombie_dmg_both_slash1?$AA@	; `string'
PUBLIC	?sk_zombie_dmg_both_slash2@@3Ucvar_s@@A		; sk_zombie_dmg_both_slash2
PUBLIC	??_C@_0BK@MBHD@sk_zombie_dmg_both_slash2?$AA@	; `string'
PUBLIC	?sk_zombie_dmg_both_slash3@@3Ucvar_s@@A		; sk_zombie_dmg_both_slash3
PUBLIC	??_C@_0BK@GLOE@sk_zombie_dmg_both_slash3?$AA@	; `string'
PUBLIC	?sk_turret_health1@@3Ucvar_s@@A			; sk_turret_health1
PUBLIC	??_C@_0BC@DEFG@sk_turret_health1?$AA@		; `string'
PUBLIC	?sk_turret_health2@@3Ucvar_s@@A			; sk_turret_health2
PUBLIC	??_C@_0BC@MLOP@sk_turret_health2?$AA@		; `string'
PUBLIC	?sk_turret_health3@@3Ucvar_s@@A			; sk_turret_health3
PUBLIC	??_C@_0BC@GBHI@sk_turret_health3?$AA@		; `string'
PUBLIC	?sk_miniturret_health1@@3Ucvar_s@@A		; sk_miniturret_health1
PUBLIC	??_C@_0BG@NPCC@sk_miniturret_health1?$AA@	; `string'
PUBLIC	?sk_miniturret_health2@@3Ucvar_s@@A		; sk_miniturret_health2
PUBLIC	??_C@_0BG@CAJL@sk_miniturret_health2?$AA@	; `string'
PUBLIC	?sk_miniturret_health3@@3Ucvar_s@@A		; sk_miniturret_health3
PUBLIC	??_C@_0BG@IKAM@sk_miniturret_health3?$AA@	; `string'
PUBLIC	?sk_sentry_health1@@3Ucvar_s@@A			; sk_sentry_health1
PUBLIC	??_C@_0BC@LAAK@sk_sentry_health1?$AA@		; `string'
PUBLIC	?sk_sentry_health2@@3Ucvar_s@@A			; sk_sentry_health2
PUBLIC	??_C@_0BC@EPLD@sk_sentry_health2?$AA@		; `string'
PUBLIC	?sk_sentry_health3@@3Ucvar_s@@A			; sk_sentry_health3
PUBLIC	??_C@_0BC@OFCE@sk_sentry_health3?$AA@		; `string'
PUBLIC	?sk_plr_crowbar1@@3Ucvar_s@@A			; sk_plr_crowbar1
PUBLIC	??_C@_0BA@KDPF@sk_plr_crowbar1?$AA@		; `string'
PUBLIC	?sk_plr_crowbar2@@3Ucvar_s@@A			; sk_plr_crowbar2
PUBLIC	??_C@_0BA@FMEM@sk_plr_crowbar2?$AA@		; `string'
PUBLIC	?sk_plr_crowbar3@@3Ucvar_s@@A			; sk_plr_crowbar3
PUBLIC	??_C@_0BA@PGNL@sk_plr_crowbar3?$AA@		; `string'
PUBLIC	?sk_plr_crowbar_stab1@@3Ucvar_s@@A		; sk_plr_crowbar_stab1
PUBLIC	??_C@_0BF@MBHM@sk_plr_crowbar_stab1?$AA@	; `string'
PUBLIC	?sk_plr_crowbar_stab2@@3Ucvar_s@@A		; sk_plr_crowbar_stab2
PUBLIC	??_C@_0BF@DOMF@sk_plr_crowbar_stab2?$AA@	; `string'
PUBLIC	?sk_plr_crowbar_stab3@@3Ucvar_s@@A		; sk_plr_crowbar_stab3
PUBLIC	??_C@_0BF@JEFC@sk_plr_crowbar_stab3?$AA@	; `string'
PUBLIC	?sk_plr_axe1@@3Ucvar_s@@A			; sk_plr_axe1
PUBLIC	??_C@_0M@FFDJ@sk_plr_axe1?$AA@			; `string'
PUBLIC	?sk_plr_axe2@@3Ucvar_s@@A			; sk_plr_axe2
PUBLIC	??_C@_0M@KKIA@sk_plr_axe2?$AA@			; `string'
PUBLIC	?sk_plr_axe3@@3Ucvar_s@@A			; sk_plr_axe3
PUBLIC	??_C@_0M@BH@sk_plr_axe3?$AA@			; `string'
PUBLIC	?sk_plr_axe_sec1@@3Ucvar_s@@A			; sk_plr_axe_sec1
PUBLIC	??_C@_0BA@NNMF@sk_plr_axe_sec1?$AA@		; `string'
PUBLIC	?sk_plr_axe_sec2@@3Ucvar_s@@A			; sk_plr_axe_sec2
PUBLIC	??_C@_0BA@CCHM@sk_plr_axe_sec2?$AA@		; `string'
PUBLIC	?sk_plr_axe_sec3@@3Ucvar_s@@A			; sk_plr_axe_sec3
PUBLIC	??_C@_0BA@IIOL@sk_plr_axe_sec3?$AA@		; `string'
PUBLIC	?sk_plr_chainsaw1@@3Ucvar_s@@A			; sk_plr_chainsaw1
PUBLIC	??_C@_0BB@BAEG@sk_plr_chainsaw1?$AA@		; `string'
PUBLIC	?sk_plr_chainsaw2@@3Ucvar_s@@A			; sk_plr_chainsaw2
PUBLIC	??_C@_0BB@OPPP@sk_plr_chainsaw2?$AA@		; `string'
PUBLIC	?sk_plr_chainsaw3@@3Ucvar_s@@A			; sk_plr_chainsaw3
PUBLIC	??_C@_0BB@EFGI@sk_plr_chainsaw3?$AA@		; `string'
PUBLIC	?sk_plr_chainsaw_sec1@@3Ucvar_s@@A		; sk_plr_chainsaw_sec1
PUBLIC	??_C@_0BF@IJNP@sk_plr_chainsaw_sec1?$AA@	; `string'
PUBLIC	?sk_plr_chainsaw_sec2@@3Ucvar_s@@A		; sk_plr_chainsaw_sec2
PUBLIC	??_C@_0BF@HGGG@sk_plr_chainsaw_sec2?$AA@	; `string'
PUBLIC	?sk_plr_chainsaw_sec3@@3Ucvar_s@@A		; sk_plr_chainsaw_sec3
PUBLIC	??_C@_0BF@NMPB@sk_plr_chainsaw_sec3?$AA@	; `string'
PUBLIC	?sk_plr_9mm_bullet1@@3Ucvar_s@@A		; sk_plr_9mm_bullet1
PUBLIC	??_C@_0BD@IFOA@sk_plr_9mm_bullet1?$AA@		; `string'
PUBLIC	?sk_plr_9mm_bullet2@@3Ucvar_s@@A		; sk_plr_9mm_bullet2
PUBLIC	??_C@_0BD@HKFJ@sk_plr_9mm_bullet2?$AA@		; `string'
PUBLIC	?sk_plr_9mm_bullet3@@3Ucvar_s@@A		; sk_plr_9mm_bullet3
PUBLIC	??_C@_0BD@NAMO@sk_plr_9mm_bullet3?$AA@		; `string'
PUBLIC	?sk_plr_357_bullet1@@3Ucvar_s@@A		; sk_plr_357_bullet1
PUBLIC	??_C@_0BD@FGHN@sk_plr_357_bullet1?$AA@		; `string'
PUBLIC	?sk_plr_357_bullet2@@3Ucvar_s@@A		; sk_plr_357_bullet2
PUBLIC	??_C@_0BD@KJME@sk_plr_357_bullet2?$AA@		; `string'
PUBLIC	?sk_plr_357_bullet3@@3Ucvar_s@@A		; sk_plr_357_bullet3
PUBLIC	??_C@_0BD@DFD@sk_plr_357_bullet3?$AA@		; `string'
PUBLIC	?sk_plr_9mmAR_bullet1@@3Ucvar_s@@A		; sk_plr_9mmAR_bullet1
PUBLIC	??_C@_0BF@GNPC@sk_plr_9mmAR_bullet1?$AA@	; `string'
PUBLIC	?sk_plr_9mmAR_bullet2@@3Ucvar_s@@A		; sk_plr_9mmAR_bullet2
PUBLIC	??_C@_0BF@JCEL@sk_plr_9mmAR_bullet2?$AA@	; `string'
PUBLIC	?sk_plr_9mmAR_bullet3@@3Ucvar_s@@A		; sk_plr_9mmAR_bullet3
PUBLIC	??_C@_0BF@DINM@sk_plr_9mmAR_bullet3?$AA@	; `string'
PUBLIC	?sk_plr_9mmAR_grenade1@@3Ucvar_s@@A		; sk_plr_9mmAR_grenade1
PUBLIC	??_C@_0BG@GCHJ@sk_plr_9mmAR_grenade1?$AA@	; `string'
PUBLIC	?sk_plr_9mmAR_grenade2@@3Ucvar_s@@A		; sk_plr_9mmAR_grenade2
PUBLIC	??_C@_0BG@JNMA@sk_plr_9mmAR_grenade2?$AA@	; `string'
PUBLIC	?sk_plr_9mmAR_grenade3@@3Ucvar_s@@A		; sk_plr_9mmAR_grenade3
PUBLIC	??_C@_0BG@DHFH@sk_plr_9mmAR_grenade3?$AA@	; `string'
PUBLIC	?sk_plr_buckshot1@@3Ucvar_s@@A			; sk_plr_buckshot1
PUBLIC	??_C@_0BB@HLNJ@sk_plr_buckshot1?$AA@		; `string'
PUBLIC	?sk_plr_buckshot2@@3Ucvar_s@@A			; sk_plr_buckshot2
PUBLIC	??_C@_0BB@IEGA@sk_plr_buckshot2?$AA@		; `string'
PUBLIC	?sk_plr_buckshot3@@3Ucvar_s@@A			; sk_plr_buckshot3
PUBLIC	??_C@_0BB@COPH@sk_plr_buckshot3?$AA@		; `string'
PUBLIC	?sk_plr_xbow_bolt_client1@@3Ucvar_s@@A		; sk_plr_xbow_bolt_client1
PUBLIC	??_C@_0BJ@CKHD@sk_plr_xbow_bolt_client1?$AA@	; `string'
PUBLIC	?sk_plr_xbow_bolt_client2@@3Ucvar_s@@A		; sk_plr_xbow_bolt_client2
PUBLIC	??_C@_0BJ@NFMK@sk_plr_xbow_bolt_client2?$AA@	; `string'
PUBLIC	?sk_plr_xbow_bolt_client3@@3Ucvar_s@@A		; sk_plr_xbow_bolt_client3
PUBLIC	??_C@_0BJ@HPFN@sk_plr_xbow_bolt_client3?$AA@	; `string'
PUBLIC	?sk_plr_xbow_bolt_monster1@@3Ucvar_s@@A		; sk_plr_xbow_bolt_monster1
PUBLIC	??_C@_0BK@NMNJ@sk_plr_xbow_bolt_monster1?$AA@	; `string'
PUBLIC	?sk_plr_xbow_bolt_monster2@@3Ucvar_s@@A		; sk_plr_xbow_bolt_monster2
PUBLIC	??_C@_0BK@CDGA@sk_plr_xbow_bolt_monster2?$AA@	; `string'
PUBLIC	?sk_plr_xbow_bolt_monster3@@3Ucvar_s@@A		; sk_plr_xbow_bolt_monster3
PUBLIC	??_C@_0BK@IJPH@sk_plr_xbow_bolt_monster3?$AA@	; `string'
PUBLIC	?sk_plr_rpg1@@3Ucvar_s@@A			; sk_plr_rpg1
PUBLIC	??_C@_0M@NCAO@sk_plr_rpg1?$AA@			; `string'
PUBLIC	?sk_plr_rpg2@@3Ucvar_s@@A			; sk_plr_rpg2
PUBLIC	??_C@_0M@CNLH@sk_plr_rpg2?$AA@			; `string'
PUBLIC	?sk_plr_rpg3@@3Ucvar_s@@A			; sk_plr_rpg3
PUBLIC	??_C@_0M@IHCA@sk_plr_rpg3?$AA@			; `string'
PUBLIC	?sk_plr_gauss1@@3Ucvar_s@@A			; sk_plr_gauss1
PUBLIC	??_C@_0O@HDAN@sk_plr_gauss1?$AA@		; `string'
PUBLIC	?sk_plr_gauss2@@3Ucvar_s@@A			; sk_plr_gauss2
PUBLIC	??_C@_0O@IMLE@sk_plr_gauss2?$AA@		; `string'
PUBLIC	?sk_plr_gauss3@@3Ucvar_s@@A			; sk_plr_gauss3
PUBLIC	??_C@_0O@CGCD@sk_plr_gauss3?$AA@		; `string'
PUBLIC	?sk_plr_egon_narrow1@@3Ucvar_s@@A		; sk_plr_egon_narrow1
PUBLIC	??_C@_0BE@FFGP@sk_plr_egon_narrow1?$AA@		; `string'
PUBLIC	?sk_plr_egon_narrow2@@3Ucvar_s@@A		; sk_plr_egon_narrow2
PUBLIC	??_C@_0BE@KKNG@sk_plr_egon_narrow2?$AA@		; `string'
PUBLIC	?sk_plr_egon_narrow3@@3Ucvar_s@@A		; sk_plr_egon_narrow3
PUBLIC	??_C@_0BE@EB@sk_plr_egon_narrow3?$AA@		; `string'
PUBLIC	?sk_plr_egon_wide1@@3Ucvar_s@@A			; sk_plr_egon_wide1
PUBLIC	??_C@_0BC@PMAM@sk_plr_egon_wide1?$AA@		; `string'
PUBLIC	?sk_plr_egon_wide2@@3Ucvar_s@@A			; sk_plr_egon_wide2
PUBLIC	??_C@_0BC@DLF@sk_plr_egon_wide2?$AA@		; `string'
PUBLIC	?sk_plr_egon_wide3@@3Ucvar_s@@A			; sk_plr_egon_wide3
PUBLIC	??_C@_0BC@KJCC@sk_plr_egon_wide3?$AA@		; `string'
PUBLIC	?sk_plr_hand_grenade1@@3Ucvar_s@@A		; sk_plr_hand_grenade1
PUBLIC	??_C@_0BF@IGDM@sk_plr_hand_grenade1?$AA@	; `string'
PUBLIC	?sk_plr_hand_grenade2@@3Ucvar_s@@A		; sk_plr_hand_grenade2
PUBLIC	??_C@_0BF@HJIF@sk_plr_hand_grenade2?$AA@	; `string'
PUBLIC	?sk_plr_hand_grenade3@@3Ucvar_s@@A		; sk_plr_hand_grenade3
PUBLIC	??_C@_0BF@NDBC@sk_plr_hand_grenade3?$AA@	; `string'
PUBLIC	?sk_plr_satchel1@@3Ucvar_s@@A			; sk_plr_satchel1
PUBLIC	??_C@_0BA@PALH@sk_plr_satchel1?$AA@		; `string'
PUBLIC	?sk_plr_satchel2@@3Ucvar_s@@A			; sk_plr_satchel2
PUBLIC	??_C@_0BA@PAO@sk_plr_satchel2?$AA@		; `string'
PUBLIC	?sk_plr_satchel3@@3Ucvar_s@@A			; sk_plr_satchel3
PUBLIC	??_C@_0BA@KFJJ@sk_plr_satchel3?$AA@		; `string'
PUBLIC	?sk_plr_tripmine1@@3Ucvar_s@@A			; sk_plr_tripmine1
PUBLIC	??_C@_0BB@ICKA@sk_plr_tripmine1?$AA@		; `string'
PUBLIC	?sk_plr_tripmine2@@3Ucvar_s@@A			; sk_plr_tripmine2
PUBLIC	??_C@_0BB@HNBJ@sk_plr_tripmine2?$AA@		; `string'
PUBLIC	?sk_plr_tripmine3@@3Ucvar_s@@A			; sk_plr_tripmine3
PUBLIC	??_C@_0BB@NHIO@sk_plr_tripmine3?$AA@		; `string'
PUBLIC	?sk_12mm_bullet1@@3Ucvar_s@@A			; sk_12mm_bullet1
PUBLIC	??_C@_0BA@KKKF@sk_12mm_bullet1?$AA@		; `string'
PUBLIC	?sk_12mm_bullet2@@3Ucvar_s@@A			; sk_12mm_bullet2
PUBLIC	??_C@_0BA@FFBM@sk_12mm_bullet2?$AA@		; `string'
PUBLIC	?sk_12mm_bullet3@@3Ucvar_s@@A			; sk_12mm_bullet3
PUBLIC	??_C@_0BA@PPIL@sk_12mm_bullet3?$AA@		; `string'
PUBLIC	?sk_9mmAR_bullet1@@3Ucvar_s@@A			; sk_9mmAR_bullet1
PUBLIC	??_C@_0BB@IDKC@sk_9mmAR_bullet1?$AA@		; `string'
PUBLIC	?sk_9mmAR_bullet2@@3Ucvar_s@@A			; sk_9mmAR_bullet2
PUBLIC	??_C@_0BB@HMBL@sk_9mmAR_bullet2?$AA@		; `string'
PUBLIC	?sk_9mmAR_bullet3@@3Ucvar_s@@A			; sk_9mmAR_bullet3
PUBLIC	??_C@_0BB@NGIM@sk_9mmAR_bullet3?$AA@		; `string'
PUBLIC	?sk_9mm_bullet1@@3Ucvar_s@@A			; sk_9mm_bullet1
PUBLIC	??_C@_0P@ONCA@sk_9mm_bullet1?$AA@		; `string'
PUBLIC	?sk_9mm_bullet2@@3Ucvar_s@@A			; sk_9mm_bullet2
PUBLIC	??_C@_0P@BCJJ@sk_9mm_bullet2?$AA@		; `string'
PUBLIC	?sk_9mm_bullet3@@3Ucvar_s@@A			; sk_9mm_bullet3
PUBLIC	??_C@_0P@LIAO@sk_9mm_bullet3?$AA@		; `string'
PUBLIC	?sk_hornet_dmg1@@3Ucvar_s@@A			; sk_hornet_dmg1
PUBLIC	??_C@_0P@PEKC@sk_hornet_dmg1?$AA@		; `string'
PUBLIC	?sk_hornet_dmg2@@3Ucvar_s@@A			; sk_hornet_dmg2
PUBLIC	??_C@_0P@LBL@sk_hornet_dmg2?$AA@		; `string'
PUBLIC	?sk_hornet_dmg3@@3Ucvar_s@@A			; sk_hornet_dmg3
PUBLIC	??_C@_0P@KBIM@sk_hornet_dmg3?$AA@		; `string'
PUBLIC	?sk_suitcharger1@@3Ucvar_s@@A			; sk_suitcharger1
PUBLIC	??_C@_0BA@MEMG@sk_suitcharger1?$AA@		; `string'
PUBLIC	?sk_suitcharger2@@3Ucvar_s@@A			; sk_suitcharger2
PUBLIC	??_C@_0BA@DLHP@sk_suitcharger2?$AA@		; `string'
PUBLIC	?sk_suitcharger3@@3Ucvar_s@@A			; sk_suitcharger3
PUBLIC	??_C@_0BA@JBOI@sk_suitcharger3?$AA@		; `string'
PUBLIC	?sk_battery1@@3Ucvar_s@@A			; sk_battery1
PUBLIC	??_C@_0M@BLEL@sk_battery1?$AA@			; `string'
PUBLIC	?sk_battery2@@3Ucvar_s@@A			; sk_battery2
PUBLIC	??_C@_0M@OEPC@sk_battery2?$AA@			; `string'
PUBLIC	?sk_battery3@@3Ucvar_s@@A			; sk_battery3
PUBLIC	??_C@_0M@EOGF@sk_battery3?$AA@			; `string'
PUBLIC	?sk_healthcharger1@@3Ucvar_s@@A			; sk_healthcharger1
PUBLIC	??_C@_0BC@JFJN@sk_healthcharger1?$AA@		; `string'
PUBLIC	?sk_healthcharger2@@3Ucvar_s@@A			; sk_healthcharger2
PUBLIC	??_C@_0BC@GKCE@sk_healthcharger2?$AA@		; `string'
PUBLIC	?sk_healthcharger3@@3Ucvar_s@@A			; sk_healthcharger3
PUBLIC	??_C@_0BC@MALD@sk_healthcharger3?$AA@		; `string'
PUBLIC	?sk_healthkit1@@3Ucvar_s@@A			; sk_healthkit1
PUBLIC	??_C@_0O@KCOP@sk_healthkit1?$AA@		; `string'
PUBLIC	?sk_healthkit2@@3Ucvar_s@@A			; sk_healthkit2
PUBLIC	??_C@_0O@FNFG@sk_healthkit2?$AA@		; `string'
PUBLIC	?sk_healthkit3@@3Ucvar_s@@A			; sk_healthkit3
PUBLIC	??_C@_0O@PHMB@sk_healthkit3?$AA@		; `string'
PUBLIC	?sk_scientist_heal1@@3Ucvar_s@@A		; sk_scientist_heal1
PUBLIC	??_C@_0BD@MCLL@sk_scientist_heal1?$AA@		; `string'
PUBLIC	?sk_scientist_heal2@@3Ucvar_s@@A		; sk_scientist_heal2
PUBLIC	??_C@_0BD@DNAC@sk_scientist_heal2?$AA@		; `string'
PUBLIC	?sk_scientist_heal3@@3Ucvar_s@@A		; sk_scientist_heal3
PUBLIC	??_C@_0BD@JHJF@sk_scientist_heal3?$AA@		; `string'
PUBLIC	?sk_monster_head1@@3Ucvar_s@@A			; sk_monster_head1
PUBLIC	??_C@_0BB@JAAB@sk_monster_head1?$AA@		; `string'
_BSS	SEGMENT
?g_psv_gravity@@3PAUcvar_s@@A DD 01H DUP (?)		; g_psv_gravity
?g_psv_aim@@3PAUcvar_s@@A DD 01H DUP (?)		; g_psv_aim
?g_psv_stepsize@@3PAUcvar_s@@A DD 01H DUP (?)		; g_psv_stepsize
?g_footsteps@@3PAUcvar_s@@A DD 01H DUP (?)		; g_footsteps
?g_debugdraw@@3PAUcvar_s@@A DD 01H DUP (?)		; g_debugdraw
?p_speeds@@3PAUcvar_s@@A DD 01H DUP (?)			; p_speeds
?g_physdebug@@3PAUcvar_s@@A DD 01H DUP (?)		; g_physdebug
?g_allow_physx@@3PAUcvar_s@@A DD 01H DUP (?)		; g_allow_physx
_BSS	ENDS
_DATA	SEGMENT
?displaysoundlist@@3Ucvar_s@@A DD FLAT:??_C@_0BB@GGHG@displaysoundlist?$AA@ ; displaysoundlist
	DD	FLAT:??_C@_01PLJA@0?$AA@
	ORG $+12
	ORG $+4
?fragsleft@@3Ucvar_s@@A DD FLAT:??_C@_0N@FNEM@mp_fragsleft?$AA@ ; fragsleft
	DD	FLAT:??_C@_01PLJA@0?$AA@
	DD	0104H
	ORG $+8
	ORG $+4
?timeleft@@3Ucvar_s@@A DD FLAT:??_C@_0M@IHID@mp_timeleft?$AA@ ; timeleft
	DD	FLAT:??_C@_01PLJA@0?$AA@
	DD	0104H
	ORG $+8
	ORG $+4
?teamplay@@3Ucvar_s@@A DD FLAT:??_C@_0M@KOKP@mp_teamplay?$AA@ ; teamplay
	DD	FLAT:??_C@_01PLJA@0?$AA@
	DD	04H
	ORG $+8
	ORG $+4
?fraglimit@@3Ucvar_s@@A DD FLAT:??_C@_0N@MKGH@mp_fraglimit?$AA@ ; fraglimit
	DD	FLAT:??_C@_01PLJA@0?$AA@
	DD	04H
	ORG $+8
	ORG $+4
?timelimit@@3Ucvar_s@@A DD FLAT:??_C@_0N@JECA@mp_timelimit?$AA@ ; timelimit
	DD	FLAT:??_C@_01PLJA@0?$AA@
	DD	04H
	ORG $+8
	ORG $+4
?friendlyfire@@3Ucvar_s@@A DD FLAT:??_C@_0BA@NHMN@mp_friendlyfire?$AA@ ; friendlyfire
	DD	FLAT:??_C@_01PLJA@0?$AA@
	DD	04H
	ORG $+8
	ORG $+4
?falldamage@@3Ucvar_s@@A DD FLAT:??_C@_0O@OCEA@mp_falldamage?$AA@ ; falldamage
	DD	FLAT:??_C@_01PLJA@0?$AA@
	DD	04H
	ORG $+8
	ORG $+4
?weaponstay@@3Ucvar_s@@A DD FLAT:??_C@_0O@FPOG@mp_weaponstay?$AA@ ; weaponstay
	DD	FLAT:??_C@_01PLJA@0?$AA@
	DD	04H
	ORG $+8
	ORG $+4
?forcerespawn@@3Ucvar_s@@A DD FLAT:??_C@_0BA@OHKH@mp_forcerespawn?$AA@ ; forcerespawn
	DD	FLAT:??_C@_01FBAH@1?$AA@
	DD	04H
	ORG $+8
	ORG $+4
?flashlight@@3Ucvar_s@@A DD FLAT:??_C@_0O@DCFE@mp_flashlight?$AA@ ; flashlight
	DD	FLAT:??_C@_01PLJA@0?$AA@
	DD	04H
	ORG $+8
	ORG $+4
?aimcrosshair@@3Ucvar_s@@A DD FLAT:??_C@_0BB@IDFJ@mp_autocrosshair?$AA@ ; aimcrosshair
	DD	FLAT:??_C@_01FBAH@1?$AA@
	DD	04H
	ORG $+8
	ORG $+4
?decalfrequency@@3Ucvar_s@@A DD FLAT:??_C@_0P@FJGF@decalfrequency?$AA@ ; decalfrequency
	DD	FLAT:??_C@_01FBAH@1?$AA@
	DD	04H
	ORG $+8
	ORG $+4
?teamlist@@3Ucvar_s@@A DD FLAT:??_C@_0M@ENJF@mp_teamlist?$AA@ ; teamlist
	DD	FLAT:??_C@_0BB@HGPB@hgrunt?$DLscientist?$AA@
	DD	04H
	ORG $+8
	ORG $+4
?teamoverride@@3Ucvar_s@@A DD FLAT:??_C@_0BA@HLDE@mp_teamoverride?$AA@ ; teamoverride
	DD	FLAT:??_C@_01FBAH@1?$AA@
	ORG $+12
	ORG $+4
?defaultteam@@3Ucvar_s@@A DD FLAT:??_C@_0P@OMJO@mp_defaultteam?$AA@ ; defaultteam
	DD	FLAT:??_C@_01PLJA@0?$AA@
	ORG $+12
	ORG $+4
?allowmonsters@@3Ucvar_s@@A DD FLAT:??_C@_0BB@GNCO@mp_allowmonsters?$AA@ ; allowmonsters
	DD	FLAT:??_C@_01PLJA@0?$AA@
	DD	04H
	ORG $+8
	ORG $+4
?mp_chattime@@3Ucvar_s@@A DD FLAT:??_C@_0M@KANF@mp_chattime?$AA@ ; mp_chattime
	DD	FLAT:??_C@_02FCMB@10?$AA@
	DD	04H
	ORG $+8
	ORG $+4
?debugdraw@@3Ucvar_s@@A DD FLAT:??_C@_0L@HJFJ@phys_debug?$AA@ ; debugdraw
	DD	FLAT:??_C@_01PLJA@0?$AA@
	DD	01H
	ORG $+8
	ORG $+4
?physdebug@@3Ucvar_s@@A DD FLAT:??_C@_0M@OOPC@phys_qdebug?$AA@ ; physdebug
	DD	FLAT:??_C@_01PLJA@0?$AA@
	DD	00H
	ORG $+8
	ORG $+4
?physstats@@3Ucvar_s@@A DD FLAT:??_C@_08FNPH@p_speeds?$AA@ ; physstats
	DD	FLAT:??_C@_01PLJA@0?$AA@
	DD	01H
	ORG $+8
	ORG $+4
?g_sync_physic@@3Ucvar_s@@A DD FLAT:??_C@_0P@FPKK@sv_sync_physic?$AA@ ; g_sync_physic
	DD	FLAT:??_C@_01PLJA@0?$AA@
	DD	01H
	ORG $+8
	ORG $+4
?sk_agrunt_health1@@3Ucvar_s@@A DD FLAT:??_C@_0BC@NPKK@sk_agrunt_health1?$AA@ ; sk_agrunt_health1
	DD	FLAT:??_C@_01PLJA@0?$AA@
	ORG $+12
	ORG $+4
?sk_agrunt_health2@@3Ucvar_s@@A DD FLAT:??_C@_0BC@CABD@sk_agrunt_health2?$AA@ ; sk_agrunt_health2
	DD	FLAT:??_C@_01PLJA@0?$AA@
	ORG $+12
	ORG $+4
?sk_agrunt_health3@@3Ucvar_s@@A DD FLAT:??_C@_0BC@IKIE@sk_agrunt_health3?$AA@ ; sk_agrunt_health3
	DD	FLAT:??_C@_01PLJA@0?$AA@
	ORG $+12
	ORG $+4
?sk_agrunt_dmg_punch1@@3Ucvar_s@@A DD FLAT:??_C@_0BF@NCLM@sk_agrunt_dmg_punch1?$AA@ ; sk_agrunt_dmg_punch1
	DD	FLAT:??_C@_01PLJA@0?$AA@
	ORG $+12
	ORG $+4
?sk_agrunt_dmg_punch2@@3Ucvar_s@@A DD FLAT:??_C@_0BF@CNAF@sk_agrunt_dmg_punch2?$AA@ ; sk_agrunt_dmg_punch2
	DD	FLAT:??_C@_01PLJA@0?$AA@
	ORG $+12
	ORG $+4
?sk_agrunt_dmg_punch3@@3Ucvar_s@@A DD FLAT:??_C@_0BF@IHJC@sk_agrunt_dmg_punch3?$AA@ ; sk_agrunt_dmg_punch3
	DD	FLAT:??_C@_01PLJA@0?$AA@
	ORG $+12
	ORG $+4
?sk_apache_health1@@3Ucvar_s@@A DD FLAT:??_C@_0BC@GHJ@sk_apache_health1?$AA@ ; sk_apache_health1
	DD	FLAT:??_C@_01PLJA@0?$AA@
	ORG $+12
	ORG $+4
?sk_apache_health2@@3Ucvar_s@@A DD FLAT:??_C@_0BC@PJMA@sk_apache_health2?$AA@ ; sk_apache_health2
	DD	FLAT:??_C@_01PLJA@0?$AA@
	ORG $+12
	ORG $+4
?sk_apache_health3@@3Ucvar_s@@A DD FLAT:??_C@_0BC@FDFH@sk_apache_health3?$AA@ ; sk_apache_health3
	DD	FLAT:??_C@_01PLJA@0?$AA@
	ORG $+12
	ORG $+4
?sk_barney_health1@@3Ucvar_s@@A DD FLAT:??_C@_0BC@CMFK@sk_barney_health1?$AA@ ; sk_barney_health1
	DD	FLAT:??_C@_01PLJA@0?$AA@
	ORG $+12
	ORG $+4
?sk_barney_health2@@3Ucvar_s@@A DD FLAT:??_C@_0BC@NDOD@sk_barney_health2?$AA@ ; sk_barney_health2
	DD	FLAT:??_C@_01PLJA@0?$AA@
	ORG $+12
	ORG $+4
?sk_barney_health3@@3Ucvar_s@@A DD FLAT:??_C@_0BC@HJHE@sk_barney_health3?$AA@ ; sk_barney_health3
	DD	FLAT:??_C@_01PLJA@0?$AA@
	ORG $+12
	ORG $+4
?sk_bullsquid_health1@@3Ucvar_s@@A DD FLAT:??_C@_0BF@OBBN@sk_bullsquid_health1?$AA@ ; sk_bullsquid_health1
	DD	FLAT:??_C@_01PLJA@0?$AA@
	ORG $+12
	ORG $+4
?sk_bullsquid_health2@@3Ucvar_s@@A DD FLAT:??_C@_0BF@BOKE@sk_bullsquid_health2?$AA@ ; sk_bullsquid_health2
	DD	FLAT:??_C@_01PLJA@0?$AA@
	ORG $+12
	ORG $+4
?sk_bullsquid_health3@@3Ucvar_s@@A DD FLAT:??_C@_0BF@LEDD@sk_bullsquid_health3?$AA@ ; sk_bullsquid_health3
	DD	FLAT:??_C@_01PLJA@0?$AA@
	ORG $+12
	ORG $+4
?sk_bullsquid_dmg_bite1@@3Ucvar_s@@A DD FLAT:??_C@_0BH@FMJ@sk_bullsquid_dmg_bite1?$AA@ ; sk_bullsquid_dmg_bite1
	DD	FLAT:??_C@_01PLJA@0?$AA@
	ORG $+12
	ORG $+4
?sk_bullsquid_dmg_bite2@@3Ucvar_s@@A DD FLAT:??_C@_0BH@PKHA@sk_bullsquid_dmg_bite2?$AA@ ; sk_bullsquid_dmg_bite2
	DD	FLAT:??_C@_01PLJA@0?$AA@
	ORG $+12
	ORG $+4
?sk_bullsquid_dmg_bite3@@3Ucvar_s@@A DD FLAT:??_C@_0BH@FAOH@sk_bullsquid_dmg_bite3?$AA@ ; sk_bullsquid_dmg_bite3
	DD	FLAT:??_C@_01PLJA@0?$AA@
	ORG $+12
	ORG $+4
?sk_bullsquid_dmg_whip1@@3Ucvar_s@@A DD FLAT:??_C@_0BH@IPEE@sk_bullsquid_dmg_whip1?$AA@ ; sk_bullsquid_dmg_whip1
	DD	FLAT:??_C@_01PLJA@0?$AA@
	ORG $+12
	ORG $+4
?sk_bullsquid_dmg_whip2@@3Ucvar_s@@A DD FLAT:??_C@_0BH@HAPN@sk_bullsquid_dmg_whip2?$AA@ ; sk_bullsquid_dmg_whip2
	DD	FLAT:??_C@_01PLJA@0?$AA@
	ORG $+12
	ORG $+4
?sk_bullsquid_dmg_whip3@@3Ucvar_s@@A DD FLAT:??_C@_0BH@NKGK@sk_bullsquid_dmg_whip3?$AA@ ; sk_bullsquid_dmg_whip3
	DD	FLAT:??_C@_01PLJA@0?$AA@
	ORG $+12
	ORG $+4
?sk_bullsquid_dmg_spit1@@3Ucvar_s@@A DD FLAT:??_C@_0BH@CKMK@sk_bullsquid_dmg_spit1?$AA@ ; sk_bullsquid_dmg_spit1
	DD	FLAT:??_C@_01PLJA@0?$AA@
	ORG $+12
	ORG $+4
?sk_bullsquid_dmg_spit2@@3Ucvar_s@@A DD FLAT:??_C@_0BH@NFHD@sk_bullsquid_dmg_spit2?$AA@ ; sk_bullsquid_dmg_spit2
	DD	FLAT:??_C@_01PLJA@0?$AA@
	ORG $+12
	ORG $+4
?sk_bullsquid_dmg_spit3@@3Ucvar_s@@A DD FLAT:??_C@_0BH@HPOE@sk_bullsquid_dmg_spit3?$AA@ ; sk_bullsquid_dmg_spit3
	DD	FLAT:??_C@_01PLJA@0?$AA@
	ORG $+12
	ORG $+4
?sk_bigmomma_health_factor1@@3Ucvar_s@@A DD FLAT:??_C@_0BL@EDLI@sk_bigmomma_health_factor1?$AA@ ; sk_bigmomma_health_factor1
	DD	FLAT:??_C@_03NNMA@1?40?$AA@
	ORG $+12
	ORG $+4
?sk_bigmomma_health_factor2@@3Ucvar_s@@A DD FLAT:??_C@_0BL@LMAB@sk_bigmomma_health_factor2?$AA@ ; sk_bigmomma_health_factor2
	DD	FLAT:??_C@_03NNMA@1?40?$AA@
	ORG $+12
	ORG $+4
?sk_bigmomma_health_factor3@@3Ucvar_s@@A DD FLAT:??_C@_0BL@BGJG@sk_bigmomma_health_factor3?$AA@ ; sk_bigmomma_health_factor3
	DD	FLAT:??_C@_03NNMA@1?40?$AA@
	ORG $+12
	ORG $+4
?sk_bigmomma_dmg_slash1@@3Ucvar_s@@A DD FLAT:??_C@_0BH@KKIK@sk_bigmomma_dmg_slash1?$AA@ ; sk_bigmomma_dmg_slash1
	DD	FLAT:??_C@_02IGL@50?$AA@
	ORG $+12
	ORG $+4
?sk_bigmomma_dmg_slash2@@3Ucvar_s@@A DD FLAT:??_C@_0BH@FFDD@sk_bigmomma_dmg_slash2?$AA@ ; sk_bigmomma_dmg_slash2
	DD	FLAT:??_C@_02IGL@50?$AA@
	ORG $+12
	ORG $+4
?sk_bigmomma_dmg_slash3@@3Ucvar_s@@A DD FLAT:??_C@_0BH@PPKE@sk_bigmomma_dmg_slash3?$AA@ ; sk_bigmomma_dmg_slash3
	DD	FLAT:??_C@_02IGL@50?$AA@
	ORG $+12
	ORG $+4
?sk_bigmomma_dmg_blast1@@3Ucvar_s@@A DD FLAT:??_C@_0BH@OAHP@sk_bigmomma_dmg_blast1?$AA@ ; sk_bigmomma_dmg_blast1
	DD	FLAT:??_C@_03HFMC@100?$AA@
	ORG $+12
	ORG $+4
?sk_bigmomma_dmg_blast2@@3Ucvar_s@@A DD FLAT:??_C@_0BH@BPMG@sk_bigmomma_dmg_blast2?$AA@ ; sk_bigmomma_dmg_blast2
	DD	FLAT:??_C@_03HFMC@100?$AA@
	ORG $+12
	ORG $+4
?sk_bigmomma_dmg_blast3@@3Ucvar_s@@A DD FLAT:??_C@_0BH@LFFB@sk_bigmomma_dmg_blast3?$AA@ ; sk_bigmomma_dmg_blast3
	DD	FLAT:??_C@_03HFMC@100?$AA@
	ORG $+12
	ORG $+4
?sk_bigmomma_radius_blast1@@3Ucvar_s@@A DD FLAT:??_C@_0BK@CDFD@sk_bigmomma_radius_blast1?$AA@ ; sk_bigmomma_radius_blast1
	DD	FLAT:??_C@_03MPPJ@250?$AA@
	ORG $+12
	ORG $+4
?sk_bigmomma_radius_blast2@@3Ucvar_s@@A DD FLAT:??_C@_0BK@NMOK@sk_bigmomma_radius_blast2?$AA@ ; sk_bigmomma_radius_blast2
	DD	FLAT:??_C@_03MPPJ@250?$AA@
	ORG $+12
	ORG $+4
?sk_bigmomma_radius_blast3@@3Ucvar_s@@A DD FLAT:??_C@_0BK@HGHN@sk_bigmomma_radius_blast3?$AA@ ; sk_bigmomma_radius_blast3
	DD	FLAT:??_C@_03MPPJ@250?$AA@
	ORG $+12
	ORG $+4
?sk_gargantua_health1@@3Ucvar_s@@A DD FLAT:??_C@_0BF@JEJB@sk_gargantua_health1?$AA@ ; sk_gargantua_health1
	DD	FLAT:??_C@_01PLJA@0?$AA@
	ORG $+12
	ORG $+4
?sk_gargantua_health2@@3Ucvar_s@@A DD FLAT:??_C@_0BF@GLCI@sk_gargantua_health2?$AA@ ; sk_gargantua_health2
	DD	FLAT:??_C@_01PLJA@0?$AA@
	ORG $+12
	ORG $+4
?sk_gargantua_health3@@3Ucvar_s@@A DD FLAT:??_C@_0BF@MBLP@sk_gargantua_health3?$AA@ ; sk_gargantua_health3
	DD	FLAT:??_C@_01PLJA@0?$AA@
	ORG $+12
	ORG $+4
?sk_gargantua_dmg_slash1@@3Ucvar_s@@A DD FLAT:??_C@_0BI@OMKD@sk_gargantua_dmg_slash1?$AA@ ; sk_gargantua_dmg_slash1
	DD	FLAT:??_C@_01PLJA@0?$AA@
	ORG $+12
	ORG $+4
?sk_gargantua_dmg_slash2@@3Ucvar_s@@A DD FLAT:??_C@_0BI@BDBK@sk_gargantua_dmg_slash2?$AA@ ; sk_gargantua_dmg_slash2
	DD	FLAT:??_C@_01PLJA@0?$AA@
	ORG $+12
	ORG $+4
?sk_gargantua_dmg_slash3@@3Ucvar_s@@A DD FLAT:??_C@_0BI@LJIN@sk_gargantua_dmg_slash3?$AA@ ; sk_gargantua_dmg_slash3
	DD	FLAT:??_C@_01PLJA@0?$AA@
	ORG $+12
	ORG $+4
?sk_gargantua_dmg_fire1@@3Ucvar_s@@A DD FLAT:??_C@_0BH@OJK@sk_gargantua_dmg_fire1?$AA@ ; sk_gargantua_dmg_fire1
	DD	FLAT:??_C@_01PLJA@0?$AA@
	ORG $+12
	ORG $+4
?sk_gargantua_dmg_fire2@@3Ucvar_s@@A DD FLAT:??_C@_0BH@PBCD@sk_gargantua_dmg_fire2?$AA@ ; sk_gargantua_dmg_fire2
	DD	FLAT:??_C@_01PLJA@0?$AA@
	ORG $+12
	ORG $+4
?sk_gargantua_dmg_fire3@@3Ucvar_s@@A DD FLAT:??_C@_0BH@FLLE@sk_gargantua_dmg_fire3?$AA@ ; sk_gargantua_dmg_fire3
	DD	FLAT:??_C@_01PLJA@0?$AA@
	ORG $+12
	ORG $+4
?sk_gargantua_dmg_stomp1@@3Ucvar_s@@A DD FLAT:??_C@_0BI@JIPF@sk_gargantua_dmg_stomp1?$AA@ ; sk_gargantua_dmg_stomp1
	DD	FLAT:??_C@_01PLJA@0?$AA@
	ORG $+12
	ORG $+4
?sk_gargantua_dmg_stomp2@@3Ucvar_s@@A DD FLAT:??_C@_0BI@GHEM@sk_gargantua_dmg_stomp2?$AA@ ; sk_gargantua_dmg_stomp2
	DD	FLAT:??_C@_01PLJA@0?$AA@
	ORG $+12
	ORG $+4
?sk_gargantua_dmg_stomp3@@3Ucvar_s@@A DD FLAT:??_C@_0BI@MNNL@sk_gargantua_dmg_stomp3?$AA@ ; sk_gargantua_dmg_stomp3
	DD	FLAT:??_C@_01PLJA@0?$AA@
	ORG $+12
	ORG $+4
?sk_hassassin_health1@@3Ucvar_s@@A DD FLAT:??_C@_0BF@KBBM@sk_hassassin_health1?$AA@ ; sk_hassassin_health1
	DD	FLAT:??_C@_01PLJA@0?$AA@
	ORG $+12
	ORG $+4
?sk_hassassin_health2@@3Ucvar_s@@A DD FLAT:??_C@_0BF@FOKF@sk_hassassin_health2?$AA@ ; sk_hassassin_health2
	DD	FLAT:??_C@_01PLJA@0?$AA@
	ORG $+12
	ORG $+4
?sk_hassassin_health3@@3Ucvar_s@@A DD FLAT:??_C@_0BF@PEDC@sk_hassassin_health3?$AA@ ; sk_hassassin_health3
	DD	FLAT:??_C@_01PLJA@0?$AA@
	ORG $+12
	ORG $+4
?sk_headcrab_health1@@3Ucvar_s@@A DD FLAT:??_C@_0BE@PNLG@sk_headcrab_health1?$AA@ ; sk_headcrab_health1
	DD	FLAT:??_C@_01PLJA@0?$AA@
	ORG $+12
	ORG $+4
?sk_headcrab_health2@@3Ucvar_s@@A DD FLAT:??_C@_0BE@CAP@sk_headcrab_health2?$AA@ ; sk_headcrab_health2
	DD	FLAT:??_C@_01PLJA@0?$AA@
	ORG $+12
	ORG $+4
?sk_headcrab_health3@@3Ucvar_s@@A DD FLAT:??_C@_0BE@KIJI@sk_headcrab_health3?$AA@ ; sk_headcrab_health3
	DD	FLAT:??_C@_01PLJA@0?$AA@
	ORG $+12
	ORG $+4
?sk_headcrab_dmg_bite1@@3Ucvar_s@@A DD FLAT:??_C@_0BG@OCAC@sk_headcrab_dmg_bite1?$AA@ ; sk_headcrab_dmg_bite1
	DD	FLAT:??_C@_01PLJA@0?$AA@
	ORG $+12
	ORG $+4
?sk_headcrab_dmg_bite2@@3Ucvar_s@@A DD FLAT:??_C@_0BG@BNLL@sk_headcrab_dmg_bite2?$AA@ ; sk_headcrab_dmg_bite2
	DD	FLAT:??_C@_01PLJA@0?$AA@
	ORG $+12
	ORG $+4
?sk_headcrab_dmg_bite3@@3Ucvar_s@@A DD FLAT:??_C@_0BG@LHCM@sk_headcrab_dmg_bite3?$AA@ ; sk_headcrab_dmg_bite3
	DD	FLAT:??_C@_01PLJA@0?$AA@
	ORG $+12
	ORG $+4
?sk_hgrunt_health1@@3Ucvar_s@@A DD FLAT:??_C@_0BC@HNHA@sk_hgrunt_health1?$AA@ ; sk_hgrunt_health1
	DD	FLAT:??_C@_01PLJA@0?$AA@
	ORG $+12
	ORG $+4
?sk_hgrunt_health2@@3Ucvar_s@@A DD FLAT:??_C@_0BC@ICMJ@sk_hgrunt_health2?$AA@ ; sk_hgrunt_health2
	DD	FLAT:??_C@_01PLJA@0?$AA@
	ORG $+12
	ORG $+4
?sk_hgrunt_health3@@3Ucvar_s@@A DD FLAT:??_C@_0BC@CIFO@sk_hgrunt_health3?$AA@ ; sk_hgrunt_health3
	DD	FLAT:??_C@_01PLJA@0?$AA@
	ORG $+12
	ORG $+4
?sk_hgrunt_kick1@@3Ucvar_s@@A DD FLAT:??_C@_0BA@CNFO@sk_hgrunt_kick1?$AA@ ; sk_hgrunt_kick1
	DD	FLAT:??_C@_01PLJA@0?$AA@
	ORG $+12
	ORG $+4
?sk_hgrunt_kick2@@3Ucvar_s@@A DD FLAT:??_C@_0BA@NCOH@sk_hgrunt_kick2?$AA@ ; sk_hgrunt_kick2
	DD	FLAT:??_C@_01PLJA@0?$AA@
	ORG $+12
	ORG $+4
?sk_hgrunt_kick3@@3Ucvar_s@@A DD FLAT:??_C@_0BA@HIHA@sk_hgrunt_kick3?$AA@ ; sk_hgrunt_kick3
	DD	FLAT:??_C@_01PLJA@0?$AA@
	ORG $+12
	ORG $+4
?sk_hgrunt_pellets1@@3Ucvar_s@@A DD FLAT:??_C@_0BD@CBMA@sk_hgrunt_pellets1?$AA@ ; sk_hgrunt_pellets1
	DD	FLAT:??_C@_01PLJA@0?$AA@
	ORG $+12
	ORG $+4
?sk_hgrunt_pellets2@@3Ucvar_s@@A DD FLAT:??_C@_0BD@NOHJ@sk_hgrunt_pellets2?$AA@ ; sk_hgrunt_pellets2
	DD	FLAT:??_C@_01PLJA@0?$AA@
	ORG $+12
	ORG $+4
?sk_hgrunt_pellets3@@3Ucvar_s@@A DD FLAT:??_C@_0BD@HEOO@sk_hgrunt_pellets3?$AA@ ; sk_hgrunt_pellets3
	DD	FLAT:??_C@_01PLJA@0?$AA@
	ORG $+12
	ORG $+4
?sk_hgrunt_gspeed1@@3Ucvar_s@@A DD FLAT:??_C@_0BC@NGMH@sk_hgrunt_gspeed1?$AA@ ; sk_hgrunt_gspeed1
	DD	FLAT:??_C@_01PLJA@0?$AA@
	ORG $+12
	ORG $+4
?sk_hgrunt_gspeed2@@3Ucvar_s@@A DD FLAT:??_C@_0BC@CJHO@sk_hgrunt_gspeed2?$AA@ ; sk_hgrunt_gspeed2
	DD	FLAT:??_C@_01PLJA@0?$AA@
	ORG $+12
	ORG $+4
?sk_hgrunt_gspeed3@@3Ucvar_s@@A DD FLAT:??_C@_0BC@IDOJ@sk_hgrunt_gspeed3?$AA@ ; sk_hgrunt_gspeed3
	DD	FLAT:??_C@_01PLJA@0?$AA@
	ORG $+12
	ORG $+4
?sk_houndeye_health1@@3Ucvar_s@@A DD FLAT:??_C@_0BE@DBBL@sk_houndeye_health1?$AA@ ; sk_houndeye_health1
	DD	FLAT:??_C@_01PLJA@0?$AA@
	ORG $+12
	ORG $+4
?sk_houndeye_health2@@3Ucvar_s@@A DD FLAT:??_C@_0BE@MOKC@sk_houndeye_health2?$AA@ ; sk_houndeye_health2
	DD	FLAT:??_C@_01PLJA@0?$AA@
	ORG $+12
	ORG $+4
?sk_houndeye_health3@@3Ucvar_s@@A DD FLAT:??_C@_0BE@GEDF@sk_houndeye_health3?$AA@ ; sk_houndeye_health3
	DD	FLAT:??_C@_01PLJA@0?$AA@
	ORG $+12
	ORG $+4
?sk_houndeye_dmg_blast1@@3Ucvar_s@@A DD FLAT:??_C@_0BH@OMHB@sk_houndeye_dmg_blast1?$AA@ ; sk_houndeye_dmg_blast1
	DD	FLAT:??_C@_01PLJA@0?$AA@
	ORG $+12
	ORG $+4
?sk_houndeye_dmg_blast2@@3Ucvar_s@@A DD FLAT:??_C@_0BH@BDMI@sk_houndeye_dmg_blast2?$AA@ ; sk_houndeye_dmg_blast2
	DD	FLAT:??_C@_01PLJA@0?$AA@
	ORG $+12
	ORG $+4
?sk_houndeye_dmg_blast3@@3Ucvar_s@@A DD FLAT:??_C@_0BH@LJFP@sk_houndeye_dmg_blast3?$AA@ ; sk_houndeye_dmg_blast3
	DD	FLAT:??_C@_01PLJA@0?$AA@
	ORG $+12
	ORG $+4
?sk_islave_health1@@3Ucvar_s@@A DD FLAT:??_C@_0BC@DFPE@sk_islave_health1?$AA@ ; sk_islave_health1
	DD	FLAT:??_C@_01PLJA@0?$AA@
	ORG $+12
	ORG $+4
?sk_islave_health2@@3Ucvar_s@@A DD FLAT:??_C@_0BC@MKEN@sk_islave_health2?$AA@ ; sk_islave_health2
	DD	FLAT:??_C@_01PLJA@0?$AA@
	ORG $+12
	ORG $+4
?sk_islave_health3@@3Ucvar_s@@A DD FLAT:??_C@_0BC@GANK@sk_islave_health3?$AA@ ; sk_islave_health3
	DD	FLAT:??_C@_01PLJA@0?$AA@
	ORG $+12
	ORG $+4
?sk_islave_dmg_claw1@@3Ucvar_s@@A DD FLAT:??_C@_0BE@KHKM@sk_islave_dmg_claw1?$AA@ ; sk_islave_dmg_claw1
	DD	FLAT:??_C@_01PLJA@0?$AA@
	ORG $+12
	ORG $+4
?sk_islave_dmg_claw2@@3Ucvar_s@@A DD FLAT:??_C@_0BE@FIBF@sk_islave_dmg_claw2?$AA@ ; sk_islave_dmg_claw2
	DD	FLAT:??_C@_01PLJA@0?$AA@
	ORG $+12
	ORG $+4
?sk_islave_dmg_claw3@@3Ucvar_s@@A DD FLAT:??_C@_0BE@PCIC@sk_islave_dmg_claw3?$AA@ ; sk_islave_dmg_claw3
	DD	FLAT:??_C@_01PLJA@0?$AA@
	ORG $+12
	ORG $+4
?sk_islave_dmg_clawrake1@@3Ucvar_s@@A DD FLAT:??_C@_0BI@DKIB@sk_islave_dmg_clawrake1?$AA@ ; sk_islave_dmg_clawrake1
	DD	FLAT:??_C@_01PLJA@0?$AA@
	ORG $+12
	ORG $+4
?sk_islave_dmg_clawrake2@@3Ucvar_s@@A DD FLAT:??_C@_0BI@MFDI@sk_islave_dmg_clawrake2?$AA@ ; sk_islave_dmg_clawrake2
	DD	FLAT:??_C@_01PLJA@0?$AA@
	ORG $+12
	ORG $+4
?sk_islave_dmg_clawrake3@@3Ucvar_s@@A DD FLAT:??_C@_0BI@GPKP@sk_islave_dmg_clawrake3?$AA@ ; sk_islave_dmg_clawrake3
	DD	FLAT:??_C@_01PLJA@0?$AA@
	ORG $+12
	ORG $+4
?sk_islave_dmg_zap1@@3Ucvar_s@@A DD FLAT:??_C@_0BD@FNNB@sk_islave_dmg_zap1?$AA@ ; sk_islave_dmg_zap1
	DD	FLAT:??_C@_01PLJA@0?$AA@
	ORG $+12
	ORG $+4
?sk_islave_dmg_zap2@@3Ucvar_s@@A DD FLAT:??_C@_0BD@KCGI@sk_islave_dmg_zap2?$AA@ ; sk_islave_dmg_zap2
	DD	FLAT:??_C@_01PLJA@0?$AA@
	ORG $+12
	ORG $+4
?sk_islave_dmg_zap3@@3Ucvar_s@@A DD FLAT:??_C@_0BD@IPP@sk_islave_dmg_zap3?$AA@ ; sk_islave_dmg_zap3
	DD	FLAT:??_C@_01PLJA@0?$AA@
	ORG $+12
	ORG $+4
?sk_ichthyosaur_health1@@3Ucvar_s@@A DD FLAT:??_C@_0BH@CCKN@sk_ichthyosaur_health1?$AA@ ; sk_ichthyosaur_health1
	DD	FLAT:??_C@_01PLJA@0?$AA@
	ORG $+12
	ORG $+4
?sk_ichthyosaur_health2@@3Ucvar_s@@A DD FLAT:??_C@_0BH@NNBE@sk_ichthyosaur_health2?$AA@ ; sk_ichthyosaur_health2
	DD	FLAT:??_C@_01PLJA@0?$AA@
	ORG $+12
	ORG $+4
?sk_ichthyosaur_health3@@3Ucvar_s@@A DD FLAT:??_C@_0BH@HHID@sk_ichthyosaur_health3?$AA@ ; sk_ichthyosaur_health3
	DD	FLAT:??_C@_01PLJA@0?$AA@
	ORG $+12
	ORG $+4
?sk_ichthyosaur_shake1@@3Ucvar_s@@A DD FLAT:??_C@_0BG@PCPN@sk_ichthyosaur_shake1?$AA@ ; sk_ichthyosaur_shake1
	DD	FLAT:??_C@_01PLJA@0?$AA@
	ORG $+12
	ORG $+4
?sk_ichthyosaur_shake2@@3Ucvar_s@@A DD FLAT:??_C@_0BG@NEE@sk_ichthyosaur_shake2?$AA@ ; sk_ichthyosaur_shake2
	DD	FLAT:??_C@_01PLJA@0?$AA@
	ORG $+12
	ORG $+4
?sk_ichthyosaur_shake3@@3Ucvar_s@@A DD FLAT:??_C@_0BG@KHND@sk_ichthyosaur_shake3?$AA@ ; sk_ichthyosaur_shake3
	DD	FLAT:??_C@_01PLJA@0?$AA@
	ORG $+12
	ORG $+4
?sk_leech_health1@@3Ucvar_s@@A DD FLAT:??_C@_0BB@FJFI@sk_leech_health1?$AA@ ; sk_leech_health1
	DD	FLAT:??_C@_01PLJA@0?$AA@
	ORG $+12
	ORG $+4
?sk_leech_health2@@3Ucvar_s@@A DD FLAT:??_C@_0BB@KGOB@sk_leech_health2?$AA@ ; sk_leech_health2
	DD	FLAT:??_C@_01PLJA@0?$AA@
	ORG $+12
	ORG $+4
?sk_leech_health3@@3Ucvar_s@@A DD FLAT:??_C@_0BB@MHG@sk_leech_health3?$AA@ ; sk_leech_health3
	DD	FLAT:??_C@_01PLJA@0?$AA@
	ORG $+12
	ORG $+4
?sk_leech_dmg_bite1@@3Ucvar_s@@A DD FLAT:??_C@_0BD@OMHH@sk_leech_dmg_bite1?$AA@ ; sk_leech_dmg_bite1
	DD	FLAT:??_C@_01PLJA@0?$AA@
	ORG $+12
	ORG $+4
?sk_leech_dmg_bite2@@3Ucvar_s@@A DD FLAT:??_C@_0BD@BDMO@sk_leech_dmg_bite2?$AA@ ; sk_leech_dmg_bite2
	DD	FLAT:??_C@_01PLJA@0?$AA@
	ORG $+12
	ORG $+4
?sk_leech_dmg_bite3@@3Ucvar_s@@A DD FLAT:??_C@_0BD@LJFJ@sk_leech_dmg_bite3?$AA@ ; sk_leech_dmg_bite3
	DD	FLAT:??_C@_01PLJA@0?$AA@
	ORG $+12
	ORG $+4
?sk_controller_health1@@3Ucvar_s@@A DD FLAT:??_C@_0BG@OOEF@sk_controller_health1?$AA@ ; sk_controller_health1
	DD	FLAT:??_C@_01PLJA@0?$AA@
	ORG $+12
	ORG $+4
?sk_controller_health2@@3Ucvar_s@@A DD FLAT:??_C@_0BG@BBPM@sk_controller_health2?$AA@ ; sk_controller_health2
	DD	FLAT:??_C@_01PLJA@0?$AA@
	ORG $+12
	ORG $+4
?sk_controller_health3@@3Ucvar_s@@A DD FLAT:??_C@_0BG@LLGL@sk_controller_health3?$AA@ ; sk_controller_health3
	DD	FLAT:??_C@_01PLJA@0?$AA@
	ORG $+12
	ORG $+4
?sk_controller_dmgzap1@@3Ucvar_s@@A DD FLAT:??_C@_0BG@CDHG@sk_controller_dmgzap1?$AA@ ; sk_controller_dmgzap1
	DD	FLAT:??_C@_01PLJA@0?$AA@
	ORG $+12
	ORG $+4
?sk_controller_dmgzap2@@3Ucvar_s@@A DD FLAT:??_C@_0BG@NMMP@sk_controller_dmgzap2?$AA@ ; sk_controller_dmgzap2
	DD	FLAT:??_C@_01PLJA@0?$AA@
	ORG $+12
	ORG $+4
?sk_controller_dmgzap3@@3Ucvar_s@@A DD FLAT:??_C@_0BG@HGFI@sk_controller_dmgzap3?$AA@ ; sk_controller_dmgzap3
	DD	FLAT:??_C@_01PLJA@0?$AA@
	ORG $+12
	ORG $+4
?sk_controller_speedball1@@3Ucvar_s@@A DD FLAT:??_C@_0BJ@NPJL@sk_controller_speedball1?$AA@ ; sk_controller_speedball1
	DD	FLAT:??_C@_01PLJA@0?$AA@
	ORG $+12
	ORG $+4
?sk_controller_speedball2@@3Ucvar_s@@A DD FLAT:??_C@_0BJ@CACC@sk_controller_speedball2?$AA@ ; sk_controller_speedball2
	DD	FLAT:??_C@_01PLJA@0?$AA@
	ORG $+12
	ORG $+4
?sk_controller_speedball3@@3Ucvar_s@@A DD FLAT:??_C@_0BJ@IKLF@sk_controller_speedball3?$AA@ ; sk_controller_speedball3
	DD	FLAT:??_C@_01PLJA@0?$AA@
	ORG $+12
	ORG $+4
?sk_controller_dmgball1@@3Ucvar_s@@A DD FLAT:??_C@_0BH@HGIG@sk_controller_dmgball1?$AA@ ; sk_controller_dmgball1
	DD	FLAT:??_C@_01PLJA@0?$AA@
	ORG $+12
	ORG $+4
?sk_controller_dmgball2@@3Ucvar_s@@A DD FLAT:??_C@_0BH@IJDP@sk_controller_dmgball2?$AA@ ; sk_controller_dmgball2
	DD	FLAT:??_C@_01PLJA@0?$AA@
	ORG $+12
	ORG $+4
?sk_controller_dmgball3@@3Ucvar_s@@A DD FLAT:??_C@_0BH@CDKI@sk_controller_dmgball3?$AA@ ; sk_controller_dmgball3
	DD	FLAT:??_C@_01PLJA@0?$AA@
	ORG $+12
	ORG $+4
?sk_nihilanth_health1@@3Ucvar_s@@A DD FLAT:??_C@_0BF@DBKC@sk_nihilanth_health1?$AA@ ; sk_nihilanth_health1
	DD	FLAT:??_C@_01PLJA@0?$AA@
	ORG $+12
	ORG $+4
?sk_nihilanth_health2@@3Ucvar_s@@A DD FLAT:??_C@_0BF@MOBL@sk_nihilanth_health2?$AA@ ; sk_nihilanth_health2
	DD	FLAT:??_C@_01PLJA@0?$AA@
	ORG $+12
	ORG $+4
?sk_nihilanth_health3@@3Ucvar_s@@A DD FLAT:??_C@_0BF@GEIM@sk_nihilanth_health3?$AA@ ; sk_nihilanth_health3
	DD	FLAT:??_C@_01PLJA@0?$AA@
	ORG $+12
	ORG $+4
?sk_nihilanth_zap1@@3Ucvar_s@@A DD FLAT:??_C@_0BC@DDOH@sk_nihilanth_zap1?$AA@ ; sk_nihilanth_zap1
	DD	FLAT:??_C@_01PLJA@0?$AA@
	ORG $+12
	ORG $+4
?sk_nihilanth_zap2@@3Ucvar_s@@A DD FLAT:??_C@_0BC@MMFO@sk_nihilanth_zap2?$AA@ ; sk_nihilanth_zap2
	DD	FLAT:??_C@_01PLJA@0?$AA@
	ORG $+12
	ORG $+4
?sk_nihilanth_zap3@@3Ucvar_s@@A DD FLAT:??_C@_0BC@GGMJ@sk_nihilanth_zap3?$AA@ ; sk_nihilanth_zap3
	DD	FLAT:??_C@_01PLJA@0?$AA@
	ORG $+12
	ORG $+4
?sk_scientist_health1@@3Ucvar_s@@A DD FLAT:??_C@_0BF@FJNI@sk_scientist_health1?$AA@ ; sk_scientist_health1
	DD	FLAT:??_C@_01PLJA@0?$AA@
	ORG $+12
	ORG $+4
?sk_scientist_health2@@3Ucvar_s@@A DD FLAT:??_C@_0BF@KGGB@sk_scientist_health2?$AA@ ; sk_scientist_health2
	DD	FLAT:??_C@_01PLJA@0?$AA@
	ORG $+12
	ORG $+4
?sk_scientist_health3@@3Ucvar_s@@A DD FLAT:??_C@_0BF@MPG@sk_scientist_health3?$AA@ ; sk_scientist_health3
	DD	FLAT:??_C@_01PLJA@0?$AA@
	ORG $+12
	ORG $+4
?sk_snark_health1@@3Ucvar_s@@A DD FLAT:??_C@_0BB@DEIC@sk_snark_health1?$AA@ ; sk_snark_health1
	DD	FLAT:??_C@_01PLJA@0?$AA@
	ORG $+12
	ORG $+4
?sk_snark_health2@@3Ucvar_s@@A DD FLAT:??_C@_0BB@MLDL@sk_snark_health2?$AA@ ; sk_snark_health2
	DD	FLAT:??_C@_01PLJA@0?$AA@
	ORG $+12
	ORG $+4
?sk_snark_health3@@3Ucvar_s@@A DD FLAT:??_C@_0BB@GBKM@sk_snark_health3?$AA@ ; sk_snark_health3
	DD	FLAT:??_C@_01PLJA@0?$AA@
	ORG $+12
	ORG $+4
?sk_snark_dmg_bite1@@3Ucvar_s@@A DD FLAT:??_C@_0BD@LFAM@sk_snark_dmg_bite1?$AA@ ; sk_snark_dmg_bite1
	DD	FLAT:??_C@_01PLJA@0?$AA@
	ORG $+12
	ORG $+4
?sk_snark_dmg_bite2@@3Ucvar_s@@A DD FLAT:??_C@_0BD@EKLF@sk_snark_dmg_bite2?$AA@ ; sk_snark_dmg_bite2
	DD	FLAT:??_C@_01PLJA@0?$AA@
	ORG $+12
	ORG $+4
?sk_snark_dmg_bite3@@3Ucvar_s@@A DD FLAT:??_C@_0BD@OACC@sk_snark_dmg_bite3?$AA@ ; sk_snark_dmg_bite3
	DD	FLAT:??_C@_01PLJA@0?$AA@
	ORG $+12
	ORG $+4
?sk_snark_dmg_pop1@@3Ucvar_s@@A DD FLAT:??_C@_0BC@ECG@sk_snark_dmg_pop1?$AA@ ; sk_snark_dmg_pop1
	DD	FLAT:??_C@_01PLJA@0?$AA@
	ORG $+12
	ORG $+4
?sk_snark_dmg_pop2@@3Ucvar_s@@A DD FLAT:??_C@_0BC@PLJP@sk_snark_dmg_pop2?$AA@ ; sk_snark_dmg_pop2
	DD	FLAT:??_C@_01PLJA@0?$AA@
	ORG $+12
	ORG $+4
?sk_snark_dmg_pop3@@3Ucvar_s@@A DD FLAT:??_C@_0BC@FBAI@sk_snark_dmg_pop3?$AA@ ; sk_snark_dmg_pop3
	DD	FLAT:??_C@_01PLJA@0?$AA@
	ORG $+12
	ORG $+4
?sk_zombie_health1@@3Ucvar_s@@A DD FLAT:??_C@_0BC@HHBE@sk_zombie_health1?$AA@ ; sk_zombie_health1
	DD	FLAT:??_C@_01PLJA@0?$AA@
	ORG $+12
	ORG $+4
?sk_zombie_health2@@3Ucvar_s@@A DD FLAT:??_C@_0BC@IIKN@sk_zombie_health2?$AA@ ; sk_zombie_health2
	DD	FLAT:??_C@_01PLJA@0?$AA@
	ORG $+12
	ORG $+4
?sk_zombie_health3@@3Ucvar_s@@A DD FLAT:??_C@_0BC@CCDK@sk_zombie_health3?$AA@ ; sk_zombie_health3
	DD	FLAT:??_C@_01PLJA@0?$AA@
	ORG $+12
	ORG $+4
?sk_zombie_dmg_one_slash1@@3Ucvar_s@@A DD FLAT:??_C@_0BJ@NMBI@sk_zombie_dmg_one_slash1?$AA@ ; sk_zombie_dmg_one_slash1
	DD	FLAT:??_C@_01PLJA@0?$AA@
	ORG $+12
	ORG $+4
?sk_zombie_dmg_one_slash2@@3Ucvar_s@@A DD FLAT:??_C@_0BJ@CDKB@sk_zombie_dmg_one_slash2?$AA@ ; sk_zombie_dmg_one_slash2
	DD	FLAT:??_C@_01PLJA@0?$AA@
	ORG $+12
	ORG $+4
?sk_zombie_dmg_one_slash3@@3Ucvar_s@@A DD FLAT:??_C@_0BJ@IJDG@sk_zombie_dmg_one_slash3?$AA@ ; sk_zombie_dmg_one_slash3
	DD	FLAT:??_C@_01PLJA@0?$AA@
	ORG $+12
	ORG $+4
?sk_zombie_dmg_both_slash1@@3Ucvar_s@@A DD FLAT:??_C@_0BK@DOMK@sk_zombie_dmg_both_slash1?$AA@ ; sk_zombie_dmg_both_slash1
	DD	FLAT:??_C@_01PLJA@0?$AA@
	ORG $+12
	ORG $+4
?sk_zombie_dmg_both_slash2@@3Ucvar_s@@A DD FLAT:??_C@_0BK@MBHD@sk_zombie_dmg_both_slash2?$AA@ ; sk_zombie_dmg_both_slash2
	DD	FLAT:??_C@_01PLJA@0?$AA@
	ORG $+12
	ORG $+4
?sk_zombie_dmg_both_slash3@@3Ucvar_s@@A DD FLAT:??_C@_0BK@GLOE@sk_zombie_dmg_both_slash3?$AA@ ; sk_zombie_dmg_both_slash3
	DD	FLAT:??_C@_01PLJA@0?$AA@
	ORG $+12
	ORG $+4
?sk_turret_health1@@3Ucvar_s@@A DD FLAT:??_C@_0BC@DEFG@sk_turret_health1?$AA@ ; sk_turret_health1
	DD	FLAT:??_C@_01PLJA@0?$AA@
	ORG $+12
	ORG $+4
?sk_turret_health2@@3Ucvar_s@@A DD FLAT:??_C@_0BC@MLOP@sk_turret_health2?$AA@ ; sk_turret_health2
	DD	FLAT:??_C@_01PLJA@0?$AA@
	ORG $+12
	ORG $+4
?sk_turret_health3@@3Ucvar_s@@A DD FLAT:??_C@_0BC@GBHI@sk_turret_health3?$AA@ ; sk_turret_health3
	DD	FLAT:??_C@_01PLJA@0?$AA@
	ORG $+12
	ORG $+4
?sk_miniturret_health1@@3Ucvar_s@@A DD FLAT:??_C@_0BG@NPCC@sk_miniturret_health1?$AA@ ; sk_miniturret_health1
	DD	FLAT:??_C@_01PLJA@0?$AA@
	ORG $+12
	ORG $+4
?sk_miniturret_health2@@3Ucvar_s@@A DD FLAT:??_C@_0BG@CAJL@sk_miniturret_health2?$AA@ ; sk_miniturret_health2
	DD	FLAT:??_C@_01PLJA@0?$AA@
	ORG $+12
	ORG $+4
?sk_miniturret_health3@@3Ucvar_s@@A DD FLAT:??_C@_0BG@IKAM@sk_miniturret_health3?$AA@ ; sk_miniturret_health3
	DD	FLAT:??_C@_01PLJA@0?$AA@
	ORG $+12
	ORG $+4
?sk_sentry_health1@@3Ucvar_s@@A DD FLAT:??_C@_0BC@LAAK@sk_sentry_health1?$AA@ ; sk_sentry_health1
	DD	FLAT:??_C@_01PLJA@0?$AA@
	ORG $+12
	ORG $+4
?sk_sentry_health2@@3Ucvar_s@@A DD FLAT:??_C@_0BC@EPLD@sk_sentry_health2?$AA@ ; sk_sentry_health2
	DD	FLAT:??_C@_01PLJA@0?$AA@
	ORG $+12
	ORG $+4
?sk_sentry_health3@@3Ucvar_s@@A DD FLAT:??_C@_0BC@OFCE@sk_sentry_health3?$AA@ ; sk_sentry_health3
	DD	FLAT:??_C@_01PLJA@0?$AA@
	ORG $+12
	ORG $+4
?sk_plr_crowbar1@@3Ucvar_s@@A DD FLAT:??_C@_0BA@KDPF@sk_plr_crowbar1?$AA@ ; sk_plr_crowbar1
	DD	FLAT:??_C@_01PLJA@0?$AA@
	ORG $+12
	ORG $+4
?sk_plr_crowbar2@@3Ucvar_s@@A DD FLAT:??_C@_0BA@FMEM@sk_plr_crowbar2?$AA@ ; sk_plr_crowbar2
	DD	FLAT:??_C@_01PLJA@0?$AA@
	ORG $+12
	ORG $+4
?sk_plr_crowbar3@@3Ucvar_s@@A DD FLAT:??_C@_0BA@PGNL@sk_plr_crowbar3?$AA@ ; sk_plr_crowbar3
	DD	FLAT:??_C@_01PLJA@0?$AA@
	ORG $+12
	ORG $+4
?sk_plr_crowbar_stab1@@3Ucvar_s@@A DD FLAT:??_C@_0BF@MBHM@sk_plr_crowbar_stab1?$AA@ ; sk_plr_crowbar_stab1
	DD	FLAT:??_C@_01PLJA@0?$AA@
	ORG $+12
	ORG $+4
?sk_plr_crowbar_stab2@@3Ucvar_s@@A DD FLAT:??_C@_0BF@DOMF@sk_plr_crowbar_stab2?$AA@ ; sk_plr_crowbar_stab2
	DD	FLAT:??_C@_01PLJA@0?$AA@
	ORG $+12
	ORG $+4
?sk_plr_crowbar_stab3@@3Ucvar_s@@A DD FLAT:??_C@_0BF@JEFC@sk_plr_crowbar_stab3?$AA@ ; sk_plr_crowbar_stab3
	DD	FLAT:??_C@_01PLJA@0?$AA@
	ORG $+12
	ORG $+4
?sk_plr_axe1@@3Ucvar_s@@A DD FLAT:??_C@_0M@FFDJ@sk_plr_axe1?$AA@ ; sk_plr_axe1
	DD	FLAT:??_C@_01PLJA@0?$AA@
	ORG $+12
	ORG $+4
?sk_plr_axe2@@3Ucvar_s@@A DD FLAT:??_C@_0M@KKIA@sk_plr_axe2?$AA@ ; sk_plr_axe2
	DD	FLAT:??_C@_01PLJA@0?$AA@
	ORG $+12
	ORG $+4
?sk_plr_axe3@@3Ucvar_s@@A DD FLAT:??_C@_0M@BH@sk_plr_axe3?$AA@ ; sk_plr_axe3
	DD	FLAT:??_C@_01PLJA@0?$AA@
	ORG $+12
	ORG $+4
?sk_plr_axe_sec1@@3Ucvar_s@@A DD FLAT:??_C@_0BA@NNMF@sk_plr_axe_sec1?$AA@ ; sk_plr_axe_sec1
	DD	FLAT:??_C@_01PLJA@0?$AA@
	ORG $+12
	ORG $+4
?sk_plr_axe_sec2@@3Ucvar_s@@A DD FLAT:??_C@_0BA@CCHM@sk_plr_axe_sec2?$AA@ ; sk_plr_axe_sec2
	DD	FLAT:??_C@_01PLJA@0?$AA@
	ORG $+12
	ORG $+4
?sk_plr_axe_sec3@@3Ucvar_s@@A DD FLAT:??_C@_0BA@IIOL@sk_plr_axe_sec3?$AA@ ; sk_plr_axe_sec3
	DD	FLAT:??_C@_01PLJA@0?$AA@
	ORG $+12
	ORG $+4
?sk_plr_chainsaw1@@3Ucvar_s@@A DD FLAT:??_C@_0BB@BAEG@sk_plr_chainsaw1?$AA@ ; sk_plr_chainsaw1
	DD	FLAT:??_C@_01PLJA@0?$AA@
	ORG $+12
	ORG $+4
?sk_plr_chainsaw2@@3Ucvar_s@@A DD FLAT:??_C@_0BB@OPPP@sk_plr_chainsaw2?$AA@ ; sk_plr_chainsaw2
	DD	FLAT:??_C@_01PLJA@0?$AA@
	ORG $+12
	ORG $+4
?sk_plr_chainsaw3@@3Ucvar_s@@A DD FLAT:??_C@_0BB@EFGI@sk_plr_chainsaw3?$AA@ ; sk_plr_chainsaw3
	DD	FLAT:??_C@_01PLJA@0?$AA@
	ORG $+12
	ORG $+4
?sk_plr_chainsaw_sec1@@3Ucvar_s@@A DD FLAT:??_C@_0BF@IJNP@sk_plr_chainsaw_sec1?$AA@ ; sk_plr_chainsaw_sec1
	DD	FLAT:??_C@_01PLJA@0?$AA@
	ORG $+12
	ORG $+4
?sk_plr_chainsaw_sec2@@3Ucvar_s@@A DD FLAT:??_C@_0BF@HGGG@sk_plr_chainsaw_sec2?$AA@ ; sk_plr_chainsaw_sec2
	DD	FLAT:??_C@_01PLJA@0?$AA@
	ORG $+12
	ORG $+4
?sk_plr_chainsaw_sec3@@3Ucvar_s@@A DD FLAT:??_C@_0BF@NMPB@sk_plr_chainsaw_sec3?$AA@ ; sk_plr_chainsaw_sec3
	DD	FLAT:??_C@_01PLJA@0?$AA@
	ORG $+12
	ORG $+4
?sk_plr_9mm_bullet1@@3Ucvar_s@@A DD FLAT:??_C@_0BD@IFOA@sk_plr_9mm_bullet1?$AA@ ; sk_plr_9mm_bullet1
	DD	FLAT:??_C@_01PLJA@0?$AA@
	ORG $+12
	ORG $+4
?sk_plr_9mm_bullet2@@3Ucvar_s@@A DD FLAT:??_C@_0BD@HKFJ@sk_plr_9mm_bullet2?$AA@ ; sk_plr_9mm_bullet2
	DD	FLAT:??_C@_01PLJA@0?$AA@
	ORG $+12
	ORG $+4
?sk_plr_9mm_bullet3@@3Ucvar_s@@A DD FLAT:??_C@_0BD@NAMO@sk_plr_9mm_bullet3?$AA@ ; sk_plr_9mm_bullet3
	DD	FLAT:??_C@_01PLJA@0?$AA@
	ORG $+12
	ORG $+4
?sk_plr_357_bullet1@@3Ucvar_s@@A DD FLAT:??_C@_0BD@FGHN@sk_plr_357_bullet1?$AA@ ; sk_plr_357_bullet1
	DD	FLAT:??_C@_01PLJA@0?$AA@
	ORG $+12
	ORG $+4
?sk_plr_357_bullet2@@3Ucvar_s@@A DD FLAT:??_C@_0BD@KJME@sk_plr_357_bullet2?$AA@ ; sk_plr_357_bullet2
	DD	FLAT:??_C@_01PLJA@0?$AA@
	ORG $+12
	ORG $+4
?sk_plr_357_bullet3@@3Ucvar_s@@A DD FLAT:??_C@_0BD@DFD@sk_plr_357_bullet3?$AA@ ; sk_plr_357_bullet3
	DD	FLAT:??_C@_01PLJA@0?$AA@
	ORG $+12
	ORG $+4
?sk_plr_9mmAR_bullet1@@3Ucvar_s@@A DD FLAT:??_C@_0BF@GNPC@sk_plr_9mmAR_bullet1?$AA@ ; sk_plr_9mmAR_bullet1
	DD	FLAT:??_C@_01PLJA@0?$AA@
	ORG $+12
	ORG $+4
?sk_plr_9mmAR_bullet2@@3Ucvar_s@@A DD FLAT:??_C@_0BF@JCEL@sk_plr_9mmAR_bullet2?$AA@ ; sk_plr_9mmAR_bullet2
	DD	FLAT:??_C@_01PLJA@0?$AA@
	ORG $+12
	ORG $+4
?sk_plr_9mmAR_bullet3@@3Ucvar_s@@A DD FLAT:??_C@_0BF@DINM@sk_plr_9mmAR_bullet3?$AA@ ; sk_plr_9mmAR_bullet3
	DD	FLAT:??_C@_01PLJA@0?$AA@
	ORG $+12
	ORG $+4
?sk_plr_9mmAR_grenade1@@3Ucvar_s@@A DD FLAT:??_C@_0BG@GCHJ@sk_plr_9mmAR_grenade1?$AA@ ; sk_plr_9mmAR_grenade1
	DD	FLAT:??_C@_01PLJA@0?$AA@
	ORG $+12
	ORG $+4
?sk_plr_9mmAR_grenade2@@3Ucvar_s@@A DD FLAT:??_C@_0BG@JNMA@sk_plr_9mmAR_grenade2?$AA@ ; sk_plr_9mmAR_grenade2
	DD	FLAT:??_C@_01PLJA@0?$AA@
	ORG $+12
	ORG $+4
?sk_plr_9mmAR_grenade3@@3Ucvar_s@@A DD FLAT:??_C@_0BG@DHFH@sk_plr_9mmAR_grenade3?$AA@ ; sk_plr_9mmAR_grenade3
	DD	FLAT:??_C@_01PLJA@0?$AA@
	ORG $+12
	ORG $+4
?sk_plr_buckshot1@@3Ucvar_s@@A DD FLAT:??_C@_0BB@HLNJ@sk_plr_buckshot1?$AA@ ; sk_plr_buckshot1
	DD	FLAT:??_C@_01PLJA@0?$AA@
	ORG $+12
	ORG $+4
?sk_plr_buckshot2@@3Ucvar_s@@A DD FLAT:??_C@_0BB@IEGA@sk_plr_buckshot2?$AA@ ; sk_plr_buckshot2
	DD	FLAT:??_C@_01PLJA@0?$AA@
	ORG $+12
	ORG $+4
?sk_plr_buckshot3@@3Ucvar_s@@A DD FLAT:??_C@_0BB@COPH@sk_plr_buckshot3?$AA@ ; sk_plr_buckshot3
	DD	FLAT:??_C@_01PLJA@0?$AA@
	ORG $+12
	ORG $+4
?sk_plr_xbow_bolt_client1@@3Ucvar_s@@A DD FLAT:??_C@_0BJ@CKHD@sk_plr_xbow_bolt_client1?$AA@ ; sk_plr_xbow_bolt_client1
	DD	FLAT:??_C@_01PLJA@0?$AA@
	ORG $+12
	ORG $+4
?sk_plr_xbow_bolt_client2@@3Ucvar_s@@A DD FLAT:??_C@_0BJ@NFMK@sk_plr_xbow_bolt_client2?$AA@ ; sk_plr_xbow_bolt_client2
	DD	FLAT:??_C@_01PLJA@0?$AA@
	ORG $+12
	ORG $+4
?sk_plr_xbow_bolt_client3@@3Ucvar_s@@A DD FLAT:??_C@_0BJ@HPFN@sk_plr_xbow_bolt_client3?$AA@ ; sk_plr_xbow_bolt_client3
	DD	FLAT:??_C@_01PLJA@0?$AA@
	ORG $+12
	ORG $+4
?sk_plr_xbow_bolt_monster1@@3Ucvar_s@@A DD FLAT:??_C@_0BK@NMNJ@sk_plr_xbow_bolt_monster1?$AA@ ; sk_plr_xbow_bolt_monster1
	DD	FLAT:??_C@_01PLJA@0?$AA@
	ORG $+12
	ORG $+4
?sk_plr_xbow_bolt_monster2@@3Ucvar_s@@A DD FLAT:??_C@_0BK@CDGA@sk_plr_xbow_bolt_monster2?$AA@ ; sk_plr_xbow_bolt_monster2
	DD	FLAT:??_C@_01PLJA@0?$AA@
	ORG $+12
	ORG $+4
?sk_plr_xbow_bolt_monster3@@3Ucvar_s@@A DD FLAT:??_C@_0BK@IJPH@sk_plr_xbow_bolt_monster3?$AA@ ; sk_plr_xbow_bolt_monster3
	DD	FLAT:??_C@_01PLJA@0?$AA@
	ORG $+12
	ORG $+4
?sk_plr_rpg1@@3Ucvar_s@@A DD FLAT:??_C@_0M@NCAO@sk_plr_rpg1?$AA@ ; sk_plr_rpg1
	DD	FLAT:??_C@_01PLJA@0?$AA@
	ORG $+12
	ORG $+4
?sk_plr_rpg2@@3Ucvar_s@@A DD FLAT:??_C@_0M@CNLH@sk_plr_rpg2?$AA@ ; sk_plr_rpg2
	DD	FLAT:??_C@_01PLJA@0?$AA@
	ORG $+12
	ORG $+4
?sk_plr_rpg3@@3Ucvar_s@@A DD FLAT:??_C@_0M@IHCA@sk_plr_rpg3?$AA@ ; sk_plr_rpg3
	DD	FLAT:??_C@_01PLJA@0?$AA@
	ORG $+12
	ORG $+4
?sk_plr_gauss1@@3Ucvar_s@@A DD FLAT:??_C@_0O@HDAN@sk_plr_gauss1?$AA@ ; sk_plr_gauss1
	DD	FLAT:??_C@_01PLJA@0?$AA@
	ORG $+12
	ORG $+4
?sk_plr_gauss2@@3Ucvar_s@@A DD FLAT:??_C@_0O@IMLE@sk_plr_gauss2?$AA@ ; sk_plr_gauss2
	DD	FLAT:??_C@_01PLJA@0?$AA@
	ORG $+12
	ORG $+4
?sk_plr_gauss3@@3Ucvar_s@@A DD FLAT:??_C@_0O@CGCD@sk_plr_gauss3?$AA@ ; sk_plr_gauss3
	DD	FLAT:??_C@_01PLJA@0?$AA@
	ORG $+12
	ORG $+4
?sk_plr_egon_narrow1@@3Ucvar_s@@A DD FLAT:??_C@_0BE@FFGP@sk_plr_egon_narrow1?$AA@ ; sk_plr_egon_narrow1
	DD	FLAT:??_C@_01PLJA@0?$AA@
	ORG $+12
	ORG $+4
?sk_plr_egon_narrow2@@3Ucvar_s@@A DD FLAT:??_C@_0BE@KKNG@sk_plr_egon_narrow2?$AA@ ; sk_plr_egon_narrow2
	DD	FLAT:??_C@_01PLJA@0?$AA@
	ORG $+12
	ORG $+4
?sk_plr_egon_narrow3@@3Ucvar_s@@A DD FLAT:??_C@_0BE@EB@sk_plr_egon_narrow3?$AA@ ; sk_plr_egon_narrow3
	DD	FLAT:??_C@_01PLJA@0?$AA@
	ORG $+12
	ORG $+4
?sk_plr_egon_wide1@@3Ucvar_s@@A DD FLAT:??_C@_0BC@PMAM@sk_plr_egon_wide1?$AA@ ; sk_plr_egon_wide1
	DD	FLAT:??_C@_01PLJA@0?$AA@
	ORG $+12
	ORG $+4
?sk_plr_egon_wide2@@3Ucvar_s@@A DD FLAT:??_C@_0BC@DLF@sk_plr_egon_wide2?$AA@ ; sk_plr_egon_wide2
	DD	FLAT:??_C@_01PLJA@0?$AA@
	ORG $+12
	ORG $+4
?sk_plr_egon_wide3@@3Ucvar_s@@A DD FLAT:??_C@_0BC@KJCC@sk_plr_egon_wide3?$AA@ ; sk_plr_egon_wide3
	DD	FLAT:??_C@_01PLJA@0?$AA@
	ORG $+12
	ORG $+4
?sk_plr_hand_grenade1@@3Ucvar_s@@A DD FLAT:??_C@_0BF@IGDM@sk_plr_hand_grenade1?$AA@ ; sk_plr_hand_grenade1
	DD	FLAT:??_C@_01PLJA@0?$AA@
	ORG $+12
	ORG $+4
?sk_plr_hand_grenade2@@3Ucvar_s@@A DD FLAT:??_C@_0BF@HJIF@sk_plr_hand_grenade2?$AA@ ; sk_plr_hand_grenade2
	DD	FLAT:??_C@_01PLJA@0?$AA@
	ORG $+12
	ORG $+4
?sk_plr_hand_grenade3@@3Ucvar_s@@A DD FLAT:??_C@_0BF@NDBC@sk_plr_hand_grenade3?$AA@ ; sk_plr_hand_grenade3
	DD	FLAT:??_C@_01PLJA@0?$AA@
	ORG $+12
	ORG $+4
?sk_plr_satchel1@@3Ucvar_s@@A DD FLAT:??_C@_0BA@PALH@sk_plr_satchel1?$AA@ ; sk_plr_satchel1
	DD	FLAT:??_C@_01PLJA@0?$AA@
	ORG $+12
	ORG $+4
?sk_plr_satchel2@@3Ucvar_s@@A DD FLAT:??_C@_0BA@PAO@sk_plr_satchel2?$AA@ ; sk_plr_satchel2
	DD	FLAT:??_C@_01PLJA@0?$AA@
	ORG $+12
	ORG $+4
?sk_plr_satchel3@@3Ucvar_s@@A DD FLAT:??_C@_0BA@KFJJ@sk_plr_satchel3?$AA@ ; sk_plr_satchel3
	DD	FLAT:??_C@_01PLJA@0?$AA@
	ORG $+12
	ORG $+4
?sk_plr_tripmine1@@3Ucvar_s@@A DD FLAT:??_C@_0BB@ICKA@sk_plr_tripmine1?$AA@ ; sk_plr_tripmine1
	DD	FLAT:??_C@_01PLJA@0?$AA@
	ORG $+12
	ORG $+4
?sk_plr_tripmine2@@3Ucvar_s@@A DD FLAT:??_C@_0BB@HNBJ@sk_plr_tripmine2?$AA@ ; sk_plr_tripmine2
	DD	FLAT:??_C@_01PLJA@0?$AA@
	ORG $+12
	ORG $+4
?sk_plr_tripmine3@@3Ucvar_s@@A DD FLAT:??_C@_0BB@NHIO@sk_plr_tripmine3?$AA@ ; sk_plr_tripmine3
	DD	FLAT:??_C@_01PLJA@0?$AA@
	ORG $+12
	ORG $+4
?sk_12mm_bullet1@@3Ucvar_s@@A DD FLAT:??_C@_0BA@KKKF@sk_12mm_bullet1?$AA@ ; sk_12mm_bullet1
	DD	FLAT:??_C@_01PLJA@0?$AA@
	ORG $+12
	ORG $+4
?sk_12mm_bullet2@@3Ucvar_s@@A DD FLAT:??_C@_0BA@FFBM@sk_12mm_bullet2?$AA@ ; sk_12mm_bullet2
	DD	FLAT:??_C@_01PLJA@0?$AA@
	ORG $+12
	ORG $+4
?sk_12mm_bullet3@@3Ucvar_s@@A DD FLAT:??_C@_0BA@PPIL@sk_12mm_bullet3?$AA@ ; sk_12mm_bullet3
	DD	FLAT:??_C@_01PLJA@0?$AA@
	ORG $+12
	ORG $+4
?sk_9mmAR_bullet1@@3Ucvar_s@@A DD FLAT:??_C@_0BB@IDKC@sk_9mmAR_bullet1?$AA@ ; sk_9mmAR_bullet1
	DD	FLAT:??_C@_01PLJA@0?$AA@
	ORG $+12
	ORG $+4
?sk_9mmAR_bullet2@@3Ucvar_s@@A DD FLAT:??_C@_0BB@HMBL@sk_9mmAR_bullet2?$AA@ ; sk_9mmAR_bullet2
	DD	FLAT:??_C@_01PLJA@0?$AA@
	ORG $+12
	ORG $+4
?sk_9mmAR_bullet3@@3Ucvar_s@@A DD FLAT:??_C@_0BB@NGIM@sk_9mmAR_bullet3?$AA@ ; sk_9mmAR_bullet3
	DD	FLAT:??_C@_01PLJA@0?$AA@
	ORG $+12
	ORG $+4
?sk_9mm_bullet1@@3Ucvar_s@@A DD FLAT:??_C@_0P@ONCA@sk_9mm_bullet1?$AA@ ; sk_9mm_bullet1
	DD	FLAT:??_C@_01PLJA@0?$AA@
	ORG $+12
	ORG $+4
?sk_9mm_bullet2@@3Ucvar_s@@A DD FLAT:??_C@_0P@BCJJ@sk_9mm_bullet2?$AA@ ; sk_9mm_bullet2
	DD	FLAT:??_C@_01PLJA@0?$AA@
	ORG $+12
	ORG $+4
?sk_9mm_bullet3@@3Ucvar_s@@A DD FLAT:??_C@_0P@LIAO@sk_9mm_bullet3?$AA@ ; sk_9mm_bullet3
	DD	FLAT:??_C@_01PLJA@0?$AA@
	ORG $+12
	ORG $+4
?sk_hornet_dmg1@@3Ucvar_s@@A DD FLAT:??_C@_0P@PEKC@sk_hornet_dmg1?$AA@ ; sk_hornet_dmg1
	DD	FLAT:??_C@_01PLJA@0?$AA@
	ORG $+12
	ORG $+4
?sk_hornet_dmg2@@3Ucvar_s@@A DD FLAT:??_C@_0P@LBL@sk_hornet_dmg2?$AA@ ; sk_hornet_dmg2
	DD	FLAT:??_C@_01PLJA@0?$AA@
	ORG $+12
	ORG $+4
?sk_hornet_dmg3@@3Ucvar_s@@A DD FLAT:??_C@_0P@KBIM@sk_hornet_dmg3?$AA@ ; sk_hornet_dmg3
	DD	FLAT:??_C@_01PLJA@0?$AA@
	ORG $+12
	ORG $+4
?sk_suitcharger1@@3Ucvar_s@@A DD FLAT:??_C@_0BA@MEMG@sk_suitcharger1?$AA@ ; sk_suitcharger1
	DD	FLAT:??_C@_01PLJA@0?$AA@
	ORG $+12
	ORG $+4
?sk_suitcharger2@@3Ucvar_s@@A DD FLAT:??_C@_0BA@DLHP@sk_suitcharger2?$AA@ ; sk_suitcharger2
	DD	FLAT:??_C@_01PLJA@0?$AA@
	ORG $+12
	ORG $+4
?sk_suitcharger3@@3Ucvar_s@@A DD FLAT:??_C@_0BA@JBOI@sk_suitcharger3?$AA@ ; sk_suitcharger3
	DD	FLAT:??_C@_01PLJA@0?$AA@
	ORG $+12
	ORG $+4
?sk_battery1@@3Ucvar_s@@A DD FLAT:??_C@_0M@BLEL@sk_battery1?$AA@ ; sk_battery1
	DD	FLAT:??_C@_01PLJA@0?$AA@
	ORG $+12
	ORG $+4
?sk_battery2@@3Ucvar_s@@A DD FLAT:??_C@_0M@OEPC@sk_battery2?$AA@ ; sk_battery2
	DD	FLAT:??_C@_01PLJA@0?$AA@
	ORG $+12
	ORG $+4
?sk_battery3@@3Ucvar_s@@A DD FLAT:??_C@_0M@EOGF@sk_battery3?$AA@ ; sk_battery3
	DD	FLAT:??_C@_01PLJA@0?$AA@
	ORG $+12
	ORG $+4
?sk_healthcharger1@@3Ucvar_s@@A DD FLAT:??_C@_0BC@JFJN@sk_healthcharger1?$AA@ ; sk_healthcharger1
	DD	FLAT:??_C@_01PLJA@0?$AA@
	ORG $+12
	ORG $+4
?sk_healthcharger2@@3Ucvar_s@@A DD FLAT:??_C@_0BC@GKCE@sk_healthcharger2?$AA@ ; sk_healthcharger2
	DD	FLAT:??_C@_01PLJA@0?$AA@
	ORG $+12
	ORG $+4
?sk_healthcharger3@@3Ucvar_s@@A DD FLAT:??_C@_0BC@MALD@sk_healthcharger3?$AA@ ; sk_healthcharger3
	DD	FLAT:??_C@_01PLJA@0?$AA@
	ORG $+12
	ORG $+4
?sk_healthkit1@@3Ucvar_s@@A DD FLAT:??_C@_0O@KCOP@sk_healthkit1?$AA@ ; sk_healthkit1
	DD	FLAT:??_C@_01PLJA@0?$AA@
	ORG $+12
	ORG $+4
?sk_healthkit2@@3Ucvar_s@@A DD FLAT:??_C@_0O@FNFG@sk_healthkit2?$AA@ ; sk_healthkit2
	DD	FLAT:??_C@_01PLJA@0?$AA@
	ORG $+12
	ORG $+4
?sk_healthkit3@@3Ucvar_s@@A DD FLAT:??_C@_0O@PHMB@sk_healthkit3?$AA@ ; sk_healthkit3
	DD	FLAT:??_C@_01PLJA@0?$AA@
	ORG $+12
	ORG $+4
?sk_scientist_heal1@@3Ucvar_s@@A DD FLAT:??_C@_0BD@MCLL@sk_scientist_heal1?$AA@ ; sk_scientist_heal1
	DD	FLAT:??_C@_01PLJA@0?$AA@
	ORG $+12
	ORG $+4
?sk_scientist_heal2@@3Ucvar_s@@A DD FLAT:??_C@_0BD@DNAC@sk_scientist_heal2?$AA@ ; sk_scientist_heal2
	DD	FLAT:??_C@_01PLJA@0?$AA@
	ORG $+12
	ORG $+4
?sk_scientist_heal3@@3Ucvar_s@@A DD FLAT:??_C@_0BD@JHJF@sk_scientist_heal3?$AA@ ; sk_scientist_heal3
	DD	FLAT:??_C@_01PLJA@0?$AA@
	ORG $+12
	ORG $+4
?sk_monster_head1@@3Ucvar_s@@A DD FLAT:??_C@_0BB@JAAB@sk_monster_head1?$AA@ ; sk_monster_head1
	DD	FLAT:??_C@_01KOLO@2?$AA@
	ORG $+12
	ORG $+4
?sk_monster_head2@@3Ucvar_s@@A DD FLAT:??_C@_0BB@GPLI@sk_monster_head2?$AA@ ; sk_monster_head2
	DD	FLAT:??_C@_01KOLO@2?$AA@
	ORG $+12
	ORG $+4
?sk_monster_head3@@3Ucvar_s@@A DD FLAT:??_C@_0BB@MFCP@sk_monster_head3?$AA@ ; sk_monster_head3
	DD	FLAT:??_C@_01KOLO@2?$AA@
	ORG $+12
	ORG $+4
?sk_monster_chest1@@3Ucvar_s@@A DD FLAT:??_C@_0BC@ODAK@sk_monster_chest1?$AA@ ; sk_monster_chest1
	DD	FLAT:??_C@_01FBAH@1?$AA@
	ORG $+12
	ORG $+4
?sk_monster_chest2@@3Ucvar_s@@A DD FLAT:??_C@_0BC@BMLD@sk_monster_chest2?$AA@ ; sk_monster_chest2
	DD	FLAT:??_C@_01FBAH@1?$AA@
	ORG $+12
	ORG $+4
?sk_monster_chest3@@3Ucvar_s@@A DD FLAT:??_C@_0BC@LGCE@sk_monster_chest3?$AA@ ; sk_monster_chest3
	DD	FLAT:??_C@_01FBAH@1?$AA@
	ORG $+12
	ORG $+4
?sk_monster_stomach1@@3Ucvar_s@@A DD FLAT:??_C@_0BE@HDLO@sk_monster_stomach1?$AA@ ; sk_monster_stomach1
	DD	FLAT:??_C@_01FBAH@1?$AA@
	ORG $+12
	ORG $+4
?sk_monster_stomach2@@3Ucvar_s@@A DD FLAT:??_C@_0BE@IMAH@sk_monster_stomach2?$AA@ ; sk_monster_stomach2
	DD	FLAT:??_C@_01FBAH@1?$AA@
	ORG $+12
	ORG $+4
?sk_monster_stomach3@@3Ucvar_s@@A DD FLAT:??_C@_0BE@CGJA@sk_monster_stomach3?$AA@ ; sk_monster_stomach3
	DD	FLAT:??_C@_01FBAH@1?$AA@
	ORG $+12
	ORG $+4
?sk_monster_arm1@@3Ucvar_s@@A DD FLAT:??_C@_0BA@HFLM@sk_monster_arm1?$AA@ ; sk_monster_arm1
	DD	FLAT:??_C@_01FBAH@1?$AA@
	ORG $+12
	ORG $+4
?sk_monster_arm2@@3Ucvar_s@@A DD FLAT:??_C@_0BA@IKAF@sk_monster_arm2?$AA@ ; sk_monster_arm2
	DD	FLAT:??_C@_01FBAH@1?$AA@
	ORG $+12
	ORG $+4
?sk_monster_arm3@@3Ucvar_s@@A DD FLAT:??_C@_0BA@CAJC@sk_monster_arm3?$AA@ ; sk_monster_arm3
	DD	FLAT:??_C@_01FBAH@1?$AA@
	ORG $+12
	ORG $+4
?sk_monster_leg1@@3Ucvar_s@@A DD FLAT:??_C@_0BA@OIDM@sk_monster_leg1?$AA@ ; sk_monster_leg1
	DD	FLAT:??_C@_01FBAH@1?$AA@
	ORG $+12
	ORG $+4
?sk_monster_leg2@@3Ucvar_s@@A DD FLAT:??_C@_0BA@BHIF@sk_monster_leg2?$AA@ ; sk_monster_leg2
	DD	FLAT:??_C@_01FBAH@1?$AA@
	ORG $+12
	ORG $+4
?sk_monster_leg3@@3Ucvar_s@@A DD FLAT:??_C@_0BA@LNBC@sk_monster_leg3?$AA@ ; sk_monster_leg3
	DD	FLAT:??_C@_01FBAH@1?$AA@
	ORG $+12
	ORG $+4
?sk_player_head1@@3Ucvar_s@@A DD FLAT:??_C@_0BA@NBKO@sk_player_head1?$AA@ ; sk_player_head1
	DD	FLAT:??_C@_01KOLO@2?$AA@
	ORG $+12
	ORG $+4
?sk_player_head2@@3Ucvar_s@@A DD FLAT:??_C@_0BA@COBH@sk_player_head2?$AA@ ; sk_player_head2
	DD	FLAT:??_C@_01KOLO@2?$AA@
	ORG $+12
	ORG $+4
?sk_player_head3@@3Ucvar_s@@A DD FLAT:??_C@_0BA@IEIA@sk_player_head3?$AA@ ; sk_player_head3
	DD	FLAT:??_C@_01KOLO@2?$AA@
	ORG $+12
	ORG $+4
?sk_player_chest1@@3Ucvar_s@@A DD FLAT:??_C@_0BB@FLEL@sk_player_chest1?$AA@ ; sk_player_chest1
	DD	FLAT:??_C@_01FBAH@1?$AA@
	ORG $+12
	ORG $+4
?sk_player_chest2@@3Ucvar_s@@A DD FLAT:??_C@_0BB@KEPC@sk_player_chest2?$AA@ ; sk_player_chest2
	DD	FLAT:??_C@_01FBAH@1?$AA@
	ORG $+12
	ORG $+4
?sk_player_chest3@@3Ucvar_s@@A DD FLAT:??_C@_0BB@OGF@sk_player_chest3?$AA@ ; sk_player_chest3
	DD	FLAT:??_C@_01FBAH@1?$AA@
	ORG $+12
	ORG $+4
?sk_player_stomach1@@3Ucvar_s@@A DD FLAT:??_C@_0BD@GFHC@sk_player_stomach1?$AA@ ; sk_player_stomach1
	DD	FLAT:??_C@_01FBAH@1?$AA@
	ORG $+12
	ORG $+4
?sk_player_stomach2@@3Ucvar_s@@A DD FLAT:??_C@_0BD@JKML@sk_player_stomach2?$AA@ ; sk_player_stomach2
	DD	FLAT:??_C@_01FBAH@1?$AA@
	ORG $+12
	ORG $+4
?sk_player_stomach3@@3Ucvar_s@@A DD FLAT:??_C@_0BD@DAFM@sk_player_stomach3?$AA@ ; sk_player_stomach3
	DD	FLAT:??_C@_01FBAH@1?$AA@
	ORG $+12
	ORG $+4
?sk_player_arm1@@3Ucvar_s@@A DD FLAT:??_C@_0P@NKHJ@sk_player_arm1?$AA@ ; sk_player_arm1
	DD	FLAT:??_C@_01FBAH@1?$AA@
	ORG $+12
	ORG $+4
?sk_player_arm2@@3Ucvar_s@@A DD FLAT:??_C@_0P@CFMA@sk_player_arm2?$AA@ ; sk_player_arm2
	DD	FLAT:??_C@_01FBAH@1?$AA@
	ORG $+12
	ORG $+4
?sk_player_arm3@@3Ucvar_s@@A DD FLAT:??_C@_0P@IPFH@sk_player_arm3?$AA@ ; sk_player_arm3
	DD	FLAT:??_C@_01FBAH@1?$AA@
	ORG $+12
	ORG $+4
?sk_player_leg1@@3Ucvar_s@@A DD FLAT:??_C@_0P@EHPJ@sk_player_leg1?$AA@ ; sk_player_leg1
	DD	FLAT:??_C@_01FBAH@1?$AA@
	ORG $+12
	ORG $+4
?sk_player_leg2@@3Ucvar_s@@A DD FLAT:??_C@_0P@LIEA@sk_player_leg2?$AA@ ; sk_player_leg2
	DD	FLAT:??_C@_01FBAH@1?$AA@
	ORG $+12
	ORG $+4
?sk_player_leg3@@3Ucvar_s@@A DD FLAT:??_C@_0P@BCNH@sk_player_leg3?$AA@ ; sk_player_leg3
	DD	FLAT:??_C@_01FBAH@1?$AA@
	ORG $+12
_DATA	ENDS
;	COMDAT ??_C@_0BB@GGHG@displaysoundlist?$AA@
CONST	SEGMENT
??_C@_0BB@GGHG@displaysoundlist?$AA@ DB 'displaysoundlist', 00H ; `string'
CONST	ENDS
;	COMDAT ??_C@_01PLJA@0?$AA@
CONST	SEGMENT
??_C@_01PLJA@0?$AA@ DB '0', 00H				; `string'
CONST	ENDS
;	COMDAT ??_C@_0N@FNEM@mp_fragsleft?$AA@
CONST	SEGMENT
??_C@_0N@FNEM@mp_fragsleft?$AA@ DB 'mp_fragsleft', 00H	; `string'
CONST	ENDS
;	COMDAT ??_C@_0M@IHID@mp_timeleft?$AA@
CONST	SEGMENT
??_C@_0M@IHID@mp_timeleft?$AA@ DB 'mp_timeleft', 00H	; `string'
CONST	ENDS
;	COMDAT ??_C@_0M@KOKP@mp_teamplay?$AA@
CONST	SEGMENT
??_C@_0M@KOKP@mp_teamplay?$AA@ DB 'mp_teamplay', 00H	; `string'
CONST	ENDS
;	COMDAT ??_C@_0N@MKGH@mp_fraglimit?$AA@
CONST	SEGMENT
??_C@_0N@MKGH@mp_fraglimit?$AA@ DB 'mp_fraglimit', 00H	; `string'
CONST	ENDS
;	COMDAT ??_C@_0N@JECA@mp_timelimit?$AA@
CONST	SEGMENT
??_C@_0N@JECA@mp_timelimit?$AA@ DB 'mp_timelimit', 00H	; `string'
CONST	ENDS
;	COMDAT ??_C@_0BA@NHMN@mp_friendlyfire?$AA@
CONST	SEGMENT
??_C@_0BA@NHMN@mp_friendlyfire?$AA@ DB 'mp_friendlyfire', 00H ; `string'
CONST	ENDS
;	COMDAT ??_C@_0O@OCEA@mp_falldamage?$AA@
CONST	SEGMENT
??_C@_0O@OCEA@mp_falldamage?$AA@ DB 'mp_falldamage', 00H ; `string'
CONST	ENDS
;	COMDAT ??_C@_0O@FPOG@mp_weaponstay?$AA@
CONST	SEGMENT
??_C@_0O@FPOG@mp_weaponstay?$AA@ DB 'mp_weaponstay', 00H ; `string'
CONST	ENDS
;	COMDAT ??_C@_0BA@OHKH@mp_forcerespawn?$AA@
CONST	SEGMENT
??_C@_0BA@OHKH@mp_forcerespawn?$AA@ DB 'mp_forcerespawn', 00H ; `string'
CONST	ENDS
;	COMDAT ??_C@_01FBAH@1?$AA@
CONST	SEGMENT
??_C@_01FBAH@1?$AA@ DB '1', 00H				; `string'
CONST	ENDS
;	COMDAT ??_C@_0O@DCFE@mp_flashlight?$AA@
CONST	SEGMENT
??_C@_0O@DCFE@mp_flashlight?$AA@ DB 'mp_flashlight', 00H ; `string'
CONST	ENDS
;	COMDAT ??_C@_0BB@IDFJ@mp_autocrosshair?$AA@
CONST	SEGMENT
??_C@_0BB@IDFJ@mp_autocrosshair?$AA@ DB 'mp_autocrosshair', 00H ; `string'
CONST	ENDS
;	COMDAT ??_C@_0P@FJGF@decalfrequency?$AA@
CONST	SEGMENT
??_C@_0P@FJGF@decalfrequency?$AA@ DB 'decalfrequency', 00H ; `string'
CONST	ENDS
;	COMDAT ??_C@_0M@ENJF@mp_teamlist?$AA@
CONST	SEGMENT
??_C@_0M@ENJF@mp_teamlist?$AA@ DB 'mp_teamlist', 00H	; `string'
CONST	ENDS
;	COMDAT ??_C@_0BB@HGPB@hgrunt?$DLscientist?$AA@
CONST	SEGMENT
??_C@_0BB@HGPB@hgrunt?$DLscientist?$AA@ DB 'hgrunt;scientist', 00H ; `string'
CONST	ENDS
;	COMDAT ??_C@_0BA@HLDE@mp_teamoverride?$AA@
CONST	SEGMENT
??_C@_0BA@HLDE@mp_teamoverride?$AA@ DB 'mp_teamoverride', 00H ; `string'
CONST	ENDS
;	COMDAT ??_C@_0P@OMJO@mp_defaultteam?$AA@
CONST	SEGMENT
??_C@_0P@OMJO@mp_defaultteam?$AA@ DB 'mp_defaultteam', 00H ; `string'
CONST	ENDS
;	COMDAT ??_C@_0BB@GNCO@mp_allowmonsters?$AA@
CONST	SEGMENT
??_C@_0BB@GNCO@mp_allowmonsters?$AA@ DB 'mp_allowmonsters', 00H ; `string'
CONST	ENDS
;	COMDAT ??_C@_0M@KANF@mp_chattime?$AA@
CONST	SEGMENT
??_C@_0M@KANF@mp_chattime?$AA@ DB 'mp_chattime', 00H	; `string'
CONST	ENDS
;	COMDAT ??_C@_02FCMB@10?$AA@
CONST	SEGMENT
??_C@_02FCMB@10?$AA@ DB '10', 00H			; `string'
CONST	ENDS
;	COMDAT ??_C@_0L@HJFJ@phys_debug?$AA@
CONST	SEGMENT
??_C@_0L@HJFJ@phys_debug?$AA@ DB 'phys_debug', 00H	; `string'
CONST	ENDS
;	COMDAT ??_C@_0M@OOPC@phys_qdebug?$AA@
CONST	SEGMENT
??_C@_0M@OOPC@phys_qdebug?$AA@ DB 'phys_qdebug', 00H	; `string'
CONST	ENDS
;	COMDAT ??_C@_08FNPH@p_speeds?$AA@
CONST	SEGMENT
??_C@_08FNPH@p_speeds?$AA@ DB 'p_speeds', 00H		; `string'
CONST	ENDS
;	COMDAT ??_C@_0P@FPKK@sv_sync_physic?$AA@
CONST	SEGMENT
??_C@_0P@FPKK@sv_sync_physic?$AA@ DB 'sv_sync_physic', 00H ; `string'
CONST	ENDS
;	COMDAT ??_C@_0BC@NPKK@sk_agrunt_health1?$AA@
CONST	SEGMENT
??_C@_0BC@NPKK@sk_agrunt_health1?$AA@ DB 'sk_agrunt_health1', 00H ; `string'
CONST	ENDS
;	COMDAT ??_C@_0BC@CABD@sk_agrunt_health2?$AA@
CONST	SEGMENT
??_C@_0BC@CABD@sk_agrunt_health2?$AA@ DB 'sk_agrunt_health2', 00H ; `string'
CONST	ENDS
;	COMDAT ??_C@_0BC@IKIE@sk_agrunt_health3?$AA@
CONST	SEGMENT
??_C@_0BC@IKIE@sk_agrunt_health3?$AA@ DB 'sk_agrunt_health3', 00H ; `string'
CONST	ENDS
;	COMDAT ??_C@_0BF@NCLM@sk_agrunt_dmg_punch1?$AA@
CONST	SEGMENT
??_C@_0BF@NCLM@sk_agrunt_dmg_punch1?$AA@ DB 'sk_agrunt_dmg_punch1', 00H ; `string'
CONST	ENDS
;	COMDAT ??_C@_0BF@CNAF@sk_agrunt_dmg_punch2?$AA@
CONST	SEGMENT
??_C@_0BF@CNAF@sk_agrunt_dmg_punch2?$AA@ DB 'sk_agrunt_dmg_punch2', 00H ; `string'
CONST	ENDS
;	COMDAT ??_C@_0BF@IHJC@sk_agrunt_dmg_punch3?$AA@
CONST	SEGMENT
??_C@_0BF@IHJC@sk_agrunt_dmg_punch3?$AA@ DB 'sk_agrunt_dmg_punch3', 00H ; `string'
CONST	ENDS
;	COMDAT ??_C@_0BC@GHJ@sk_apache_health1?$AA@
CONST	SEGMENT
??_C@_0BC@GHJ@sk_apache_health1?$AA@ DB 'sk_apache_health1', 00H ; `string'
CONST	ENDS
;	COMDAT ??_C@_0BC@PJMA@sk_apache_health2?$AA@
CONST	SEGMENT
??_C@_0BC@PJMA@sk_apache_health2?$AA@ DB 'sk_apache_health2', 00H ; `string'
CONST	ENDS
;	COMDAT ??_C@_0BC@FDFH@sk_apache_health3?$AA@
CONST	SEGMENT
??_C@_0BC@FDFH@sk_apache_health3?$AA@ DB 'sk_apache_health3', 00H ; `string'
CONST	ENDS
;	COMDAT ??_C@_0BC@CMFK@sk_barney_health1?$AA@
CONST	SEGMENT
??_C@_0BC@CMFK@sk_barney_health1?$AA@ DB 'sk_barney_health1', 00H ; `string'
CONST	ENDS
;	COMDAT ??_C@_0BC@NDOD@sk_barney_health2?$AA@
CONST	SEGMENT
??_C@_0BC@NDOD@sk_barney_health2?$AA@ DB 'sk_barney_health2', 00H ; `string'
CONST	ENDS
;	COMDAT ??_C@_0BC@HJHE@sk_barney_health3?$AA@
CONST	SEGMENT
??_C@_0BC@HJHE@sk_barney_health3?$AA@ DB 'sk_barney_health3', 00H ; `string'
CONST	ENDS
;	COMDAT ??_C@_0BF@OBBN@sk_bullsquid_health1?$AA@
CONST	SEGMENT
??_C@_0BF@OBBN@sk_bullsquid_health1?$AA@ DB 'sk_bullsquid_health1', 00H ; `string'
CONST	ENDS
;	COMDAT ??_C@_0BF@BOKE@sk_bullsquid_health2?$AA@
CONST	SEGMENT
??_C@_0BF@BOKE@sk_bullsquid_health2?$AA@ DB 'sk_bullsquid_health2', 00H ; `string'
CONST	ENDS
;	COMDAT ??_C@_0BF@LEDD@sk_bullsquid_health3?$AA@
CONST	SEGMENT
??_C@_0BF@LEDD@sk_bullsquid_health3?$AA@ DB 'sk_bullsquid_health3', 00H ; `string'
CONST	ENDS
;	COMDAT ??_C@_0BH@FMJ@sk_bullsquid_dmg_bite1?$AA@
CONST	SEGMENT
??_C@_0BH@FMJ@sk_bullsquid_dmg_bite1?$AA@ DB 'sk_bullsquid_dmg_bite1', 00H ; `string'
CONST	ENDS
;	COMDAT ??_C@_0BH@PKHA@sk_bullsquid_dmg_bite2?$AA@
CONST	SEGMENT
??_C@_0BH@PKHA@sk_bullsquid_dmg_bite2?$AA@ DB 'sk_bullsquid_dmg_bite2', 00H ; `string'
CONST	ENDS
;	COMDAT ??_C@_0BH@FAOH@sk_bullsquid_dmg_bite3?$AA@
CONST	SEGMENT
??_C@_0BH@FAOH@sk_bullsquid_dmg_bite3?$AA@ DB 'sk_bullsquid_dmg_bite3', 00H ; `string'
CONST	ENDS
;	COMDAT ??_C@_0BH@IPEE@sk_bullsquid_dmg_whip1?$AA@
CONST	SEGMENT
??_C@_0BH@IPEE@sk_bullsquid_dmg_whip1?$AA@ DB 'sk_bullsquid_dmg_whip1', 00H ; `string'
CONST	ENDS
;	COMDAT ??_C@_0BH@HAPN@sk_bullsquid_dmg_whip2?$AA@
CONST	SEGMENT
??_C@_0BH@HAPN@sk_bullsquid_dmg_whip2?$AA@ DB 'sk_bullsquid_dmg_whip2', 00H ; `string'
CONST	ENDS
;	COMDAT ??_C@_0BH@NKGK@sk_bullsquid_dmg_whip3?$AA@
CONST	SEGMENT
??_C@_0BH@NKGK@sk_bullsquid_dmg_whip3?$AA@ DB 'sk_bullsquid_dmg_whip3', 00H ; `string'
CONST	ENDS
;	COMDAT ??_C@_0BH@CKMK@sk_bullsquid_dmg_spit1?$AA@
CONST	SEGMENT
??_C@_0BH@CKMK@sk_bullsquid_dmg_spit1?$AA@ DB 'sk_bullsquid_dmg_spit1', 00H ; `string'
CONST	ENDS
;	COMDAT ??_C@_0BH@NFHD@sk_bullsquid_dmg_spit2?$AA@
CONST	SEGMENT
??_C@_0BH@NFHD@sk_bullsquid_dmg_spit2?$AA@ DB 'sk_bullsquid_dmg_spit2', 00H ; `string'
CONST	ENDS
;	COMDAT ??_C@_0BH@HPOE@sk_bullsquid_dmg_spit3?$AA@
CONST	SEGMENT
??_C@_0BH@HPOE@sk_bullsquid_dmg_spit3?$AA@ DB 'sk_bullsquid_dmg_spit3', 00H ; `string'
CONST	ENDS
;	COMDAT ??_C@_0BL@EDLI@sk_bigmomma_health_factor1?$AA@
CONST	SEGMENT
??_C@_0BL@EDLI@sk_bigmomma_health_factor1?$AA@ DB 'sk_bigmomma_health_fac'
	DB	'tor1', 00H					; `string'
CONST	ENDS
;	COMDAT ??_C@_03NNMA@1?40?$AA@
CONST	SEGMENT
??_C@_03NNMA@1?40?$AA@ DB '1.0', 00H			; `string'
CONST	ENDS
;	COMDAT ??_C@_0BL@LMAB@sk_bigmomma_health_factor2?$AA@
CONST	SEGMENT
??_C@_0BL@LMAB@sk_bigmomma_health_factor2?$AA@ DB 'sk_bigmomma_health_fac'
	DB	'tor2', 00H					; `string'
CONST	ENDS
;	COMDAT ??_C@_0BL@BGJG@sk_bigmomma_health_factor3?$AA@
CONST	SEGMENT
??_C@_0BL@BGJG@sk_bigmomma_health_factor3?$AA@ DB 'sk_bigmomma_health_fac'
	DB	'tor3', 00H					; `string'
CONST	ENDS
;	COMDAT ??_C@_0BH@KKIK@sk_bigmomma_dmg_slash1?$AA@
CONST	SEGMENT
??_C@_0BH@KKIK@sk_bigmomma_dmg_slash1?$AA@ DB 'sk_bigmomma_dmg_slash1', 00H ; `string'
CONST	ENDS
;	COMDAT ??_C@_02IGL@50?$AA@
CONST	SEGMENT
??_C@_02IGL@50?$AA@ DB '50', 00H			; `string'
CONST	ENDS
;	COMDAT ??_C@_0BH@FFDD@sk_bigmomma_dmg_slash2?$AA@
CONST	SEGMENT
??_C@_0BH@FFDD@sk_bigmomma_dmg_slash2?$AA@ DB 'sk_bigmomma_dmg_slash2', 00H ; `string'
CONST	ENDS
;	COMDAT ??_C@_0BH@PPKE@sk_bigmomma_dmg_slash3?$AA@
CONST	SEGMENT
??_C@_0BH@PPKE@sk_bigmomma_dmg_slash3?$AA@ DB 'sk_bigmomma_dmg_slash3', 00H ; `string'
CONST	ENDS
;	COMDAT ??_C@_0BH@OAHP@sk_bigmomma_dmg_blast1?$AA@
CONST	SEGMENT
??_C@_0BH@OAHP@sk_bigmomma_dmg_blast1?$AA@ DB 'sk_bigmomma_dmg_blast1', 00H ; `string'
CONST	ENDS
;	COMDAT ??_C@_03HFMC@100?$AA@
CONST	SEGMENT
??_C@_03HFMC@100?$AA@ DB '100', 00H			; `string'
CONST	ENDS
;	COMDAT ??_C@_0BH@BPMG@sk_bigmomma_dmg_blast2?$AA@
CONST	SEGMENT
??_C@_0BH@BPMG@sk_bigmomma_dmg_blast2?$AA@ DB 'sk_bigmomma_dmg_blast2', 00H ; `string'
CONST	ENDS
;	COMDAT ??_C@_0BH@LFFB@sk_bigmomma_dmg_blast3?$AA@
CONST	SEGMENT
??_C@_0BH@LFFB@sk_bigmomma_dmg_blast3?$AA@ DB 'sk_bigmomma_dmg_blast3', 00H ; `string'
CONST	ENDS
;	COMDAT ??_C@_0BK@CDFD@sk_bigmomma_radius_blast1?$AA@
CONST	SEGMENT
??_C@_0BK@CDFD@sk_bigmomma_radius_blast1?$AA@ DB 'sk_bigmomma_radius_blas'
	DB	't1', 00H					; `string'
CONST	ENDS
;	COMDAT ??_C@_03MPPJ@250?$AA@
CONST	SEGMENT
??_C@_03MPPJ@250?$AA@ DB '250', 00H			; `string'
CONST	ENDS
;	COMDAT ??_C@_0BK@NMOK@sk_bigmomma_radius_blast2?$AA@
CONST	SEGMENT
??_C@_0BK@NMOK@sk_bigmomma_radius_blast2?$AA@ DB 'sk_bigmomma_radius_blas'
	DB	't2', 00H					; `string'
CONST	ENDS
;	COMDAT ??_C@_0BK@HGHN@sk_bigmomma_radius_blast3?$AA@
CONST	SEGMENT
??_C@_0BK@HGHN@sk_bigmomma_radius_blast3?$AA@ DB 'sk_bigmomma_radius_blas'
	DB	't3', 00H					; `string'
CONST	ENDS
;	COMDAT ??_C@_0BF@JEJB@sk_gargantua_health1?$AA@
CONST	SEGMENT
??_C@_0BF@JEJB@sk_gargantua_health1?$AA@ DB 'sk_gargantua_health1', 00H ; `string'
CONST	ENDS
;	COMDAT ??_C@_0BF@GLCI@sk_gargantua_health2?$AA@
CONST	SEGMENT
??_C@_0BF@GLCI@sk_gargantua_health2?$AA@ DB 'sk_gargantua_health2', 00H ; `string'
CONST	ENDS
;	COMDAT ??_C@_0BF@MBLP@sk_gargantua_health3?$AA@
CONST	SEGMENT
??_C@_0BF@MBLP@sk_gargantua_health3?$AA@ DB 'sk_gargantua_health3', 00H ; `string'
CONST	ENDS
;	COMDAT ??_C@_0BI@OMKD@sk_gargantua_dmg_slash1?$AA@
CONST	SEGMENT
??_C@_0BI@OMKD@sk_gargantua_dmg_slash1?$AA@ DB 'sk_gargantua_dmg_slash1', 00H ; `string'
CONST	ENDS
;	COMDAT ??_C@_0BI@BDBK@sk_gargantua_dmg_slash2?$AA@
CONST	SEGMENT
??_C@_0BI@BDBK@sk_gargantua_dmg_slash2?$AA@ DB 'sk_gargantua_dmg_slash2', 00H ; `string'
CONST	ENDS
;	COMDAT ??_C@_0BI@LJIN@sk_gargantua_dmg_slash3?$AA@
CONST	SEGMENT
??_C@_0BI@LJIN@sk_gargantua_dmg_slash3?$AA@ DB 'sk_gargantua_dmg_slash3', 00H ; `string'
CONST	ENDS
;	COMDAT ??_C@_0BH@OJK@sk_gargantua_dmg_fire1?$AA@
CONST	SEGMENT
??_C@_0BH@OJK@sk_gargantua_dmg_fire1?$AA@ DB 'sk_gargantua_dmg_fire1', 00H ; `string'
CONST	ENDS
;	COMDAT ??_C@_0BH@PBCD@sk_gargantua_dmg_fire2?$AA@
CONST	SEGMENT
??_C@_0BH@PBCD@sk_gargantua_dmg_fire2?$AA@ DB 'sk_gargantua_dmg_fire2', 00H ; `string'
CONST	ENDS
;	COMDAT ??_C@_0BH@FLLE@sk_gargantua_dmg_fire3?$AA@
CONST	SEGMENT
??_C@_0BH@FLLE@sk_gargantua_dmg_fire3?$AA@ DB 'sk_gargantua_dmg_fire3', 00H ; `string'
CONST	ENDS
;	COMDAT ??_C@_0BI@JIPF@sk_gargantua_dmg_stomp1?$AA@
CONST	SEGMENT
??_C@_0BI@JIPF@sk_gargantua_dmg_stomp1?$AA@ DB 'sk_gargantua_dmg_stomp1', 00H ; `string'
CONST	ENDS
;	COMDAT ??_C@_0BI@GHEM@sk_gargantua_dmg_stomp2?$AA@
CONST	SEGMENT
??_C@_0BI@GHEM@sk_gargantua_dmg_stomp2?$AA@ DB 'sk_gargantua_dmg_stomp2', 00H ; `string'
CONST	ENDS
;	COMDAT ??_C@_0BI@MNNL@sk_gargantua_dmg_stomp3?$AA@
CONST	SEGMENT
??_C@_0BI@MNNL@sk_gargantua_dmg_stomp3?$AA@ DB 'sk_gargantua_dmg_stomp3', 00H ; `string'
CONST	ENDS
;	COMDAT ??_C@_0BF@KBBM@sk_hassassin_health1?$AA@
CONST	SEGMENT
??_C@_0BF@KBBM@sk_hassassin_health1?$AA@ DB 'sk_hassassin_health1', 00H ; `string'
CONST	ENDS
;	COMDAT ??_C@_0BF@FOKF@sk_hassassin_health2?$AA@
CONST	SEGMENT
??_C@_0BF@FOKF@sk_hassassin_health2?$AA@ DB 'sk_hassassin_health2', 00H ; `string'
CONST	ENDS
;	COMDAT ??_C@_0BF@PEDC@sk_hassassin_health3?$AA@
CONST	SEGMENT
??_C@_0BF@PEDC@sk_hassassin_health3?$AA@ DB 'sk_hassassin_health3', 00H ; `string'
CONST	ENDS
;	COMDAT ??_C@_0BE@PNLG@sk_headcrab_health1?$AA@
CONST	SEGMENT
??_C@_0BE@PNLG@sk_headcrab_health1?$AA@ DB 'sk_headcrab_health1', 00H ; `string'
CONST	ENDS
;	COMDAT ??_C@_0BE@CAP@sk_headcrab_health2?$AA@
CONST	SEGMENT
??_C@_0BE@CAP@sk_headcrab_health2?$AA@ DB 'sk_headcrab_health2', 00H ; `string'
CONST	ENDS
;	COMDAT ??_C@_0BE@KIJI@sk_headcrab_health3?$AA@
CONST	SEGMENT
??_C@_0BE@KIJI@sk_headcrab_health3?$AA@ DB 'sk_headcrab_health3', 00H ; `string'
CONST	ENDS
;	COMDAT ??_C@_0BG@OCAC@sk_headcrab_dmg_bite1?$AA@
CONST	SEGMENT
??_C@_0BG@OCAC@sk_headcrab_dmg_bite1?$AA@ DB 'sk_headcrab_dmg_bite1', 00H ; `string'
CONST	ENDS
;	COMDAT ??_C@_0BG@BNLL@sk_headcrab_dmg_bite2?$AA@
CONST	SEGMENT
??_C@_0BG@BNLL@sk_headcrab_dmg_bite2?$AA@ DB 'sk_headcrab_dmg_bite2', 00H ; `string'
CONST	ENDS
;	COMDAT ??_C@_0BG@LHCM@sk_headcrab_dmg_bite3?$AA@
CONST	SEGMENT
??_C@_0BG@LHCM@sk_headcrab_dmg_bite3?$AA@ DB 'sk_headcrab_dmg_bite3', 00H ; `string'
CONST	ENDS
;	COMDAT ??_C@_0BC@HNHA@sk_hgrunt_health1?$AA@
CONST	SEGMENT
??_C@_0BC@HNHA@sk_hgrunt_health1?$AA@ DB 'sk_hgrunt_health1', 00H ; `string'
CONST	ENDS
;	COMDAT ??_C@_0BC@ICMJ@sk_hgrunt_health2?$AA@
CONST	SEGMENT
??_C@_0BC@ICMJ@sk_hgrunt_health2?$AA@ DB 'sk_hgrunt_health2', 00H ; `string'
CONST	ENDS
;	COMDAT ??_C@_0BC@CIFO@sk_hgrunt_health3?$AA@
CONST	SEGMENT
??_C@_0BC@CIFO@sk_hgrunt_health3?$AA@ DB 'sk_hgrunt_health3', 00H ; `string'
CONST	ENDS
;	COMDAT ??_C@_0BA@CNFO@sk_hgrunt_kick1?$AA@
CONST	SEGMENT
??_C@_0BA@CNFO@sk_hgrunt_kick1?$AA@ DB 'sk_hgrunt_kick1', 00H ; `string'
CONST	ENDS
;	COMDAT ??_C@_0BA@NCOH@sk_hgrunt_kick2?$AA@
CONST	SEGMENT
??_C@_0BA@NCOH@sk_hgrunt_kick2?$AA@ DB 'sk_hgrunt_kick2', 00H ; `string'
CONST	ENDS
;	COMDAT ??_C@_0BA@HIHA@sk_hgrunt_kick3?$AA@
CONST	SEGMENT
??_C@_0BA@HIHA@sk_hgrunt_kick3?$AA@ DB 'sk_hgrunt_kick3', 00H ; `string'
CONST	ENDS
;	COMDAT ??_C@_0BD@CBMA@sk_hgrunt_pellets1?$AA@
CONST	SEGMENT
??_C@_0BD@CBMA@sk_hgrunt_pellets1?$AA@ DB 'sk_hgrunt_pellets1', 00H ; `string'
CONST	ENDS
;	COMDAT ??_C@_0BD@NOHJ@sk_hgrunt_pellets2?$AA@
CONST	SEGMENT
??_C@_0BD@NOHJ@sk_hgrunt_pellets2?$AA@ DB 'sk_hgrunt_pellets2', 00H ; `string'
CONST	ENDS
;	COMDAT ??_C@_0BD@HEOO@sk_hgrunt_pellets3?$AA@
CONST	SEGMENT
??_C@_0BD@HEOO@sk_hgrunt_pellets3?$AA@ DB 'sk_hgrunt_pellets3', 00H ; `string'
CONST	ENDS
;	COMDAT ??_C@_0BC@NGMH@sk_hgrunt_gspeed1?$AA@
CONST	SEGMENT
??_C@_0BC@NGMH@sk_hgrunt_gspeed1?$AA@ DB 'sk_hgrunt_gspeed1', 00H ; `string'
CONST	ENDS
;	COMDAT ??_C@_0BC@CJHO@sk_hgrunt_gspeed2?$AA@
CONST	SEGMENT
??_C@_0BC@CJHO@sk_hgrunt_gspeed2?$AA@ DB 'sk_hgrunt_gspeed2', 00H ; `string'
CONST	ENDS
;	COMDAT ??_C@_0BC@IDOJ@sk_hgrunt_gspeed3?$AA@
CONST	SEGMENT
??_C@_0BC@IDOJ@sk_hgrunt_gspeed3?$AA@ DB 'sk_hgrunt_gspeed3', 00H ; `string'
CONST	ENDS
;	COMDAT ??_C@_0BE@DBBL@sk_houndeye_health1?$AA@
CONST	SEGMENT
??_C@_0BE@DBBL@sk_houndeye_health1?$AA@ DB 'sk_houndeye_health1', 00H ; `string'
CONST	ENDS
;	COMDAT ??_C@_0BE@MOKC@sk_houndeye_health2?$AA@
CONST	SEGMENT
??_C@_0BE@MOKC@sk_houndeye_health2?$AA@ DB 'sk_houndeye_health2', 00H ; `string'
CONST	ENDS
;	COMDAT ??_C@_0BE@GEDF@sk_houndeye_health3?$AA@
CONST	SEGMENT
??_C@_0BE@GEDF@sk_houndeye_health3?$AA@ DB 'sk_houndeye_health3', 00H ; `string'
CONST	ENDS
;	COMDAT ??_C@_0BH@OMHB@sk_houndeye_dmg_blast1?$AA@
CONST	SEGMENT
??_C@_0BH@OMHB@sk_houndeye_dmg_blast1?$AA@ DB 'sk_houndeye_dmg_blast1', 00H ; `string'
CONST	ENDS
;	COMDAT ??_C@_0BH@BDMI@sk_houndeye_dmg_blast2?$AA@
CONST	SEGMENT
??_C@_0BH@BDMI@sk_houndeye_dmg_blast2?$AA@ DB 'sk_houndeye_dmg_blast2', 00H ; `string'
CONST	ENDS
;	COMDAT ??_C@_0BH@LJFP@sk_houndeye_dmg_blast3?$AA@
CONST	SEGMENT
??_C@_0BH@LJFP@sk_houndeye_dmg_blast3?$AA@ DB 'sk_houndeye_dmg_blast3', 00H ; `string'
CONST	ENDS
;	COMDAT ??_C@_0BC@DFPE@sk_islave_health1?$AA@
CONST	SEGMENT
??_C@_0BC@DFPE@sk_islave_health1?$AA@ DB 'sk_islave_health1', 00H ; `string'
CONST	ENDS
;	COMDAT ??_C@_0BC@MKEN@sk_islave_health2?$AA@
CONST	SEGMENT
??_C@_0BC@MKEN@sk_islave_health2?$AA@ DB 'sk_islave_health2', 00H ; `string'
CONST	ENDS
;	COMDAT ??_C@_0BC@GANK@sk_islave_health3?$AA@
CONST	SEGMENT
??_C@_0BC@GANK@sk_islave_health3?$AA@ DB 'sk_islave_health3', 00H ; `string'
CONST	ENDS
;	COMDAT ??_C@_0BE@KHKM@sk_islave_dmg_claw1?$AA@
CONST	SEGMENT
??_C@_0BE@KHKM@sk_islave_dmg_claw1?$AA@ DB 'sk_islave_dmg_claw1', 00H ; `string'
CONST	ENDS
;	COMDAT ??_C@_0BE@FIBF@sk_islave_dmg_claw2?$AA@
CONST	SEGMENT
??_C@_0BE@FIBF@sk_islave_dmg_claw2?$AA@ DB 'sk_islave_dmg_claw2', 00H ; `string'
CONST	ENDS
;	COMDAT ??_C@_0BE@PCIC@sk_islave_dmg_claw3?$AA@
CONST	SEGMENT
??_C@_0BE@PCIC@sk_islave_dmg_claw3?$AA@ DB 'sk_islave_dmg_claw3', 00H ; `string'
CONST	ENDS
;	COMDAT ??_C@_0BI@DKIB@sk_islave_dmg_clawrake1?$AA@
CONST	SEGMENT
??_C@_0BI@DKIB@sk_islave_dmg_clawrake1?$AA@ DB 'sk_islave_dmg_clawrake1', 00H ; `string'
CONST	ENDS
;	COMDAT ??_C@_0BI@MFDI@sk_islave_dmg_clawrake2?$AA@
CONST	SEGMENT
??_C@_0BI@MFDI@sk_islave_dmg_clawrake2?$AA@ DB 'sk_islave_dmg_clawrake2', 00H ; `string'
CONST	ENDS
;	COMDAT ??_C@_0BI@GPKP@sk_islave_dmg_clawrake3?$AA@
CONST	SEGMENT
??_C@_0BI@GPKP@sk_islave_dmg_clawrake3?$AA@ DB 'sk_islave_dmg_clawrake3', 00H ; `string'
CONST	ENDS
;	COMDAT ??_C@_0BD@FNNB@sk_islave_dmg_zap1?$AA@
CONST	SEGMENT
??_C@_0BD@FNNB@sk_islave_dmg_zap1?$AA@ DB 'sk_islave_dmg_zap1', 00H ; `string'
CONST	ENDS
;	COMDAT ??_C@_0BD@KCGI@sk_islave_dmg_zap2?$AA@
CONST	SEGMENT
??_C@_0BD@KCGI@sk_islave_dmg_zap2?$AA@ DB 'sk_islave_dmg_zap2', 00H ; `string'
CONST	ENDS
;	COMDAT ??_C@_0BD@IPP@sk_islave_dmg_zap3?$AA@
CONST	SEGMENT
??_C@_0BD@IPP@sk_islave_dmg_zap3?$AA@ DB 'sk_islave_dmg_zap3', 00H ; `string'
CONST	ENDS
;	COMDAT ??_C@_0BH@CCKN@sk_ichthyosaur_health1?$AA@
CONST	SEGMENT
??_C@_0BH@CCKN@sk_ichthyosaur_health1?$AA@ DB 'sk_ichthyosaur_health1', 00H ; `string'
CONST	ENDS
;	COMDAT ??_C@_0BH@NNBE@sk_ichthyosaur_health2?$AA@
CONST	SEGMENT
??_C@_0BH@NNBE@sk_ichthyosaur_health2?$AA@ DB 'sk_ichthyosaur_health2', 00H ; `string'
CONST	ENDS
;	COMDAT ??_C@_0BH@HHID@sk_ichthyosaur_health3?$AA@
CONST	SEGMENT
??_C@_0BH@HHID@sk_ichthyosaur_health3?$AA@ DB 'sk_ichthyosaur_health3', 00H ; `string'
CONST	ENDS
;	COMDAT ??_C@_0BG@PCPN@sk_ichthyosaur_shake1?$AA@
CONST	SEGMENT
??_C@_0BG@PCPN@sk_ichthyosaur_shake1?$AA@ DB 'sk_ichthyosaur_shake1', 00H ; `string'
CONST	ENDS
;	COMDAT ??_C@_0BG@NEE@sk_ichthyosaur_shake2?$AA@
CONST	SEGMENT
??_C@_0BG@NEE@sk_ichthyosaur_shake2?$AA@ DB 'sk_ichthyosaur_shake2', 00H ; `string'
CONST	ENDS
;	COMDAT ??_C@_0BG@KHND@sk_ichthyosaur_shake3?$AA@
CONST	SEGMENT
??_C@_0BG@KHND@sk_ichthyosaur_shake3?$AA@ DB 'sk_ichthyosaur_shake3', 00H ; `string'
CONST	ENDS
;	COMDAT ??_C@_0BB@FJFI@sk_leech_health1?$AA@
CONST	SEGMENT
??_C@_0BB@FJFI@sk_leech_health1?$AA@ DB 'sk_leech_health1', 00H ; `string'
CONST	ENDS
;	COMDAT ??_C@_0BB@KGOB@sk_leech_health2?$AA@
CONST	SEGMENT
??_C@_0BB@KGOB@sk_leech_health2?$AA@ DB 'sk_leech_health2', 00H ; `string'
CONST	ENDS
;	COMDAT ??_C@_0BB@MHG@sk_leech_health3?$AA@
CONST	SEGMENT
??_C@_0BB@MHG@sk_leech_health3?$AA@ DB 'sk_leech_health3', 00H ; `string'
CONST	ENDS
;	COMDAT ??_C@_0BD@OMHH@sk_leech_dmg_bite1?$AA@
CONST	SEGMENT
??_C@_0BD@OMHH@sk_leech_dmg_bite1?$AA@ DB 'sk_leech_dmg_bite1', 00H ; `string'
CONST	ENDS
;	COMDAT ??_C@_0BD@BDMO@sk_leech_dmg_bite2?$AA@
CONST	SEGMENT
??_C@_0BD@BDMO@sk_leech_dmg_bite2?$AA@ DB 'sk_leech_dmg_bite2', 00H ; `string'
CONST	ENDS
;	COMDAT ??_C@_0BD@LJFJ@sk_leech_dmg_bite3?$AA@
CONST	SEGMENT
??_C@_0BD@LJFJ@sk_leech_dmg_bite3?$AA@ DB 'sk_leech_dmg_bite3', 00H ; `string'
CONST	ENDS
;	COMDAT ??_C@_0BG@OOEF@sk_controller_health1?$AA@
CONST	SEGMENT
??_C@_0BG@OOEF@sk_controller_health1?$AA@ DB 'sk_controller_health1', 00H ; `string'
CONST	ENDS
;	COMDAT ??_C@_0BG@BBPM@sk_controller_health2?$AA@
CONST	SEGMENT
??_C@_0BG@BBPM@sk_controller_health2?$AA@ DB 'sk_controller_health2', 00H ; `string'
CONST	ENDS
;	COMDAT ??_C@_0BG@LLGL@sk_controller_health3?$AA@
CONST	SEGMENT
??_C@_0BG@LLGL@sk_controller_health3?$AA@ DB 'sk_controller_health3', 00H ; `string'
CONST	ENDS
;	COMDAT ??_C@_0BG@CDHG@sk_controller_dmgzap1?$AA@
CONST	SEGMENT
??_C@_0BG@CDHG@sk_controller_dmgzap1?$AA@ DB 'sk_controller_dmgzap1', 00H ; `string'
CONST	ENDS
;	COMDAT ??_C@_0BG@NMMP@sk_controller_dmgzap2?$AA@
CONST	SEGMENT
??_C@_0BG@NMMP@sk_controller_dmgzap2?$AA@ DB 'sk_controller_dmgzap2', 00H ; `string'
CONST	ENDS
;	COMDAT ??_C@_0BG@HGFI@sk_controller_dmgzap3?$AA@
CONST	SEGMENT
??_C@_0BG@HGFI@sk_controller_dmgzap3?$AA@ DB 'sk_controller_dmgzap3', 00H ; `string'
CONST	ENDS
;	COMDAT ??_C@_0BJ@NPJL@sk_controller_speedball1?$AA@
CONST	SEGMENT
??_C@_0BJ@NPJL@sk_controller_speedball1?$AA@ DB 'sk_controller_speedball1'
	DB	00H						; `string'
CONST	ENDS
;	COMDAT ??_C@_0BJ@CACC@sk_controller_speedball2?$AA@
CONST	SEGMENT
??_C@_0BJ@CACC@sk_controller_speedball2?$AA@ DB 'sk_controller_speedball2'
	DB	00H						; `string'
CONST	ENDS
;	COMDAT ??_C@_0BJ@IKLF@sk_controller_speedball3?$AA@
CONST	SEGMENT
??_C@_0BJ@IKLF@sk_controller_speedball3?$AA@ DB 'sk_controller_speedball3'
	DB	00H						; `string'
CONST	ENDS
;	COMDAT ??_C@_0BH@HGIG@sk_controller_dmgball1?$AA@
CONST	SEGMENT
??_C@_0BH@HGIG@sk_controller_dmgball1?$AA@ DB 'sk_controller_dmgball1', 00H ; `string'
CONST	ENDS
;	COMDAT ??_C@_0BH@IJDP@sk_controller_dmgball2?$AA@
CONST	SEGMENT
??_C@_0BH@IJDP@sk_controller_dmgball2?$AA@ DB 'sk_controller_dmgball2', 00H ; `string'
CONST	ENDS
;	COMDAT ??_C@_0BH@CDKI@sk_controller_dmgball3?$AA@
CONST	SEGMENT
??_C@_0BH@CDKI@sk_controller_dmgball3?$AA@ DB 'sk_controller_dmgball3', 00H ; `string'
CONST	ENDS
;	COMDAT ??_C@_0BF@DBKC@sk_nihilanth_health1?$AA@
CONST	SEGMENT
??_C@_0BF@DBKC@sk_nihilanth_health1?$AA@ DB 'sk_nihilanth_health1', 00H ; `string'
CONST	ENDS
;	COMDAT ??_C@_0BF@MOBL@sk_nihilanth_health2?$AA@
CONST	SEGMENT
??_C@_0BF@MOBL@sk_nihilanth_health2?$AA@ DB 'sk_nihilanth_health2', 00H ; `string'
CONST	ENDS
;	COMDAT ??_C@_0BF@GEIM@sk_nihilanth_health3?$AA@
CONST	SEGMENT
??_C@_0BF@GEIM@sk_nihilanth_health3?$AA@ DB 'sk_nihilanth_health3', 00H ; `string'
CONST	ENDS
;	COMDAT ??_C@_0BC@DDOH@sk_nihilanth_zap1?$AA@
CONST	SEGMENT
??_C@_0BC@DDOH@sk_nihilanth_zap1?$AA@ DB 'sk_nihilanth_zap1', 00H ; `string'
CONST	ENDS
;	COMDAT ??_C@_0BC@MMFO@sk_nihilanth_zap2?$AA@
CONST	SEGMENT
??_C@_0BC@MMFO@sk_nihilanth_zap2?$AA@ DB 'sk_nihilanth_zap2', 00H ; `string'
CONST	ENDS
;	COMDAT ??_C@_0BC@GGMJ@sk_nihilanth_zap3?$AA@
CONST	SEGMENT
??_C@_0BC@GGMJ@sk_nihilanth_zap3?$AA@ DB 'sk_nihilanth_zap3', 00H ; `string'
CONST	ENDS
;	COMDAT ??_C@_0BF@FJNI@sk_scientist_health1?$AA@
CONST	SEGMENT
??_C@_0BF@FJNI@sk_scientist_health1?$AA@ DB 'sk_scientist_health1', 00H ; `string'
CONST	ENDS
;	COMDAT ??_C@_0BF@KGGB@sk_scientist_health2?$AA@
CONST	SEGMENT
??_C@_0BF@KGGB@sk_scientist_health2?$AA@ DB 'sk_scientist_health2', 00H ; `string'
CONST	ENDS
;	COMDAT ??_C@_0BF@MPG@sk_scientist_health3?$AA@
CONST	SEGMENT
??_C@_0BF@MPG@sk_scientist_health3?$AA@ DB 'sk_scientist_health3', 00H ; `string'
CONST	ENDS
;	COMDAT ??_C@_0BB@DEIC@sk_snark_health1?$AA@
CONST	SEGMENT
??_C@_0BB@DEIC@sk_snark_health1?$AA@ DB 'sk_snark_health1', 00H ; `string'
CONST	ENDS
;	COMDAT ??_C@_0BB@MLDL@sk_snark_health2?$AA@
CONST	SEGMENT
??_C@_0BB@MLDL@sk_snark_health2?$AA@ DB 'sk_snark_health2', 00H ; `string'
CONST	ENDS
;	COMDAT ??_C@_0BB@GBKM@sk_snark_health3?$AA@
CONST	SEGMENT
??_C@_0BB@GBKM@sk_snark_health3?$AA@ DB 'sk_snark_health3', 00H ; `string'
CONST	ENDS
;	COMDAT ??_C@_0BD@LFAM@sk_snark_dmg_bite1?$AA@
CONST	SEGMENT
??_C@_0BD@LFAM@sk_snark_dmg_bite1?$AA@ DB 'sk_snark_dmg_bite1', 00H ; `string'
CONST	ENDS
;	COMDAT ??_C@_0BD@EKLF@sk_snark_dmg_bite2?$AA@
CONST	SEGMENT
??_C@_0BD@EKLF@sk_snark_dmg_bite2?$AA@ DB 'sk_snark_dmg_bite2', 00H ; `string'
CONST	ENDS
;	COMDAT ??_C@_0BD@OACC@sk_snark_dmg_bite3?$AA@
CONST	SEGMENT
??_C@_0BD@OACC@sk_snark_dmg_bite3?$AA@ DB 'sk_snark_dmg_bite3', 00H ; `string'
CONST	ENDS
;	COMDAT ??_C@_0BC@ECG@sk_snark_dmg_pop1?$AA@
CONST	SEGMENT
??_C@_0BC@ECG@sk_snark_dmg_pop1?$AA@ DB 'sk_snark_dmg_pop1', 00H ; `string'
CONST	ENDS
;	COMDAT ??_C@_0BC@PLJP@sk_snark_dmg_pop2?$AA@
CONST	SEGMENT
??_C@_0BC@PLJP@sk_snark_dmg_pop2?$AA@ DB 'sk_snark_dmg_pop2', 00H ; `string'
CONST	ENDS
;	COMDAT ??_C@_0BC@FBAI@sk_snark_dmg_pop3?$AA@
CONST	SEGMENT
??_C@_0BC@FBAI@sk_snark_dmg_pop3?$AA@ DB 'sk_snark_dmg_pop3', 00H ; `string'
CONST	ENDS
;	COMDAT ??_C@_0BC@HHBE@sk_zombie_health1?$AA@
CONST	SEGMENT
??_C@_0BC@HHBE@sk_zombie_health1?$AA@ DB 'sk_zombie_health1', 00H ; `string'
CONST	ENDS
;	COMDAT ??_C@_0BC@IIKN@sk_zombie_health2?$AA@
CONST	SEGMENT
??_C@_0BC@IIKN@sk_zombie_health2?$AA@ DB 'sk_zombie_health2', 00H ; `string'
CONST	ENDS
;	COMDAT ??_C@_0BC@CCDK@sk_zombie_health3?$AA@
CONST	SEGMENT
??_C@_0BC@CCDK@sk_zombie_health3?$AA@ DB 'sk_zombie_health3', 00H ; `string'
CONST	ENDS
;	COMDAT ??_C@_0BJ@NMBI@sk_zombie_dmg_one_slash1?$AA@
CONST	SEGMENT
??_C@_0BJ@NMBI@sk_zombie_dmg_one_slash1?$AA@ DB 'sk_zombie_dmg_one_slash1'
	DB	00H						; `string'
CONST	ENDS
;	COMDAT ??_C@_0BJ@CDKB@sk_zombie_dmg_one_slash2?$AA@
CONST	SEGMENT
??_C@_0BJ@CDKB@sk_zombie_dmg_one_slash2?$AA@ DB 'sk_zombie_dmg_one_slash2'
	DB	00H						; `string'
CONST	ENDS
;	COMDAT ??_C@_0BJ@IJDG@sk_zombie_dmg_one_slash3?$AA@
CONST	SEGMENT
??_C@_0BJ@IJDG@sk_zombie_dmg_one_slash3?$AA@ DB 'sk_zombie_dmg_one_slash3'
	DB	00H						; `string'
CONST	ENDS
;	COMDAT ??_C@_0BK@DOMK@sk_zombie_dmg_both_slash1?$AA@
CONST	SEGMENT
??_C@_0BK@DOMK@sk_zombie_dmg_both_slash1?$AA@ DB 'sk_zombie_dmg_both_slas'
	DB	'h1', 00H					; `string'
CONST	ENDS
;	COMDAT ??_C@_0BK@MBHD@sk_zombie_dmg_both_slash2?$AA@
CONST	SEGMENT
??_C@_0BK@MBHD@sk_zombie_dmg_both_slash2?$AA@ DB 'sk_zombie_dmg_both_slas'
	DB	'h2', 00H					; `string'
CONST	ENDS
;	COMDAT ??_C@_0BK@GLOE@sk_zombie_dmg_both_slash3?$AA@
CONST	SEGMENT
??_C@_0BK@GLOE@sk_zombie_dmg_both_slash3?$AA@ DB 'sk_zombie_dmg_both_slas'
	DB	'h3', 00H					; `string'
CONST	ENDS
;	COMDAT ??_C@_0BC@DEFG@sk_turret_health1?$AA@
CONST	SEGMENT
??_C@_0BC@DEFG@sk_turret_health1?$AA@ DB 'sk_turret_health1', 00H ; `string'
CONST	ENDS
;	COMDAT ??_C@_0BC@MLOP@sk_turret_health2?$AA@
CONST	SEGMENT
??_C@_0BC@MLOP@sk_turret_health2?$AA@ DB 'sk_turret_health2', 00H ; `string'
CONST	ENDS
;	COMDAT ??_C@_0BC@GBHI@sk_turret_health3?$AA@
CONST	SEGMENT
??_C@_0BC@GBHI@sk_turret_health3?$AA@ DB 'sk_turret_health3', 00H ; `string'
CONST	ENDS
;	COMDAT ??_C@_0BG@NPCC@sk_miniturret_health1?$AA@
CONST	SEGMENT
??_C@_0BG@NPCC@sk_miniturret_health1?$AA@ DB 'sk_miniturret_health1', 00H ; `string'
CONST	ENDS
;	COMDAT ??_C@_0BG@CAJL@sk_miniturret_health2?$AA@
CONST	SEGMENT
??_C@_0BG@CAJL@sk_miniturret_health2?$AA@ DB 'sk_miniturret_health2', 00H ; `string'
CONST	ENDS
;	COMDAT ??_C@_0BG@IKAM@sk_miniturret_health3?$AA@
CONST	SEGMENT
??_C@_0BG@IKAM@sk_miniturret_health3?$AA@ DB 'sk_miniturret_health3', 00H ; `string'
CONST	ENDS
;	COMDAT ??_C@_0BC@LAAK@sk_sentry_health1?$AA@
CONST	SEGMENT
??_C@_0BC@LAAK@sk_sentry_health1?$AA@ DB 'sk_sentry_health1', 00H ; `string'
CONST	ENDS
;	COMDAT ??_C@_0BC@EPLD@sk_sentry_health2?$AA@
CONST	SEGMENT
??_C@_0BC@EPLD@sk_sentry_health2?$AA@ DB 'sk_sentry_health2', 00H ; `string'
CONST	ENDS
;	COMDAT ??_C@_0BC@OFCE@sk_sentry_health3?$AA@
CONST	SEGMENT
??_C@_0BC@OFCE@sk_sentry_health3?$AA@ DB 'sk_sentry_health3', 00H ; `string'
CONST	ENDS
;	COMDAT ??_C@_0BA@KDPF@sk_plr_crowbar1?$AA@
CONST	SEGMENT
??_C@_0BA@KDPF@sk_plr_crowbar1?$AA@ DB 'sk_plr_crowbar1', 00H ; `string'
CONST	ENDS
;	COMDAT ??_C@_0BA@FMEM@sk_plr_crowbar2?$AA@
CONST	SEGMENT
??_C@_0BA@FMEM@sk_plr_crowbar2?$AA@ DB 'sk_plr_crowbar2', 00H ; `string'
CONST	ENDS
;	COMDAT ??_C@_0BA@PGNL@sk_plr_crowbar3?$AA@
CONST	SEGMENT
??_C@_0BA@PGNL@sk_plr_crowbar3?$AA@ DB 'sk_plr_crowbar3', 00H ; `string'
CONST	ENDS
;	COMDAT ??_C@_0BF@MBHM@sk_plr_crowbar_stab1?$AA@
CONST	SEGMENT
??_C@_0BF@MBHM@sk_plr_crowbar_stab1?$AA@ DB 'sk_plr_crowbar_stab1', 00H ; `string'
CONST	ENDS
;	COMDAT ??_C@_0BF@DOMF@sk_plr_crowbar_stab2?$AA@
CONST	SEGMENT
??_C@_0BF@DOMF@sk_plr_crowbar_stab2?$AA@ DB 'sk_plr_crowbar_stab2', 00H ; `string'
CONST	ENDS
;	COMDAT ??_C@_0BF@JEFC@sk_plr_crowbar_stab3?$AA@
CONST	SEGMENT
??_C@_0BF@JEFC@sk_plr_crowbar_stab3?$AA@ DB 'sk_plr_crowbar_stab3', 00H ; `string'
CONST	ENDS
;	COMDAT ??_C@_0M@FFDJ@sk_plr_axe1?$AA@
CONST	SEGMENT
??_C@_0M@FFDJ@sk_plr_axe1?$AA@ DB 'sk_plr_axe1', 00H	; `string'
CONST	ENDS
;	COMDAT ??_C@_0M@KKIA@sk_plr_axe2?$AA@
CONST	SEGMENT
??_C@_0M@KKIA@sk_plr_axe2?$AA@ DB 'sk_plr_axe2', 00H	; `string'
CONST	ENDS
;	COMDAT ??_C@_0M@BH@sk_plr_axe3?$AA@
CONST	SEGMENT
??_C@_0M@BH@sk_plr_axe3?$AA@ DB 'sk_plr_axe3', 00H	; `string'
CONST	ENDS
;	COMDAT ??_C@_0BA@NNMF@sk_plr_axe_sec1?$AA@
CONST	SEGMENT
??_C@_0BA@NNMF@sk_plr_axe_sec1?$AA@ DB 'sk_plr_axe_sec1', 00H ; `string'
CONST	ENDS
;	COMDAT ??_C@_0BA@CCHM@sk_plr_axe_sec2?$AA@
CONST	SEGMENT
??_C@_0BA@CCHM@sk_plr_axe_sec2?$AA@ DB 'sk_plr_axe_sec2', 00H ; `string'
CONST	ENDS
;	COMDAT ??_C@_0BA@IIOL@sk_plr_axe_sec3?$AA@
CONST	SEGMENT
??_C@_0BA@IIOL@sk_plr_axe_sec3?$AA@ DB 'sk_plr_axe_sec3', 00H ; `string'
CONST	ENDS
;	COMDAT ??_C@_0BB@BAEG@sk_plr_chainsaw1?$AA@
CONST	SEGMENT
??_C@_0BB@BAEG@sk_plr_chainsaw1?$AA@ DB 'sk_plr_chainsaw1', 00H ; `string'
CONST	ENDS
;	COMDAT ??_C@_0BB@OPPP@sk_plr_chainsaw2?$AA@
CONST	SEGMENT
??_C@_0BB@OPPP@sk_plr_chainsaw2?$AA@ DB 'sk_plr_chainsaw2', 00H ; `string'
CONST	ENDS
;	COMDAT ??_C@_0BB@EFGI@sk_plr_chainsaw3?$AA@
CONST	SEGMENT
??_C@_0BB@EFGI@sk_plr_chainsaw3?$AA@ DB 'sk_plr_chainsaw3', 00H ; `string'
CONST	ENDS
;	COMDAT ??_C@_0BF@IJNP@sk_plr_chainsaw_sec1?$AA@
CONST	SEGMENT
??_C@_0BF@IJNP@sk_plr_chainsaw_sec1?$AA@ DB 'sk_plr_chainsaw_sec1', 00H ; `string'
CONST	ENDS
;	COMDAT ??_C@_0BF@HGGG@sk_plr_chainsaw_sec2?$AA@
CONST	SEGMENT
??_C@_0BF@HGGG@sk_plr_chainsaw_sec2?$AA@ DB 'sk_plr_chainsaw_sec2', 00H ; `string'
CONST	ENDS
;	COMDAT ??_C@_0BF@NMPB@sk_plr_chainsaw_sec3?$AA@
CONST	SEGMENT
??_C@_0BF@NMPB@sk_plr_chainsaw_sec3?$AA@ DB 'sk_plr_chainsaw_sec3', 00H ; `string'
CONST	ENDS
;	COMDAT ??_C@_0BD@IFOA@sk_plr_9mm_bullet1?$AA@
CONST	SEGMENT
??_C@_0BD@IFOA@sk_plr_9mm_bullet1?$AA@ DB 'sk_plr_9mm_bullet1', 00H ; `string'
CONST	ENDS
;	COMDAT ??_C@_0BD@HKFJ@sk_plr_9mm_bullet2?$AA@
CONST	SEGMENT
??_C@_0BD@HKFJ@sk_plr_9mm_bullet2?$AA@ DB 'sk_plr_9mm_bullet2', 00H ; `string'
CONST	ENDS
;	COMDAT ??_C@_0BD@NAMO@sk_plr_9mm_bullet3?$AA@
CONST	SEGMENT
??_C@_0BD@NAMO@sk_plr_9mm_bullet3?$AA@ DB 'sk_plr_9mm_bullet3', 00H ; `string'
CONST	ENDS
;	COMDAT ??_C@_0BD@FGHN@sk_plr_357_bullet1?$AA@
CONST	SEGMENT
??_C@_0BD@FGHN@sk_plr_357_bullet1?$AA@ DB 'sk_plr_357_bullet1', 00H ; `string'
CONST	ENDS
;	COMDAT ??_C@_0BD@KJME@sk_plr_357_bullet2?$AA@
CONST	SEGMENT
??_C@_0BD@KJME@sk_plr_357_bullet2?$AA@ DB 'sk_plr_357_bullet2', 00H ; `string'
CONST	ENDS
;	COMDAT ??_C@_0BD@DFD@sk_plr_357_bullet3?$AA@
CONST	SEGMENT
??_C@_0BD@DFD@sk_plr_357_bullet3?$AA@ DB 'sk_plr_357_bullet3', 00H ; `string'
CONST	ENDS
;	COMDAT ??_C@_0BF@GNPC@sk_plr_9mmAR_bullet1?$AA@
CONST	SEGMENT
??_C@_0BF@GNPC@sk_plr_9mmAR_bullet1?$AA@ DB 'sk_plr_9mmAR_bullet1', 00H ; `string'
CONST	ENDS
;	COMDAT ??_C@_0BF@JCEL@sk_plr_9mmAR_bullet2?$AA@
CONST	SEGMENT
??_C@_0BF@JCEL@sk_plr_9mmAR_bullet2?$AA@ DB 'sk_plr_9mmAR_bullet2', 00H ; `string'
CONST	ENDS
;	COMDAT ??_C@_0BF@DINM@sk_plr_9mmAR_bullet3?$AA@
CONST	SEGMENT
??_C@_0BF@DINM@sk_plr_9mmAR_bullet3?$AA@ DB 'sk_plr_9mmAR_bullet3', 00H ; `string'
CONST	ENDS
;	COMDAT ??_C@_0BG@GCHJ@sk_plr_9mmAR_grenade1?$AA@
CONST	SEGMENT
??_C@_0BG@GCHJ@sk_plr_9mmAR_grenade1?$AA@ DB 'sk_plr_9mmAR_grenade1', 00H ; `string'
CONST	ENDS
;	COMDAT ??_C@_0BG@JNMA@sk_plr_9mmAR_grenade2?$AA@
CONST	SEGMENT
??_C@_0BG@JNMA@sk_plr_9mmAR_grenade2?$AA@ DB 'sk_plr_9mmAR_grenade2', 00H ; `string'
CONST	ENDS
;	COMDAT ??_C@_0BG@DHFH@sk_plr_9mmAR_grenade3?$AA@
CONST	SEGMENT
??_C@_0BG@DHFH@sk_plr_9mmAR_grenade3?$AA@ DB 'sk_plr_9mmAR_grenade3', 00H ; `string'
CONST	ENDS
;	COMDAT ??_C@_0BB@HLNJ@sk_plr_buckshot1?$AA@
CONST	SEGMENT
??_C@_0BB@HLNJ@sk_plr_buckshot1?$AA@ DB 'sk_plr_buckshot1', 00H ; `string'
CONST	ENDS
;	COMDAT ??_C@_0BB@IEGA@sk_plr_buckshot2?$AA@
CONST	SEGMENT
??_C@_0BB@IEGA@sk_plr_buckshot2?$AA@ DB 'sk_plr_buckshot2', 00H ; `string'
CONST	ENDS
;	COMDAT ??_C@_0BB@COPH@sk_plr_buckshot3?$AA@
CONST	SEGMENT
??_C@_0BB@COPH@sk_plr_buckshot3?$AA@ DB 'sk_plr_buckshot3', 00H ; `string'
CONST	ENDS
;	COMDAT ??_C@_0BJ@CKHD@sk_plr_xbow_bolt_client1?$AA@
CONST	SEGMENT
??_C@_0BJ@CKHD@sk_plr_xbow_bolt_client1?$AA@ DB 'sk_plr_xbow_bolt_client1'
	DB	00H						; `string'
CONST	ENDS
;	COMDAT ??_C@_0BJ@NFMK@sk_plr_xbow_bolt_client2?$AA@
CONST	SEGMENT
??_C@_0BJ@NFMK@sk_plr_xbow_bolt_client2?$AA@ DB 'sk_plr_xbow_bolt_client2'
	DB	00H						; `string'
CONST	ENDS
;	COMDAT ??_C@_0BJ@HPFN@sk_plr_xbow_bolt_client3?$AA@
CONST	SEGMENT
??_C@_0BJ@HPFN@sk_plr_xbow_bolt_client3?$AA@ DB 'sk_plr_xbow_bolt_client3'
	DB	00H						; `string'
CONST	ENDS
;	COMDAT ??_C@_0BK@NMNJ@sk_plr_xbow_bolt_monster1?$AA@
CONST	SEGMENT
??_C@_0BK@NMNJ@sk_plr_xbow_bolt_monster1?$AA@ DB 'sk_plr_xbow_bolt_monste'
	DB	'r1', 00H					; `string'
CONST	ENDS
;	COMDAT ??_C@_0BK@CDGA@sk_plr_xbow_bolt_monster2?$AA@
CONST	SEGMENT
??_C@_0BK@CDGA@sk_plr_xbow_bolt_monster2?$AA@ DB 'sk_plr_xbow_bolt_monste'
	DB	'r2', 00H					; `string'
CONST	ENDS
;	COMDAT ??_C@_0BK@IJPH@sk_plr_xbow_bolt_monster3?$AA@
CONST	SEGMENT
??_C@_0BK@IJPH@sk_plr_xbow_bolt_monster3?$AA@ DB 'sk_plr_xbow_bolt_monste'
	DB	'r3', 00H					; `string'
CONST	ENDS
;	COMDAT ??_C@_0M@NCAO@sk_plr_rpg1?$AA@
CONST	SEGMENT
??_C@_0M@NCAO@sk_plr_rpg1?$AA@ DB 'sk_plr_rpg1', 00H	; `string'
CONST	ENDS
;	COMDAT ??_C@_0M@CNLH@sk_plr_rpg2?$AA@
CONST	SEGMENT
??_C@_0M@CNLH@sk_plr_rpg2?$AA@ DB 'sk_plr_rpg2', 00H	; `string'
CONST	ENDS
;	COMDAT ??_C@_0M@IHCA@sk_plr_rpg3?$AA@
CONST	SEGMENT
??_C@_0M@IHCA@sk_plr_rpg3?$AA@ DB 'sk_plr_rpg3', 00H	; `string'
CONST	ENDS
;	COMDAT ??_C@_0O@HDAN@sk_plr_gauss1?$AA@
CONST	SEGMENT
??_C@_0O@HDAN@sk_plr_gauss1?$AA@ DB 'sk_plr_gauss1', 00H ; `string'
CONST	ENDS
;	COMDAT ??_C@_0O@IMLE@sk_plr_gauss2?$AA@
CONST	SEGMENT
??_C@_0O@IMLE@sk_plr_gauss2?$AA@ DB 'sk_plr_gauss2', 00H ; `string'
CONST	ENDS
;	COMDAT ??_C@_0O@CGCD@sk_plr_gauss3?$AA@
CONST	SEGMENT
??_C@_0O@CGCD@sk_plr_gauss3?$AA@ DB 'sk_plr_gauss3', 00H ; `string'
CONST	ENDS
;	COMDAT ??_C@_0BE@FFGP@sk_plr_egon_narrow1?$AA@
CONST	SEGMENT
??_C@_0BE@FFGP@sk_plr_egon_narrow1?$AA@ DB 'sk_plr_egon_narrow1', 00H ; `string'
CONST	ENDS
;	COMDAT ??_C@_0BE@KKNG@sk_plr_egon_narrow2?$AA@
CONST	SEGMENT
??_C@_0BE@KKNG@sk_plr_egon_narrow2?$AA@ DB 'sk_plr_egon_narrow2', 00H ; `string'
CONST	ENDS
;	COMDAT ??_C@_0BE@EB@sk_plr_egon_narrow3?$AA@
CONST	SEGMENT
??_C@_0BE@EB@sk_plr_egon_narrow3?$AA@ DB 'sk_plr_egon_narrow3', 00H ; `string'
CONST	ENDS
;	COMDAT ??_C@_0BC@PMAM@sk_plr_egon_wide1?$AA@
CONST	SEGMENT
??_C@_0BC@PMAM@sk_plr_egon_wide1?$AA@ DB 'sk_plr_egon_wide1', 00H ; `string'
CONST	ENDS
;	COMDAT ??_C@_0BC@DLF@sk_plr_egon_wide2?$AA@
CONST	SEGMENT
??_C@_0BC@DLF@sk_plr_egon_wide2?$AA@ DB 'sk_plr_egon_wide2', 00H ; `string'
CONST	ENDS
;	COMDAT ??_C@_0BC@KJCC@sk_plr_egon_wide3?$AA@
CONST	SEGMENT
??_C@_0BC@KJCC@sk_plr_egon_wide3?$AA@ DB 'sk_plr_egon_wide3', 00H ; `string'
CONST	ENDS
;	COMDAT ??_C@_0BF@IGDM@sk_plr_hand_grenade1?$AA@
CONST	SEGMENT
??_C@_0BF@IGDM@sk_plr_hand_grenade1?$AA@ DB 'sk_plr_hand_grenade1', 00H ; `string'
CONST	ENDS
;	COMDAT ??_C@_0BF@HJIF@sk_plr_hand_grenade2?$AA@
CONST	SEGMENT
??_C@_0BF@HJIF@sk_plr_hand_grenade2?$AA@ DB 'sk_plr_hand_grenade2', 00H ; `string'
CONST	ENDS
;	COMDAT ??_C@_0BF@NDBC@sk_plr_hand_grenade3?$AA@
CONST	SEGMENT
??_C@_0BF@NDBC@sk_plr_hand_grenade3?$AA@ DB 'sk_plr_hand_grenade3', 00H ; `string'
CONST	ENDS
;	COMDAT ??_C@_0BA@PALH@sk_plr_satchel1?$AA@
CONST	SEGMENT
??_C@_0BA@PALH@sk_plr_satchel1?$AA@ DB 'sk_plr_satchel1', 00H ; `string'
CONST	ENDS
;	COMDAT ??_C@_0BA@PAO@sk_plr_satchel2?$AA@
CONST	SEGMENT
??_C@_0BA@PAO@sk_plr_satchel2?$AA@ DB 'sk_plr_satchel2', 00H ; `string'
CONST	ENDS
;	COMDAT ??_C@_0BA@KFJJ@sk_plr_satchel3?$AA@
CONST	SEGMENT
??_C@_0BA@KFJJ@sk_plr_satchel3?$AA@ DB 'sk_plr_satchel3', 00H ; `string'
CONST	ENDS
;	COMDAT ??_C@_0BB@ICKA@sk_plr_tripmine1?$AA@
CONST	SEGMENT
??_C@_0BB@ICKA@sk_plr_tripmine1?$AA@ DB 'sk_plr_tripmine1', 00H ; `string'
CONST	ENDS
;	COMDAT ??_C@_0BB@HNBJ@sk_plr_tripmine2?$AA@
CONST	SEGMENT
??_C@_0BB@HNBJ@sk_plr_tripmine2?$AA@ DB 'sk_plr_tripmine2', 00H ; `string'
CONST	ENDS
;	COMDAT ??_C@_0BB@NHIO@sk_plr_tripmine3?$AA@
CONST	SEGMENT
??_C@_0BB@NHIO@sk_plr_tripmine3?$AA@ DB 'sk_plr_tripmine3', 00H ; `string'
CONST	ENDS
;	COMDAT ??_C@_0BA@KKKF@sk_12mm_bullet1?$AA@
CONST	SEGMENT
??_C@_0BA@KKKF@sk_12mm_bullet1?$AA@ DB 'sk_12mm_bullet1', 00H ; `string'
CONST	ENDS
;	COMDAT ??_C@_0BA@FFBM@sk_12mm_bullet2?$AA@
CONST	SEGMENT
??_C@_0BA@FFBM@sk_12mm_bullet2?$AA@ DB 'sk_12mm_bullet2', 00H ; `string'
CONST	ENDS
;	COMDAT ??_C@_0BA@PPIL@sk_12mm_bullet3?$AA@
CONST	SEGMENT
??_C@_0BA@PPIL@sk_12mm_bullet3?$AA@ DB 'sk_12mm_bullet3', 00H ; `string'
CONST	ENDS
;	COMDAT ??_C@_0BB@IDKC@sk_9mmAR_bullet1?$AA@
CONST	SEGMENT
??_C@_0BB@IDKC@sk_9mmAR_bullet1?$AA@ DB 'sk_9mmAR_bullet1', 00H ; `string'
CONST	ENDS
;	COMDAT ??_C@_0BB@HMBL@sk_9mmAR_bullet2?$AA@
CONST	SEGMENT
??_C@_0BB@HMBL@sk_9mmAR_bullet2?$AA@ DB 'sk_9mmAR_bullet2', 00H ; `string'
CONST	ENDS
;	COMDAT ??_C@_0BB@NGIM@sk_9mmAR_bullet3?$AA@
CONST	SEGMENT
??_C@_0BB@NGIM@sk_9mmAR_bullet3?$AA@ DB 'sk_9mmAR_bullet3', 00H ; `string'
CONST	ENDS
;	COMDAT ??_C@_0P@ONCA@sk_9mm_bullet1?$AA@
CONST	SEGMENT
??_C@_0P@ONCA@sk_9mm_bullet1?$AA@ DB 'sk_9mm_bullet1', 00H ; `string'
CONST	ENDS
;	COMDAT ??_C@_0P@BCJJ@sk_9mm_bullet2?$AA@
CONST	SEGMENT
??_C@_0P@BCJJ@sk_9mm_bullet2?$AA@ DB 'sk_9mm_bullet2', 00H ; `string'
CONST	ENDS
;	COMDAT ??_C@_0P@LIAO@sk_9mm_bullet3?$AA@
CONST	SEGMENT
??_C@_0P@LIAO@sk_9mm_bullet3?$AA@ DB 'sk_9mm_bullet3', 00H ; `string'
CONST	ENDS
;	COMDAT ??_C@_0P@PEKC@sk_hornet_dmg1?$AA@
CONST	SEGMENT
??_C@_0P@PEKC@sk_hornet_dmg1?$AA@ DB 'sk_hornet_dmg1', 00H ; `string'
CONST	ENDS
;	COMDAT ??_C@_0P@LBL@sk_hornet_dmg2?$AA@
CONST	SEGMENT
??_C@_0P@LBL@sk_hornet_dmg2?$AA@ DB 'sk_hornet_dmg2', 00H ; `string'
CONST	ENDS
;	COMDAT ??_C@_0P@KBIM@sk_hornet_dmg3?$AA@
CONST	SEGMENT
??_C@_0P@KBIM@sk_hornet_dmg3?$AA@ DB 'sk_hornet_dmg3', 00H ; `string'
CONST	ENDS
;	COMDAT ??_C@_0BA@MEMG@sk_suitcharger1?$AA@
CONST	SEGMENT
??_C@_0BA@MEMG@sk_suitcharger1?$AA@ DB 'sk_suitcharger1', 00H ; `string'
CONST	ENDS
;	COMDAT ??_C@_0BA@DLHP@sk_suitcharger2?$AA@
CONST	SEGMENT
??_C@_0BA@DLHP@sk_suitcharger2?$AA@ DB 'sk_suitcharger2', 00H ; `string'
CONST	ENDS
;	COMDAT ??_C@_0BA@JBOI@sk_suitcharger3?$AA@
CONST	SEGMENT
??_C@_0BA@JBOI@sk_suitcharger3?$AA@ DB 'sk_suitcharger3', 00H ; `string'
CONST	ENDS
;	COMDAT ??_C@_0M@BLEL@sk_battery1?$AA@
CONST	SEGMENT
??_C@_0M@BLEL@sk_battery1?$AA@ DB 'sk_battery1', 00H	; `string'
CONST	ENDS
;	COMDAT ??_C@_0M@OEPC@sk_battery2?$AA@
CONST	SEGMENT
??_C@_0M@OEPC@sk_battery2?$AA@ DB 'sk_battery2', 00H	; `string'
CONST	ENDS
;	COMDAT ??_C@_0M@EOGF@sk_battery3?$AA@
CONST	SEGMENT
??_C@_0M@EOGF@sk_battery3?$AA@ DB 'sk_battery3', 00H	; `string'
CONST	ENDS
;	COMDAT ??_C@_0BC@JFJN@sk_healthcharger1?$AA@
CONST	SEGMENT
??_C@_0BC@JFJN@sk_healthcharger1?$AA@ DB 'sk_healthcharger1', 00H ; `string'
CONST	ENDS
;	COMDAT ??_C@_0BC@GKCE@sk_healthcharger2?$AA@
CONST	SEGMENT
??_C@_0BC@GKCE@sk_healthcharger2?$AA@ DB 'sk_healthcharger2', 00H ; `string'
CONST	ENDS
;	COMDAT ??_C@_0BC@MALD@sk_healthcharger3?$AA@
CONST	SEGMENT
??_C@_0BC@MALD@sk_healthcharger3?$AA@ DB 'sk_healthcharger3', 00H ; `string'
CONST	ENDS
;	COMDAT ??_C@_0O@KCOP@sk_healthkit1?$AA@
CONST	SEGMENT
??_C@_0O@KCOP@sk_healthkit1?$AA@ DB 'sk_healthkit1', 00H ; `string'
CONST	ENDS
;	COMDAT ??_C@_0O@FNFG@sk_healthkit2?$AA@
CONST	SEGMENT
??_C@_0O@FNFG@sk_healthkit2?$AA@ DB 'sk_healthkit2', 00H ; `string'
CONST	ENDS
;	COMDAT ??_C@_0O@PHMB@sk_healthkit3?$AA@
CONST	SEGMENT
??_C@_0O@PHMB@sk_healthkit3?$AA@ DB 'sk_healthkit3', 00H ; `string'
CONST	ENDS
;	COMDAT ??_C@_0BD@MCLL@sk_scientist_heal1?$AA@
CONST	SEGMENT
??_C@_0BD@MCLL@sk_scientist_heal1?$AA@ DB 'sk_scientist_heal1', 00H ; `string'
CONST	ENDS
;	COMDAT ??_C@_0BD@DNAC@sk_scientist_heal2?$AA@
CONST	SEGMENT
??_C@_0BD@DNAC@sk_scientist_heal2?$AA@ DB 'sk_scientist_heal2', 00H ; `string'
CONST	ENDS
;	COMDAT ??_C@_0BD@JHJF@sk_scientist_heal3?$AA@
CONST	SEGMENT
??_C@_0BD@JHJF@sk_scientist_heal3?$AA@ DB 'sk_scientist_heal3', 00H ; `string'
CONST	ENDS
;	COMDAT ??_C@_0BB@JAAB@sk_monster_head1?$AA@
CONST	SEGMENT
??_C@_0BB@JAAB@sk_monster_head1?$AA@ DB 'sk_monster_head1', 00H ; `string'
CONST	ENDS
;	COMDAT ??_C@_01KOLO@2?$AA@
CONST	SEGMENT
??_C@_01KOLO@2?$AA@ DB '2', 00H				; `string'
CONST	ENDS
;	COMDAT ??_C@_0BB@GPLI@sk_monster_head2?$AA@
CONST	SEGMENT
??_C@_0BB@GPLI@sk_monster_head2?$AA@ DB 'sk_monster_head2', 00H ; `string'
CONST	ENDS
;	COMDAT ??_C@_0BB@MFCP@sk_monster_head3?$AA@
CONST	SEGMENT
??_C@_0BB@MFCP@sk_monster_head3?$AA@ DB 'sk_monster_head3', 00H ; `string'
CONST	ENDS
;	COMDAT ??_C@_0BC@ODAK@sk_monster_chest1?$AA@
CONST	SEGMENT
??_C@_0BC@ODAK@sk_monster_chest1?$AA@ DB 'sk_monster_chest1', 00H ; `string'
CONST	ENDS
;	COMDAT ??_C@_0BC@BMLD@sk_monster_chest2?$AA@
CONST	SEGMENT
??_C@_0BC@BMLD@sk_monster_chest2?$AA@ DB 'sk_monster_chest2', 00H ; `string'
CONST	ENDS
;	COMDAT ??_C@_0BC@LGCE@sk_monster_chest3?$AA@
CONST	SEGMENT
??_C@_0BC@LGCE@sk_monster_chest3?$AA@ DB 'sk_monster_chest3', 00H ; `string'
CONST	ENDS
;	COMDAT ??_C@_0BE@HDLO@sk_monster_stomach1?$AA@
CONST	SEGMENT
??_C@_0BE@HDLO@sk_monster_stomach1?$AA@ DB 'sk_monster_stomach1', 00H ; `string'
CONST	ENDS
;	COMDAT ??_C@_0BE@IMAH@sk_monster_stomach2?$AA@
CONST	SEGMENT
??_C@_0BE@IMAH@sk_monster_stomach2?$AA@ DB 'sk_monster_stomach2', 00H ; `string'
CONST	ENDS
;	COMDAT ??_C@_0BE@CGJA@sk_monster_stomach3?$AA@
CONST	SEGMENT
??_C@_0BE@CGJA@sk_monster_stomach3?$AA@ DB 'sk_monster_stomach3', 00H ; `string'
CONST	ENDS
;	COMDAT ??_C@_0BA@HFLM@sk_monster_arm1?$AA@
CONST	SEGMENT
??_C@_0BA@HFLM@sk_monster_arm1?$AA@ DB 'sk_monster_arm1', 00H ; `string'
CONST	ENDS
;	COMDAT ??_C@_0BA@IKAF@sk_monster_arm2?$AA@
CONST	SEGMENT
??_C@_0BA@IKAF@sk_monster_arm2?$AA@ DB 'sk_monster_arm2', 00H ; `string'
CONST	ENDS
;	COMDAT ??_C@_0BA@CAJC@sk_monster_arm3?$AA@
CONST	SEGMENT
??_C@_0BA@CAJC@sk_monster_arm3?$AA@ DB 'sk_monster_arm3', 00H ; `string'
CONST	ENDS
;	COMDAT ??_C@_0BA@OIDM@sk_monster_leg1?$AA@
CONST	SEGMENT
??_C@_0BA@OIDM@sk_monster_leg1?$AA@ DB 'sk_monster_leg1', 00H ; `string'
CONST	ENDS
;	COMDAT ??_C@_0BA@BHIF@sk_monster_leg2?$AA@
CONST	SEGMENT
??_C@_0BA@BHIF@sk_monster_leg2?$AA@ DB 'sk_monster_leg2', 00H ; `string'
CONST	ENDS
;	COMDAT ??_C@_0BA@LNBC@sk_monster_leg3?$AA@
CONST	SEGMENT
??_C@_0BA@LNBC@sk_monster_leg3?$AA@ DB 'sk_monster_leg3', 00H ; `string'
CONST	ENDS
;	COMDAT ??_C@_0BA@NBKO@sk_player_head1?$AA@
CONST	SEGMENT
??_C@_0BA@NBKO@sk_player_head1?$AA@ DB 'sk_player_head1', 00H ; `string'
CONST	ENDS
;	COMDAT ??_C@_0BA@COBH@sk_player_head2?$AA@
CONST	SEGMENT
??_C@_0BA@COBH@sk_player_head2?$AA@ DB 'sk_player_head2', 00H ; `string'
CONST	ENDS
;	COMDAT ??_C@_0BA@IEIA@sk_player_head3?$AA@
CONST	SEGMENT
??_C@_0BA@IEIA@sk_player_head3?$AA@ DB 'sk_player_head3', 00H ; `string'
CONST	ENDS
;	COMDAT ??_C@_0BB@FLEL@sk_player_chest1?$AA@
CONST	SEGMENT
??_C@_0BB@FLEL@sk_player_chest1?$AA@ DB 'sk_player_chest1', 00H ; `string'
CONST	ENDS
;	COMDAT ??_C@_0BB@KEPC@sk_player_chest2?$AA@
CONST	SEGMENT
??_C@_0BB@KEPC@sk_player_chest2?$AA@ DB 'sk_player_chest2', 00H ; `string'
CONST	ENDS
;	COMDAT ??_C@_0BB@OGF@sk_player_chest3?$AA@
CONST	SEGMENT
??_C@_0BB@OGF@sk_player_chest3?$AA@ DB 'sk_player_chest3', 00H ; `string'
CONST	ENDS
;	COMDAT ??_C@_0BD@GFHC@sk_player_stomach1?$AA@
CONST	SEGMENT
??_C@_0BD@GFHC@sk_player_stomach1?$AA@ DB 'sk_player_stomach1', 00H ; `string'
CONST	ENDS
;	COMDAT ??_C@_0BD@JKML@sk_player_stomach2?$AA@
CONST	SEGMENT
??_C@_0BD@JKML@sk_player_stomach2?$AA@ DB 'sk_player_stomach2', 00H ; `string'
CONST	ENDS
;	COMDAT ??_C@_0BD@DAFM@sk_player_stomach3?$AA@
CONST	SEGMENT
??_C@_0BD@DAFM@sk_player_stomach3?$AA@ DB 'sk_player_stomach3', 00H ; `string'
CONST	ENDS
;	COMDAT ??_C@_0P@NKHJ@sk_player_arm1?$AA@
CONST	SEGMENT
??_C@_0P@NKHJ@sk_player_arm1?$AA@ DB 'sk_player_arm1', 00H ; `string'
CONST	ENDS
;	COMDAT ??_C@_0P@CFMA@sk_player_arm2?$AA@
CONST	SEGMENT
??_C@_0P@CFMA@sk_player_arm2?$AA@ DB 'sk_player_arm2', 00H ; `string'
CONST	ENDS
;	COMDAT ??_C@_0P@IPFH@sk_player_arm3?$AA@
CONST	SEGMENT
??_C@_0P@IPFH@sk_player_arm3?$AA@ DB 'sk_player_arm3', 00H ; `string'
CONST	ENDS
;	COMDAT ??_C@_0P@EHPJ@sk_player_leg1?$AA@
CONST	SEGMENT
??_C@_0P@EHPJ@sk_player_leg1?$AA@ DB 'sk_player_leg1', 00H ; `string'
CONST	ENDS
;	COMDAT ??_C@_0P@LIEA@sk_player_leg2?$AA@
CONST	SEGMENT
??_C@_0P@LIEA@sk_player_leg2?$AA@ DB 'sk_player_leg2', 00H ; `string'
CONST	ENDS
;	COMDAT ??_C@_0P@BCNH@sk_player_leg3?$AA@
CONST	SEGMENT
??_C@_0P@BCNH@sk_player_leg3?$AA@ DB 'sk_player_leg3', 00H ; `string'
CONST	ENDS
PUBLIC	??_H@YGXPAXIHP6EX0@Z@Z				; `vector constructor iterator'
;	COMDAT ??_H@YGXPAXIHP6EX0@Z@Z
_TEXT	SEGMENT
___t$ = 8
___s$ = 12
___n$ = 16
___f$ = 20
??_H@YGXPAXIHP6EX0@Z@Z PROC NEAR			; `vector constructor iterator', COMDAT
	push	ebp
	mov	ebp, esp
	sub	esp, 64					; 00000040H
	push	ebx
	push	esi
	push	edi
$L25385:
	mov	eax, DWORD PTR ___n$[ebp]
	sub	eax, 1
	mov	DWORD PTR ___n$[ebp], eax
	cmp	DWORD PTR ___n$[ebp], 0
	jl	SHORT $L25386
	mov	ecx, DWORD PTR ___t$[ebp]
	call	DWORD PTR ___f$[ebp]
	mov	ecx, DWORD PTR ___t$[ebp]
	add	ecx, DWORD PTR ___s$[ebp]
	mov	DWORD PTR ___t$[ebp], ecx
	jmp	SHORT $L25385
$L25386:
	pop	edi
	pop	esi
	pop	ebx
	mov	esp, ebp
	pop	ebp
	ret	16					; 00000010H
??_H@YGXPAXIHP6EX0@Z@Z ENDP				; `vector constructor iterator'
_TEXT	ENDS
PUBLIC	?Cmd_ShowTriggers_f@@YAXXZ			; Cmd_ShowTriggers_f
PUBLIC	__real@4@00000000000000000000
PUBLIC	?INDEXENT@@YAPAUedict_s@@H@Z			; INDEXENT
PUBLIC	?Instance@CBaseEntity@@SAPAV1@PAUedict_s@@@Z	; CBaseEntity::Instance
EXTRN	?gpGlobals@@3PAUglobalvars_t@@A:DWORD		; gpGlobals
EXTRN	__fltused:NEAR
;	COMDAT __real@4@00000000000000000000
; File z:\xashxtsrc\server\game.cpp
CONST	SEGMENT
__real@4@00000000000000000000 DD 000000000r	; 0
CONST	ENDS
;	COMDAT ?Cmd_ShowTriggers_f@@YAXXZ
_TEXT	SEGMENT
_pEdict$ = -4
_i$ = -8
_pEntity$36933 = -12
?Cmd_ShowTriggers_f@@YAXXZ PROC NEAR			; Cmd_ShowTriggers_f, COMDAT

; 488  : {

	push	ebp
	mov	ebp, esp
	sub	esp, 76					; 0000004cH
	push	ebx
	push	esi
	push	edi

; 489  : 	edict_t *pEdict = INDEXENT( 1 );

	push	1
	call	?INDEXENT@@YAPAUedict_s@@H@Z		; INDEXENT
	add	esp, 4
	mov	DWORD PTR _pEdict$[ebp], eax

; 490  : 	if( !pEdict ) return;

	cmp	DWORD PTR _pEdict$[ebp], 0
	jne	SHORT $L36927
	jmp	$L36925
$L36927:

; 491  : 
; 492  : 	for( int i = 1; i < gpGlobals->maxEntities; i++, pEdict++ )

	mov	DWORD PTR _i$[ebp], 1
	jmp	SHORT $L36929
$L36930:
	mov	eax, DWORD PTR _i$[ebp]
	add	eax, 1
	mov	DWORD PTR _i$[ebp], eax
	mov	ecx, DWORD PTR _pEdict$[ebp]
	add	ecx, 804				; 00000324H
	mov	DWORD PTR _pEdict$[ebp], ecx
$L36929:
	mov	edx, DWORD PTR ?gpGlobals@@3PAUglobalvars_t@@A ; gpGlobals
	mov	eax, DWORD PTR _i$[ebp]
	cmp	eax, DWORD PTR [edx+148]
	jge	$L36931

; 494  : 		if( pEdict->free )	// Not in use

	mov	ecx, DWORD PTR _pEdict$[ebp]
	cmp	DWORD PTR [ecx], 0
	je	SHORT $L36932

; 495  : 			continue;

	jmp	SHORT $L36930
$L36932:

; 496  : 
; 497  : 		CBaseEntity *pEntity = CBaseEntity :: Instance( pEdict );

	mov	edx, DWORD PTR _pEdict$[ebp]
	push	edx
	call	?Instance@CBaseEntity@@SAPAV1@PAUedict_s@@@Z ; CBaseEntity::Instance
	add	esp, 4
	mov	DWORD PTR _pEntity$36933[ebp], eax

; 498  : 		if( !pEntity || !FBitSet( pEntity->m_iFlags, MF_TRIGGER|MF_LADDER ))

	cmp	DWORD PTR _pEntity$36933[ebp], 0
	je	SHORT $L36935
	mov	eax, DWORD PTR _pEntity$36933[ebp]
	mov	ecx, DWORD PTR [eax+24]
	and	ecx, 10					; 0000000aH
	test	ecx, ecx
	jne	SHORT $L36934
$L36935:

; 499  : 			continue;

	jmp	SHORT $L36930
$L36934:

; 500  : 
; 501  : 		if( FBitSet( pEntity->m_iFlags, MF_LADDER ))

	mov	edx, DWORD PTR _pEntity$36933[ebp]
	mov	eax, DWORD PTR [edx+24]
	and	eax, 8
	test	eax, eax
	je	SHORT $L36936

; 503  : 			if( pEntity->pev->renderamt <= 0 )

	mov	ecx, DWORD PTR _pEntity$36933[ebp]
	mov	edx, DWORD PTR [ecx+4]
	fld	DWORD PTR [edx+332]
	fcomp	DWORD PTR __real@4@00000000000000000000
	fnstsw	ax
	test	ah, 65					; 00000041H
	je	SHORT $L36937

; 504  : 				pEntity->pev->renderamt = 255;

	mov	eax, DWORD PTR _pEntity$36933[ebp]
	mov	ecx, DWORD PTR [eax+4]
	mov	DWORD PTR [ecx+332], 1132396544		; 437f0000H

; 505  : 			else pEntity->pev->renderamt = 0;

	jmp	SHORT $L36938
$L36937:
	mov	edx, DWORD PTR _pEntity$36933[ebp]
	mov	eax, DWORD PTR [edx+4]
	mov	DWORD PTR [eax+332], 0
$L36938:

; 507  : 		else if( FBitSet( pEntity->m_iFlags, MF_TRIGGER ))

	jmp	SHORT $L36942
$L36936:
	mov	ecx, DWORD PTR _pEntity$36933[ebp]
	mov	edx, DWORD PTR [ecx+24]
	and	edx, 2
	test	edx, edx
	je	SHORT $L36942

; 509  : 			if( FBitSet( pEntity->pev->effects, EF_NODRAW ))

	mov	eax, DWORD PTR _pEntity$36933[ebp]
	mov	ecx, DWORD PTR [eax+4]
	mov	edx, DWORD PTR [ecx+280]
	and	edx, 128				; 00000080H
	test	edx, edx
	je	SHORT $L36941

; 510  : 				pEntity->pev->effects &= ~EF_NODRAW;

	mov	eax, DWORD PTR _pEntity$36933[ebp]
	mov	ecx, DWORD PTR [eax+4]
	mov	edx, DWORD PTR [ecx+280]
	and	dl, 127					; 0000007fH
	mov	eax, DWORD PTR _pEntity$36933[ebp]
	mov	ecx, DWORD PTR [eax+4]
	mov	DWORD PTR [ecx+280], edx

; 511  : 			else pEntity->pev->effects |= EF_NODRAW;

	jmp	SHORT $L36942
$L36941:
	mov	edx, DWORD PTR _pEntity$36933[ebp]
	mov	eax, DWORD PTR [edx+4]
	mov	ecx, DWORD PTR [eax+280]
	or	cl, -128				; ffffff80H
	mov	edx, DWORD PTR _pEntity$36933[ebp]
	mov	eax, DWORD PTR [edx+4]
	mov	DWORD PTR [eax+280], ecx
$L36942:

; 513  : 	}

	jmp	$L36930
$L36931:
$L36925:

; 514  : }

	pop	edi
	pop	esi
	pop	ebx
	mov	esp, ebp
	pop	ebp
	ret	0
?Cmd_ShowTriggers_f@@YAXXZ ENDP				; Cmd_ShowTriggers_f
_TEXT	ENDS
EXTRN	?g_engfuncs@@3Uenginefuncs_s@@A:BYTE		; g_engfuncs
;	COMDAT ?INDEXENT@@YAPAUedict_s@@H@Z
_TEXT	SEGMENT
_iEdictNum$ = 8
?INDEXENT@@YAPAUedict_s@@H@Z PROC NEAR			; INDEXENT, COMDAT

; 187  : inline edict_t* INDEXENT( int iEdictNum )		{ return (*g_engfuncs.pfnPEntityOfEntIndex)(iEdictNum); }

	push	ebp
	mov	ebp, esp
	sub	esp, 64					; 00000040H
	push	ebx
	push	esi
	push	edi
	mov	eax, DWORD PTR _iEdictNum$[ebp]
	push	eax
	call	DWORD PTR ?g_engfuncs@@3Uenginefuncs_s@@A+288
	add	esp, 4
	pop	edi
	pop	esi
	pop	ebx
	mov	esp, ebp
	pop	ebp
	ret	0
?INDEXENT@@YAPAUedict_s@@H@Z ENDP			; INDEXENT
_TEXT	ENDS
PUBLIC	?GET_PRIVATE@@YAPAXPAUedict_s@@@Z		; GET_PRIVATE
PUBLIC	?ENT@@YAPAUedict_s@@H@Z				; ENT
;	COMDAT ?Instance@CBaseEntity@@SAPAV1@PAUedict_s@@@Z
_TEXT	SEGMENT
_pEnt$ = -4
_pent$ = 8
?Instance@CBaseEntity@@SAPAV1@PAUedict_s@@@Z PROC NEAR	; CBaseEntity::Instance, COMDAT

; 526  : 	{ 

	push	ebp
	mov	ebp, esp
	sub	esp, 68					; 00000044H
	push	ebx
	push	esi
	push	edi

; 527  : 		if ( !pent )

	cmp	DWORD PTR _pent$[ebp], 0
	jne	SHORT $L35061

; 528  : 			pent = ENT(0);

	push	0
	call	?ENT@@YAPAUedict_s@@H@Z			; ENT
	add	esp, 4
	mov	DWORD PTR _pent$[ebp], eax
$L35061:

; 529  : 		CBaseEntity *pEnt = (CBaseEntity *)GET_PRIVATE(pent); 

	mov	eax, DWORD PTR _pent$[ebp]
	push	eax
	call	?GET_PRIVATE@@YAPAXPAUedict_s@@@Z	; GET_PRIVATE
	add	esp, 4
	mov	DWORD PTR _pEnt$[ebp], eax

; 530  : 		return pEnt; 

	mov	eax, DWORD PTR _pEnt$[ebp]

; 531  : 	}

	pop	edi
	pop	esi
	pop	ebx
	mov	esp, ebp
	pop	ebp
	ret	0
?Instance@CBaseEntity@@SAPAV1@PAUedict_s@@@Z ENDP	; CBaseEntity::Instance
_TEXT	ENDS
;	COMDAT ?GET_PRIVATE@@YAPAXPAUedict_s@@@Z
_TEXT	SEGMENT
_pent$ = 8
?GET_PRIVATE@@YAPAXPAUedict_s@@@Z PROC NEAR		; GET_PRIVATE, COMDAT

; 101  : {

	push	ebp
	mov	ebp, esp
	sub	esp, 64					; 00000040H
	push	ebx
	push	esi
	push	edi

; 102  : 	if ( pent )

	cmp	DWORD PTR _pent$[ebp], 0
	je	SHORT $L28281

; 103  : 		return pent->pvPrivateData;

	mov	eax, DWORD PTR _pent$[ebp]
	mov	eax, DWORD PTR [eax+124]
	jmp	SHORT $L28280
$L28281:

; 104  : 	return NULL;

	xor	eax, eax
$L28280:

; 105  : }

	pop	edi
	pop	esi
	pop	ebx
	mov	esp, ebp
	pop	ebp
	ret	0
?GET_PRIVATE@@YAPAXPAUedict_s@@@Z ENDP			; GET_PRIVATE
_TEXT	ENDS
;	COMDAT ?ENT@@YAPAUedict_s@@H@Z
_TEXT	SEGMENT
_eoffset$ = 8
?ENT@@YAPAUedict_s@@H@Z PROC NEAR			; ENT, COMDAT

; 157  : inline edict_t *ENT(EOFFSET eoffset)			{ return (*g_engfuncs.pfnPEntityOfEntOffset)(eoffset); }

	push	ebp
	mov	ebp, esp
	sub	esp, 64					; 00000040H
	push	ebx
	push	esi
	push	edi
	mov	eax, DWORD PTR _eoffset$[ebp]
	push	eax
	call	DWORD PTR ?g_engfuncs@@3Uenginefuncs_s@@A+276
	add	esp, 4
	pop	edi
	pop	esi
	pop	ebx
	mov	esp, ebp
	pop	ebp
	ret	0
?ENT@@YAPAUedict_s@@H@Z ENDP				; ENT
_TEXT	ENDS
PUBLIC	??_C@_0L@GIJ@sv_gravity?$AA@			; `string'
PUBLIC	??_C@_06MMCC@sv_aim?$AA@			; `string'
PUBLIC	??_C@_0N@LGHF@mp_footsteps?$AA@			; `string'
PUBLIC	??_C@_0M@IBOF@sv_stepsize?$AA@			; `string'
PUBLIC	??_C@_0BE@NCFI@showtriggers_toggle?$AA@		; `string'
PUBLIC	??_C@_0BC@KBPB@dump_entity_sizes?$AA@		; `string'
PUBLIC	??_C@_0BC@DHKF@dump_entity_names?$AA@		; `string'
PUBLIC	??_C@_0N@OEMG@dump_strings?$AA@			; `string'
PUBLIC	??_C@_0M@MJCC@qphys_debug?$AA@			; `string'
PUBLIC	??_C@_0P@DNID@sv_allow_PhysX?$AA@		; `string'
PUBLIC	??_C@_0BA@HNAG@exec?5skill?4cfg?6?$AA@		; `string'
PUBLIC	?GameDLLInit@@YAXXZ				; GameDLLInit
EXTRN	?WorldPhysic@@3PAVIPhysicLayer@@A:DWORD		; WorldPhysic
EXTRN	?LinkUserMessages@@YAXXZ:NEAR			; LinkUserMessages
EXTRN	?DumpEntityNames_f@@YAXXZ:NEAR			; DumpEntityNames_f
EXTRN	?DumpEntitySizes_f@@YAXXZ:NEAR			; DumpEntitySizes_f
EXTRN	?DumpStrings_f@@YAXXZ:NEAR			; DumpStrings_f
;	COMDAT ??_C@_0L@GIJ@sv_gravity?$AA@
; File z:\xashxtsrc\server\game.cpp
CONST	SEGMENT
??_C@_0L@GIJ@sv_gravity?$AA@ DB 'sv_gravity', 00H	; `string'
CONST	ENDS
;	COMDAT ??_C@_06MMCC@sv_aim?$AA@
CONST	SEGMENT
??_C@_06MMCC@sv_aim?$AA@ DB 'sv_aim', 00H		; `string'
CONST	ENDS
;	COMDAT ??_C@_0N@LGHF@mp_footsteps?$AA@
CONST	SEGMENT
??_C@_0N@LGHF@mp_footsteps?$AA@ DB 'mp_footsteps', 00H	; `string'
CONST	ENDS
;	COMDAT ??_C@_0M@IBOF@sv_stepsize?$AA@
CONST	SEGMENT
??_C@_0M@IBOF@sv_stepsize?$AA@ DB 'sv_stepsize', 00H	; `string'
CONST	ENDS
;	COMDAT ??_C@_0BE@NCFI@showtriggers_toggle?$AA@
CONST	SEGMENT
??_C@_0BE@NCFI@showtriggers_toggle?$AA@ DB 'showtriggers_toggle', 00H ; `string'
CONST	ENDS
;	COMDAT ??_C@_0BC@KBPB@dump_entity_sizes?$AA@
CONST	SEGMENT
??_C@_0BC@KBPB@dump_entity_sizes?$AA@ DB 'dump_entity_sizes', 00H ; `string'
CONST	ENDS
;	COMDAT ??_C@_0BC@DHKF@dump_entity_names?$AA@
CONST	SEGMENT
??_C@_0BC@DHKF@dump_entity_names?$AA@ DB 'dump_entity_names', 00H ; `string'
CONST	ENDS
;	COMDAT ??_C@_0N@OEMG@dump_strings?$AA@
CONST	SEGMENT
??_C@_0N@OEMG@dump_strings?$AA@ DB 'dump_strings', 00H	; `string'
CONST	ENDS
;	COMDAT ??_C@_0M@MJCC@qphys_debug?$AA@
CONST	SEGMENT
??_C@_0M@MJCC@qphys_debug?$AA@ DB 'qphys_debug', 00H	; `string'
CONST	ENDS
;	COMDAT ??_C@_0P@DNID@sv_allow_PhysX?$AA@
CONST	SEGMENT
??_C@_0P@DNID@sv_allow_PhysX?$AA@ DB 'sv_allow_PhysX', 00H ; `string'
CONST	ENDS
;	COMDAT ??_C@_0BA@HNAG@exec?5skill?4cfg?6?$AA@
CONST	SEGMENT
??_C@_0BA@HNAG@exec?5skill?4cfg?6?$AA@ DB 'exec skill.cfg', 0aH, 00H ; `string'
CONST	ENDS
;	COMDAT ?GameDLLInit@@YAXXZ
_TEXT	SEGMENT
?GameDLLInit@@YAXXZ PROC NEAR				; GameDLLInit, COMDAT

; 519  : {

	push	ebp
	mov	ebp, esp
	sub	esp, 64					; 00000040H
	push	ebx
	push	esi
	push	edi

; 520  : 	// Register cvars here:
; 521  : 
; 522  : 	g_psv_gravity = CVAR_GET_POINTER( "sv_gravity" );

	push	OFFSET FLAT:??_C@_0L@GIJ@sv_gravity?$AA@ ; `string'
	call	DWORD PTR ?g_engfuncs@@3Uenginefuncs_s@@A+464
	add	esp, 4
	mov	DWORD PTR ?g_psv_gravity@@3PAUcvar_s@@A, eax ; g_psv_gravity

; 523  : 	g_psv_aim = CVAR_GET_POINTER( "sv_aim" );

	push	OFFSET FLAT:??_C@_06MMCC@sv_aim?$AA@	; `string'
	call	DWORD PTR ?g_engfuncs@@3Uenginefuncs_s@@A+464
	add	esp, 4
	mov	DWORD PTR ?g_psv_aim@@3PAUcvar_s@@A, eax ; g_psv_aim

; 524  : 	g_footsteps = CVAR_GET_POINTER( "mp_footsteps" );

	push	OFFSET FLAT:??_C@_0N@LGHF@mp_footsteps?$AA@ ; `string'
	call	DWORD PTR ?g_engfuncs@@3Uenginefuncs_s@@A+464
	add	esp, 4
	mov	DWORD PTR ?g_footsteps@@3PAUcvar_s@@A, eax ; g_footsteps

; 525  : 	g_psv_stepsize = CVAR_GET_POINTER( "sv_stepsize" );

	push	OFFSET FLAT:??_C@_0M@IBOF@sv_stepsize?$AA@ ; `string'
	call	DWORD PTR ?g_engfuncs@@3Uenginefuncs_s@@A+464
	add	esp, 4
	mov	DWORD PTR ?g_psv_stepsize@@3PAUcvar_s@@A, eax ; g_psv_stepsize

; 526  : 	CVAR_REGISTER( &g_sync_physic );

	push	OFFSET FLAT:?g_sync_physic@@3Ucvar_s@@A	; g_sync_physic
	call	DWORD PTR ?g_engfuncs@@3Uenginefuncs_s@@A+224
	add	esp, 4

; 527  : 
; 528  : 	g_engfuncs.pfnAddServerCommand( "showtriggers_toggle", Cmd_ShowTriggers_f );

	push	OFFSET FLAT:?Cmd_ShowTriggers_f@@YAXXZ	; Cmd_ShowTriggers_f
	push	OFFSET FLAT:??_C@_0BE@NCFI@showtriggers_toggle?$AA@ ; `string'
	call	DWORD PTR ?g_engfuncs@@3Uenginefuncs_s@@A+560
	add	esp, 8

; 529  : 
; 530  : 	g_engfuncs.pfnAddServerCommand( "dump_entity_sizes", DumpEntitySizes_f );

	push	OFFSET FLAT:?DumpEntitySizes_f@@YAXXZ	; DumpEntitySizes_f
	push	OFFSET FLAT:??_C@_0BC@KBPB@dump_entity_sizes?$AA@ ; `string'
	call	DWORD PTR ?g_engfuncs@@3Uenginefuncs_s@@A+560
	add	esp, 8

; 531  : 	g_engfuncs.pfnAddServerCommand( "dump_entity_names", DumpEntityNames_f );

	push	OFFSET FLAT:?DumpEntityNames_f@@YAXXZ	; DumpEntityNames_f
	push	OFFSET FLAT:??_C@_0BC@DHKF@dump_entity_names?$AA@ ; `string'
	call	DWORD PTR ?g_engfuncs@@3Uenginefuncs_s@@A+560
	add	esp, 8

; 532  : 
; 533  : #ifdef HAVE_STRINGPOOL
; 534  : 	g_engfuncs.pfnAddServerCommand( "dump_strings", DumpStrings_f );

	push	OFFSET FLAT:?DumpStrings_f@@YAXXZ	; DumpStrings_f
	push	OFFSET FLAT:??_C@_0N@OEMG@dump_strings?$AA@ ; `string'
	call	DWORD PTR ?g_engfuncs@@3Uenginefuncs_s@@A+560
	add	esp, 8

; 535  : #endif
; 536  : 	CVAR_REGISTER (&displaysoundlist);

	push	OFFSET FLAT:?displaysoundlist@@3Ucvar_s@@A ; displaysoundlist
	call	DWORD PTR ?g_engfuncs@@3Uenginefuncs_s@@A+224
	add	esp, 4

; 537  : 
; 538  : 	CVAR_REGISTER (&teamplay);

	push	OFFSET FLAT:?teamplay@@3Ucvar_s@@A	; teamplay
	call	DWORD PTR ?g_engfuncs@@3Uenginefuncs_s@@A+224
	add	esp, 4

; 539  : 	CVAR_REGISTER (&fraglimit);

	push	OFFSET FLAT:?fraglimit@@3Ucvar_s@@A	; fraglimit
	call	DWORD PTR ?g_engfuncs@@3Uenginefuncs_s@@A+224
	add	esp, 4

; 540  : 	CVAR_REGISTER (&timelimit);

	push	OFFSET FLAT:?timelimit@@3Ucvar_s@@A	; timelimit
	call	DWORD PTR ?g_engfuncs@@3Uenginefuncs_s@@A+224
	add	esp, 4

; 541  : 
; 542  : 	CVAR_REGISTER (&fragsleft);

	push	OFFSET FLAT:?fragsleft@@3Ucvar_s@@A	; fragsleft
	call	DWORD PTR ?g_engfuncs@@3Uenginefuncs_s@@A+224
	add	esp, 4

; 543  : 	CVAR_REGISTER (&timeleft);

	push	OFFSET FLAT:?timeleft@@3Ucvar_s@@A	; timeleft
	call	DWORD PTR ?g_engfuncs@@3Uenginefuncs_s@@A+224
	add	esp, 4

; 544  : 	CVAR_REGISTER (&debugdraw);

	push	OFFSET FLAT:?debugdraw@@3Ucvar_s@@A	; debugdraw
	call	DWORD PTR ?g_engfuncs@@3Uenginefuncs_s@@A+224
	add	esp, 4

; 545  : 	CVAR_REGISTER (&physstats);

	push	OFFSET FLAT:?physstats@@3Ucvar_s@@A	; physstats
	call	DWORD PTR ?g_engfuncs@@3Uenginefuncs_s@@A+224
	add	esp, 4

; 546  : 	CVAR_REGISTER (&physdebug);

	push	OFFSET FLAT:?physdebug@@3Ucvar_s@@A	; physdebug
	call	DWORD PTR ?g_engfuncs@@3Uenginefuncs_s@@A+224
	add	esp, 4

; 547  : 
; 548  : 	CVAR_REGISTER (&friendlyfire);

	push	OFFSET FLAT:?friendlyfire@@3Ucvar_s@@A	; friendlyfire
	call	DWORD PTR ?g_engfuncs@@3Uenginefuncs_s@@A+224
	add	esp, 4

; 549  : 	CVAR_REGISTER (&falldamage);

	push	OFFSET FLAT:?falldamage@@3Ucvar_s@@A	; falldamage
	call	DWORD PTR ?g_engfuncs@@3Uenginefuncs_s@@A+224
	add	esp, 4

; 550  : 	CVAR_REGISTER (&weaponstay);

	push	OFFSET FLAT:?weaponstay@@3Ucvar_s@@A	; weaponstay
	call	DWORD PTR ?g_engfuncs@@3Uenginefuncs_s@@A+224
	add	esp, 4

; 551  : 	CVAR_REGISTER (&forcerespawn);

	push	OFFSET FLAT:?forcerespawn@@3Ucvar_s@@A	; forcerespawn
	call	DWORD PTR ?g_engfuncs@@3Uenginefuncs_s@@A+224
	add	esp, 4

; 552  : 	CVAR_REGISTER (&flashlight);

	push	OFFSET FLAT:?flashlight@@3Ucvar_s@@A	; flashlight
	call	DWORD PTR ?g_engfuncs@@3Uenginefuncs_s@@A+224
	add	esp, 4

; 553  : 	CVAR_REGISTER (&aimcrosshair);

	push	OFFSET FLAT:?aimcrosshair@@3Ucvar_s@@A	; aimcrosshair
	call	DWORD PTR ?g_engfuncs@@3Uenginefuncs_s@@A+224
	add	esp, 4

; 554  : 	CVAR_REGISTER (&decalfrequency);

	push	OFFSET FLAT:?decalfrequency@@3Ucvar_s@@A ; decalfrequency
	call	DWORD PTR ?g_engfuncs@@3Uenginefuncs_s@@A+224
	add	esp, 4

; 555  : 	CVAR_REGISTER (&teamlist);

	push	OFFSET FLAT:?teamlist@@3Ucvar_s@@A	; teamlist
	call	DWORD PTR ?g_engfuncs@@3Uenginefuncs_s@@A+224
	add	esp, 4

; 556  : 	CVAR_REGISTER (&teamoverride);

	push	OFFSET FLAT:?teamoverride@@3Ucvar_s@@A	; teamoverride
	call	DWORD PTR ?g_engfuncs@@3Uenginefuncs_s@@A+224
	add	esp, 4

; 557  : 	CVAR_REGISTER (&defaultteam);

	push	OFFSET FLAT:?defaultteam@@3Ucvar_s@@A	; defaultteam
	call	DWORD PTR ?g_engfuncs@@3Uenginefuncs_s@@A+224
	add	esp, 4

; 558  : 	CVAR_REGISTER (&allowmonsters);

	push	OFFSET FLAT:?allowmonsters@@3Ucvar_s@@A	; allowmonsters
	call	DWORD PTR ?g_engfuncs@@3Uenginefuncs_s@@A+224
	add	esp, 4

; 559  : 
; 560  : 	CVAR_REGISTER (&mp_chattime);

	push	OFFSET FLAT:?mp_chattime@@3Ucvar_s@@A	; mp_chattime
	call	DWORD PTR ?g_engfuncs@@3Uenginefuncs_s@@A+224
	add	esp, 4

; 561  : 
; 562  : 	// server debug drawing support requires build up to 1940
; 563  : 	g_debugdraw = CVAR_GET_POINTER( "phys_debug" );

	push	OFFSET FLAT:??_C@_0L@HJFJ@phys_debug?$AA@ ; `string'
	call	DWORD PTR ?g_engfuncs@@3Uenginefuncs_s@@A+464
	add	esp, 4
	mov	DWORD PTR ?g_debugdraw@@3PAUcvar_s@@A, eax ; g_debugdraw

; 564  : 	g_physdebug = CVAR_GET_POINTER( "qphys_debug" );

	push	OFFSET FLAT:??_C@_0M@MJCC@qphys_debug?$AA@ ; `string'
	call	DWORD PTR ?g_engfuncs@@3Uenginefuncs_s@@A+464
	add	esp, 4
	mov	DWORD PTR ?g_physdebug@@3PAUcvar_s@@A, eax ; g_physdebug

; 565  : 	p_speeds = CVAR_GET_POINTER( "p_speeds" );

	push	OFFSET FLAT:??_C@_08FNPH@p_speeds?$AA@	; `string'
	call	DWORD PTR ?g_engfuncs@@3Uenginefuncs_s@@A+464
	add	esp, 4
	mov	DWORD PTR ?p_speeds@@3PAUcvar_s@@A, eax	; p_speeds

; 566  : 	g_allow_physx = CVAR_GET_POINTER( "sv_allow_PhysX" );

	push	OFFSET FLAT:??_C@_0P@DNID@sv_allow_PhysX?$AA@ ; `string'
	call	DWORD PTR ?g_engfuncs@@3Uenginefuncs_s@@A+464
	add	esp, 4
	mov	DWORD PTR ?g_allow_physx@@3PAUcvar_s@@A, eax ; g_allow_physx

; 567  : 
; 568  : // REGISTER CVARS FOR SKILL LEVEL STUFF
; 569  : 	// Agrunt
; 570  : 	CVAR_REGISTER ( &sk_agrunt_health1 );// {"sk_agrunt_health1","0"};

	push	OFFSET FLAT:?sk_agrunt_health1@@3Ucvar_s@@A ; sk_agrunt_health1
	call	DWORD PTR ?g_engfuncs@@3Uenginefuncs_s@@A+224
	add	esp, 4

; 571  : 	CVAR_REGISTER ( &sk_agrunt_health2 );// {"sk_agrunt_health2","0"};

	push	OFFSET FLAT:?sk_agrunt_health2@@3Ucvar_s@@A ; sk_agrunt_health2
	call	DWORD PTR ?g_engfuncs@@3Uenginefuncs_s@@A+224
	add	esp, 4

; 572  : 	CVAR_REGISTER ( &sk_agrunt_health3 );// {"sk_agrunt_health3","0"};

	push	OFFSET FLAT:?sk_agrunt_health3@@3Ucvar_s@@A ; sk_agrunt_health3
	call	DWORD PTR ?g_engfuncs@@3Uenginefuncs_s@@A+224
	add	esp, 4

; 573  : 
; 574  : 	CVAR_REGISTER ( &sk_agrunt_dmg_punch1 );// {"sk_agrunt_dmg_punch1","0"};

	push	OFFSET FLAT:?sk_agrunt_dmg_punch1@@3Ucvar_s@@A ; sk_agrunt_dmg_punch1
	call	DWORD PTR ?g_engfuncs@@3Uenginefuncs_s@@A+224
	add	esp, 4

; 575  : 	CVAR_REGISTER ( &sk_agrunt_dmg_punch2 );// {"sk_agrunt_dmg_punch2","0"};

	push	OFFSET FLAT:?sk_agrunt_dmg_punch2@@3Ucvar_s@@A ; sk_agrunt_dmg_punch2
	call	DWORD PTR ?g_engfuncs@@3Uenginefuncs_s@@A+224
	add	esp, 4

; 576  : 	CVAR_REGISTER ( &sk_agrunt_dmg_punch3 );// {"sk_agrunt_dmg_punch3","0"};

	push	OFFSET FLAT:?sk_agrunt_dmg_punch3@@3Ucvar_s@@A ; sk_agrunt_dmg_punch3
	call	DWORD PTR ?g_engfuncs@@3Uenginefuncs_s@@A+224
	add	esp, 4

; 577  : 
; 578  : 	// Apache
; 579  : 	CVAR_REGISTER ( &sk_apache_health1 );// {"sk_apache_health1","0"};

	push	OFFSET FLAT:?sk_apache_health1@@3Ucvar_s@@A ; sk_apache_health1
	call	DWORD PTR ?g_engfuncs@@3Uenginefuncs_s@@A+224
	add	esp, 4

; 580  : 	CVAR_REGISTER ( &sk_apache_health2 );// {"sk_apache_health2","0"};

	push	OFFSET FLAT:?sk_apache_health2@@3Ucvar_s@@A ; sk_apache_health2
	call	DWORD PTR ?g_engfuncs@@3Uenginefuncs_s@@A+224
	add	esp, 4

; 581  : 	CVAR_REGISTER ( &sk_apache_health3 );// {"sk_apache_health3","0"};

	push	OFFSET FLAT:?sk_apache_health3@@3Ucvar_s@@A ; sk_apache_health3
	call	DWORD PTR ?g_engfuncs@@3Uenginefuncs_s@@A+224
	add	esp, 4

; 582  : 
; 583  : 	// Barney
; 584  : 	CVAR_REGISTER ( &sk_barney_health1 );// {"sk_barney_health1","0"};

	push	OFFSET FLAT:?sk_barney_health1@@3Ucvar_s@@A ; sk_barney_health1
	call	DWORD PTR ?g_engfuncs@@3Uenginefuncs_s@@A+224
	add	esp, 4

; 585  : 	CVAR_REGISTER ( &sk_barney_health2 );// {"sk_barney_health2","0"};

	push	OFFSET FLAT:?sk_barney_health2@@3Ucvar_s@@A ; sk_barney_health2
	call	DWORD PTR ?g_engfuncs@@3Uenginefuncs_s@@A+224
	add	esp, 4

; 586  : 	CVAR_REGISTER ( &sk_barney_health3 );// {"sk_barney_health3","0"};

	push	OFFSET FLAT:?sk_barney_health3@@3Ucvar_s@@A ; sk_barney_health3
	call	DWORD PTR ?g_engfuncs@@3Uenginefuncs_s@@A+224
	add	esp, 4

; 587  : 
; 588  : 	// Bullsquid
; 589  : 	CVAR_REGISTER ( &sk_bullsquid_health1 );// {"sk_bullsquid_health1","0"};

	push	OFFSET FLAT:?sk_bullsquid_health1@@3Ucvar_s@@A ; sk_bullsquid_health1
	call	DWORD PTR ?g_engfuncs@@3Uenginefuncs_s@@A+224
	add	esp, 4

; 590  : 	CVAR_REGISTER ( &sk_bullsquid_health2 );// {"sk_bullsquid_health2","0"};

	push	OFFSET FLAT:?sk_bullsquid_health2@@3Ucvar_s@@A ; sk_bullsquid_health2
	call	DWORD PTR ?g_engfuncs@@3Uenginefuncs_s@@A+224
	add	esp, 4

; 591  : 	CVAR_REGISTER ( &sk_bullsquid_health3 );// {"sk_bullsquid_health3","0"};

	push	OFFSET FLAT:?sk_bullsquid_health3@@3Ucvar_s@@A ; sk_bullsquid_health3
	call	DWORD PTR ?g_engfuncs@@3Uenginefuncs_s@@A+224
	add	esp, 4

; 592  : 
; 593  : 	CVAR_REGISTER ( &sk_bullsquid_dmg_bite1 );// {"sk_bullsquid_dmg_bite1","0"};

	push	OFFSET FLAT:?sk_bullsquid_dmg_bite1@@3Ucvar_s@@A ; sk_bullsquid_dmg_bite1
	call	DWORD PTR ?g_engfuncs@@3Uenginefuncs_s@@A+224
	add	esp, 4

; 594  : 	CVAR_REGISTER ( &sk_bullsquid_dmg_bite2 );// {"sk_bullsquid_dmg_bite2","0"};

	push	OFFSET FLAT:?sk_bullsquid_dmg_bite2@@3Ucvar_s@@A ; sk_bullsquid_dmg_bite2
	call	DWORD PTR ?g_engfuncs@@3Uenginefuncs_s@@A+224
	add	esp, 4

; 595  : 	CVAR_REGISTER ( &sk_bullsquid_dmg_bite3 );// {"sk_bullsquid_dmg_bite3","0"};

	push	OFFSET FLAT:?sk_bullsquid_dmg_bite3@@3Ucvar_s@@A ; sk_bullsquid_dmg_bite3
	call	DWORD PTR ?g_engfuncs@@3Uenginefuncs_s@@A+224
	add	esp, 4

; 596  : 
; 597  : 	CVAR_REGISTER ( &sk_bullsquid_dmg_whip1 );// {"sk_bullsquid_dmg_whip1","0"};

	push	OFFSET FLAT:?sk_bullsquid_dmg_whip1@@3Ucvar_s@@A ; sk_bullsquid_dmg_whip1
	call	DWORD PTR ?g_engfuncs@@3Uenginefuncs_s@@A+224
	add	esp, 4

; 598  : 	CVAR_REGISTER ( &sk_bullsquid_dmg_whip2 );// {"sk_bullsquid_dmg_whip2","0"};

	push	OFFSET FLAT:?sk_bullsquid_dmg_whip2@@3Ucvar_s@@A ; sk_bullsquid_dmg_whip2
	call	DWORD PTR ?g_engfuncs@@3Uenginefuncs_s@@A+224
	add	esp, 4

; 599  : 	CVAR_REGISTER ( &sk_bullsquid_dmg_whip3 );// {"sk_bullsquid_dmg_whip3","0"};

	push	OFFSET FLAT:?sk_bullsquid_dmg_whip3@@3Ucvar_s@@A ; sk_bullsquid_dmg_whip3
	call	DWORD PTR ?g_engfuncs@@3Uenginefuncs_s@@A+224
	add	esp, 4

; 600  : 
; 601  : 	CVAR_REGISTER ( &sk_bullsquid_dmg_spit1 );// {"sk_bullsquid_dmg_spit1","0"};

	push	OFFSET FLAT:?sk_bullsquid_dmg_spit1@@3Ucvar_s@@A ; sk_bullsquid_dmg_spit1
	call	DWORD PTR ?g_engfuncs@@3Uenginefuncs_s@@A+224
	add	esp, 4

; 602  : 	CVAR_REGISTER ( &sk_bullsquid_dmg_spit2 );// {"sk_bullsquid_dmg_spit2","0"};

	push	OFFSET FLAT:?sk_bullsquid_dmg_spit2@@3Ucvar_s@@A ; sk_bullsquid_dmg_spit2
	call	DWORD PTR ?g_engfuncs@@3Uenginefuncs_s@@A+224
	add	esp, 4

; 603  : 	CVAR_REGISTER ( &sk_bullsquid_dmg_spit3 );// {"sk_bullsquid_dmg_spit3","0"};

	push	OFFSET FLAT:?sk_bullsquid_dmg_spit3@@3Ucvar_s@@A ; sk_bullsquid_dmg_spit3
	call	DWORD PTR ?g_engfuncs@@3Uenginefuncs_s@@A+224
	add	esp, 4

; 604  : 
; 605  : 
; 606  : 	CVAR_REGISTER ( &sk_bigmomma_health_factor1 );// {"sk_bigmomma_health_factor1","1.0"};

	push	OFFSET FLAT:?sk_bigmomma_health_factor1@@3Ucvar_s@@A ; sk_bigmomma_health_factor1
	call	DWORD PTR ?g_engfuncs@@3Uenginefuncs_s@@A+224
	add	esp, 4

; 607  : 	CVAR_REGISTER ( &sk_bigmomma_health_factor2 );// {"sk_bigmomma_health_factor2","1.0"};

	push	OFFSET FLAT:?sk_bigmomma_health_factor2@@3Ucvar_s@@A ; sk_bigmomma_health_factor2
	call	DWORD PTR ?g_engfuncs@@3Uenginefuncs_s@@A+224
	add	esp, 4

; 608  : 	CVAR_REGISTER ( &sk_bigmomma_health_factor3 );// {"sk_bigmomma_health_factor3","1.0"};

	push	OFFSET FLAT:?sk_bigmomma_health_factor3@@3Ucvar_s@@A ; sk_bigmomma_health_factor3
	call	DWORD PTR ?g_engfuncs@@3Uenginefuncs_s@@A+224
	add	esp, 4

; 609  : 
; 610  : 	CVAR_REGISTER ( &sk_bigmomma_dmg_slash1 );// {"sk_bigmomma_dmg_slash1","50"};

	push	OFFSET FLAT:?sk_bigmomma_dmg_slash1@@3Ucvar_s@@A ; sk_bigmomma_dmg_slash1
	call	DWORD PTR ?g_engfuncs@@3Uenginefuncs_s@@A+224
	add	esp, 4

; 611  : 	CVAR_REGISTER ( &sk_bigmomma_dmg_slash2 );// {"sk_bigmomma_dmg_slash2","50"};

	push	OFFSET FLAT:?sk_bigmomma_dmg_slash2@@3Ucvar_s@@A ; sk_bigmomma_dmg_slash2
	call	DWORD PTR ?g_engfuncs@@3Uenginefuncs_s@@A+224
	add	esp, 4

; 612  : 	CVAR_REGISTER ( &sk_bigmomma_dmg_slash3 );// {"sk_bigmomma_dmg_slash3","50"};

	push	OFFSET FLAT:?sk_bigmomma_dmg_slash3@@3Ucvar_s@@A ; sk_bigmomma_dmg_slash3
	call	DWORD PTR ?g_engfuncs@@3Uenginefuncs_s@@A+224
	add	esp, 4

; 613  : 
; 614  : 	CVAR_REGISTER ( &sk_bigmomma_dmg_blast1 );// {"sk_bigmomma_dmg_blast1","100"};

	push	OFFSET FLAT:?sk_bigmomma_dmg_blast1@@3Ucvar_s@@A ; sk_bigmomma_dmg_blast1
	call	DWORD PTR ?g_engfuncs@@3Uenginefuncs_s@@A+224
	add	esp, 4

; 615  : 	CVAR_REGISTER ( &sk_bigmomma_dmg_blast2 );// {"sk_bigmomma_dmg_blast2","100"};

	push	OFFSET FLAT:?sk_bigmomma_dmg_blast2@@3Ucvar_s@@A ; sk_bigmomma_dmg_blast2
	call	DWORD PTR ?g_engfuncs@@3Uenginefuncs_s@@A+224
	add	esp, 4

; 616  : 	CVAR_REGISTER ( &sk_bigmomma_dmg_blast3 );// {"sk_bigmomma_dmg_blast3","100"};

	push	OFFSET FLAT:?sk_bigmomma_dmg_blast3@@3Ucvar_s@@A ; sk_bigmomma_dmg_blast3
	call	DWORD PTR ?g_engfuncs@@3Uenginefuncs_s@@A+224
	add	esp, 4

; 617  : 
; 618  : 	CVAR_REGISTER ( &sk_bigmomma_radius_blast1 );// {"sk_bigmomma_radius_blast1","250"};

	push	OFFSET FLAT:?sk_bigmomma_radius_blast1@@3Ucvar_s@@A ; sk_bigmomma_radius_blast1
	call	DWORD PTR ?g_engfuncs@@3Uenginefuncs_s@@A+224
	add	esp, 4

; 619  : 	CVAR_REGISTER ( &sk_bigmomma_radius_blast2 );// {"sk_bigmomma_radius_blast2","250"};

	push	OFFSET FLAT:?sk_bigmomma_radius_blast2@@3Ucvar_s@@A ; sk_bigmomma_radius_blast2
	call	DWORD PTR ?g_engfuncs@@3Uenginefuncs_s@@A+224
	add	esp, 4

; 620  : 	CVAR_REGISTER ( &sk_bigmomma_radius_blast3 );// {"sk_bigmomma_radius_blast3","250"};

	push	OFFSET FLAT:?sk_bigmomma_radius_blast3@@3Ucvar_s@@A ; sk_bigmomma_radius_blast3
	call	DWORD PTR ?g_engfuncs@@3Uenginefuncs_s@@A+224
	add	esp, 4

; 621  : 
; 622  : 	// Gargantua
; 623  : 	CVAR_REGISTER ( &sk_gargantua_health1 );// {"sk_gargantua_health1","0"};

	push	OFFSET FLAT:?sk_gargantua_health1@@3Ucvar_s@@A ; sk_gargantua_health1
	call	DWORD PTR ?g_engfuncs@@3Uenginefuncs_s@@A+224
	add	esp, 4

; 624  : 	CVAR_REGISTER ( &sk_gargantua_health2 );// {"sk_gargantua_health2","0"};

	push	OFFSET FLAT:?sk_gargantua_health2@@3Ucvar_s@@A ; sk_gargantua_health2
	call	DWORD PTR ?g_engfuncs@@3Uenginefuncs_s@@A+224
	add	esp, 4

; 625  : 	CVAR_REGISTER ( &sk_gargantua_health3 );// {"sk_gargantua_health3","0"};

	push	OFFSET FLAT:?sk_gargantua_health3@@3Ucvar_s@@A ; sk_gargantua_health3
	call	DWORD PTR ?g_engfuncs@@3Uenginefuncs_s@@A+224
	add	esp, 4

; 626  : 
; 627  : 	CVAR_REGISTER ( &sk_gargantua_dmg_slash1 );// {"sk_gargantua_dmg_slash1","0"};

	push	OFFSET FLAT:?sk_gargantua_dmg_slash1@@3Ucvar_s@@A ; sk_gargantua_dmg_slash1
	call	DWORD PTR ?g_engfuncs@@3Uenginefuncs_s@@A+224
	add	esp, 4

; 628  : 	CVAR_REGISTER ( &sk_gargantua_dmg_slash2 );// {"sk_gargantua_dmg_slash2","0"};

	push	OFFSET FLAT:?sk_gargantua_dmg_slash2@@3Ucvar_s@@A ; sk_gargantua_dmg_slash2
	call	DWORD PTR ?g_engfuncs@@3Uenginefuncs_s@@A+224
	add	esp, 4

; 629  : 	CVAR_REGISTER ( &sk_gargantua_dmg_slash3 );// {"sk_gargantua_dmg_slash3","0"};

	push	OFFSET FLAT:?sk_gargantua_dmg_slash3@@3Ucvar_s@@A ; sk_gargantua_dmg_slash3
	call	DWORD PTR ?g_engfuncs@@3Uenginefuncs_s@@A+224
	add	esp, 4

; 630  : 
; 631  : 	CVAR_REGISTER ( &sk_gargantua_dmg_fire1 );// {"sk_gargantua_dmg_fire1","0"};

	push	OFFSET FLAT:?sk_gargantua_dmg_fire1@@3Ucvar_s@@A ; sk_gargantua_dmg_fire1
	call	DWORD PTR ?g_engfuncs@@3Uenginefuncs_s@@A+224
	add	esp, 4

; 632  : 	CVAR_REGISTER ( &sk_gargantua_dmg_fire2 );// {"sk_gargantua_dmg_fire2","0"};

	push	OFFSET FLAT:?sk_gargantua_dmg_fire2@@3Ucvar_s@@A ; sk_gargantua_dmg_fire2
	call	DWORD PTR ?g_engfuncs@@3Uenginefuncs_s@@A+224
	add	esp, 4

; 633  : 	CVAR_REGISTER ( &sk_gargantua_dmg_fire3 );// {"sk_gargantua_dmg_fire3","0"};

	push	OFFSET FLAT:?sk_gargantua_dmg_fire3@@3Ucvar_s@@A ; sk_gargantua_dmg_fire3
	call	DWORD PTR ?g_engfuncs@@3Uenginefuncs_s@@A+224
	add	esp, 4

; 634  : 
; 635  : 	CVAR_REGISTER ( &sk_gargantua_dmg_stomp1 );// {"sk_gargantua_dmg_stomp1","0"};

	push	OFFSET FLAT:?sk_gargantua_dmg_stomp1@@3Ucvar_s@@A ; sk_gargantua_dmg_stomp1
	call	DWORD PTR ?g_engfuncs@@3Uenginefuncs_s@@A+224
	add	esp, 4

; 636  : 	CVAR_REGISTER ( &sk_gargantua_dmg_stomp2 );// {"sk_gargantua_dmg_stomp2","0"};

	push	OFFSET FLAT:?sk_gargantua_dmg_stomp2@@3Ucvar_s@@A ; sk_gargantua_dmg_stomp2
	call	DWORD PTR ?g_engfuncs@@3Uenginefuncs_s@@A+224
	add	esp, 4

; 637  : 	CVAR_REGISTER ( &sk_gargantua_dmg_stomp3	);// {"sk_gargantua_dmg_stomp3","0"};

	push	OFFSET FLAT:?sk_gargantua_dmg_stomp3@@3Ucvar_s@@A ; sk_gargantua_dmg_stomp3
	call	DWORD PTR ?g_engfuncs@@3Uenginefuncs_s@@A+224
	add	esp, 4

; 638  : 
; 639  : 
; 640  : 	// Hassassin
; 641  : 	CVAR_REGISTER ( &sk_hassassin_health1 );// {"sk_hassassin_health1","0"};

	push	OFFSET FLAT:?sk_hassassin_health1@@3Ucvar_s@@A ; sk_hassassin_health1
	call	DWORD PTR ?g_engfuncs@@3Uenginefuncs_s@@A+224
	add	esp, 4

; 642  : 	CVAR_REGISTER ( &sk_hassassin_health2 );// {"sk_hassassin_health2","0"};

	push	OFFSET FLAT:?sk_hassassin_health2@@3Ucvar_s@@A ; sk_hassassin_health2
	call	DWORD PTR ?g_engfuncs@@3Uenginefuncs_s@@A+224
	add	esp, 4

; 643  : 	CVAR_REGISTER ( &sk_hassassin_health3 );// {"sk_hassassin_health3","0"};

	push	OFFSET FLAT:?sk_hassassin_health3@@3Ucvar_s@@A ; sk_hassassin_health3
	call	DWORD PTR ?g_engfuncs@@3Uenginefuncs_s@@A+224
	add	esp, 4

; 644  : 
; 645  : 
; 646  : 	// Headcrab
; 647  : 	CVAR_REGISTER ( &sk_headcrab_health1 );// {"sk_headcrab_health1","0"};

	push	OFFSET FLAT:?sk_headcrab_health1@@3Ucvar_s@@A ; sk_headcrab_health1
	call	DWORD PTR ?g_engfuncs@@3Uenginefuncs_s@@A+224
	add	esp, 4

; 648  : 	CVAR_REGISTER ( &sk_headcrab_health2 );// {"sk_headcrab_health2","0"};

	push	OFFSET FLAT:?sk_headcrab_health2@@3Ucvar_s@@A ; sk_headcrab_health2
	call	DWORD PTR ?g_engfuncs@@3Uenginefuncs_s@@A+224
	add	esp, 4

; 649  : 	CVAR_REGISTER ( &sk_headcrab_health3 );// {"sk_headcrab_health3","0"};

	push	OFFSET FLAT:?sk_headcrab_health3@@3Ucvar_s@@A ; sk_headcrab_health3
	call	DWORD PTR ?g_engfuncs@@3Uenginefuncs_s@@A+224
	add	esp, 4

; 650  : 
; 651  : 	CVAR_REGISTER ( &sk_headcrab_dmg_bite1 );// {"sk_headcrab_dmg_bite1","0"};

	push	OFFSET FLAT:?sk_headcrab_dmg_bite1@@3Ucvar_s@@A ; sk_headcrab_dmg_bite1
	call	DWORD PTR ?g_engfuncs@@3Uenginefuncs_s@@A+224
	add	esp, 4

; 652  : 	CVAR_REGISTER ( &sk_headcrab_dmg_bite2 );// {"sk_headcrab_dmg_bite2","0"};

	push	OFFSET FLAT:?sk_headcrab_dmg_bite2@@3Ucvar_s@@A ; sk_headcrab_dmg_bite2
	call	DWORD PTR ?g_engfuncs@@3Uenginefuncs_s@@A+224
	add	esp, 4

; 653  : 	CVAR_REGISTER ( &sk_headcrab_dmg_bite3 );// {"sk_headcrab_dmg_bite3","0"};

	push	OFFSET FLAT:?sk_headcrab_dmg_bite3@@3Ucvar_s@@A ; sk_headcrab_dmg_bite3
	call	DWORD PTR ?g_engfuncs@@3Uenginefuncs_s@@A+224
	add	esp, 4

; 654  : 
; 655  : 
; 656  : 	// Hgrunt
; 657  : 	CVAR_REGISTER ( &sk_hgrunt_health1 );// {"sk_hgrunt_health1","0"};

	push	OFFSET FLAT:?sk_hgrunt_health1@@3Ucvar_s@@A ; sk_hgrunt_health1
	call	DWORD PTR ?g_engfuncs@@3Uenginefuncs_s@@A+224
	add	esp, 4

; 658  : 	CVAR_REGISTER ( &sk_hgrunt_health2 );// {"sk_hgrunt_health2","0"};

	push	OFFSET FLAT:?sk_hgrunt_health2@@3Ucvar_s@@A ; sk_hgrunt_health2
	call	DWORD PTR ?g_engfuncs@@3Uenginefuncs_s@@A+224
	add	esp, 4

; 659  : 	CVAR_REGISTER ( &sk_hgrunt_health3 );// {"sk_hgrunt_health3","0"};

	push	OFFSET FLAT:?sk_hgrunt_health3@@3Ucvar_s@@A ; sk_hgrunt_health3
	call	DWORD PTR ?g_engfuncs@@3Uenginefuncs_s@@A+224
	add	esp, 4

; 660  : 
; 661  : 	CVAR_REGISTER ( &sk_hgrunt_kick1 );// {"sk_hgrunt_kick1","0"};

	push	OFFSET FLAT:?sk_hgrunt_kick1@@3Ucvar_s@@A ; sk_hgrunt_kick1
	call	DWORD PTR ?g_engfuncs@@3Uenginefuncs_s@@A+224
	add	esp, 4

; 662  : 	CVAR_REGISTER ( &sk_hgrunt_kick2 );// {"sk_hgrunt_kick2","0"};

	push	OFFSET FLAT:?sk_hgrunt_kick2@@3Ucvar_s@@A ; sk_hgrunt_kick2
	call	DWORD PTR ?g_engfuncs@@3Uenginefuncs_s@@A+224
	add	esp, 4

; 663  : 	CVAR_REGISTER ( &sk_hgrunt_kick3 );// {"sk_hgrunt_kick3","0"};

	push	OFFSET FLAT:?sk_hgrunt_kick3@@3Ucvar_s@@A ; sk_hgrunt_kick3
	call	DWORD PTR ?g_engfuncs@@3Uenginefuncs_s@@A+224
	add	esp, 4

; 664  : 
; 665  : 	CVAR_REGISTER ( &sk_hgrunt_pellets1 );

	push	OFFSET FLAT:?sk_hgrunt_pellets1@@3Ucvar_s@@A ; sk_hgrunt_pellets1
	call	DWORD PTR ?g_engfuncs@@3Uenginefuncs_s@@A+224
	add	esp, 4

; 666  : 	CVAR_REGISTER ( &sk_hgrunt_pellets2 );

	push	OFFSET FLAT:?sk_hgrunt_pellets2@@3Ucvar_s@@A ; sk_hgrunt_pellets2
	call	DWORD PTR ?g_engfuncs@@3Uenginefuncs_s@@A+224
	add	esp, 4

; 667  : 	CVAR_REGISTER ( &sk_hgrunt_pellets3 );

	push	OFFSET FLAT:?sk_hgrunt_pellets3@@3Ucvar_s@@A ; sk_hgrunt_pellets3
	call	DWORD PTR ?g_engfuncs@@3Uenginefuncs_s@@A+224
	add	esp, 4

; 668  : 
; 669  : 	CVAR_REGISTER ( &sk_hgrunt_gspeed1 );

	push	OFFSET FLAT:?sk_hgrunt_gspeed1@@3Ucvar_s@@A ; sk_hgrunt_gspeed1
	call	DWORD PTR ?g_engfuncs@@3Uenginefuncs_s@@A+224
	add	esp, 4

; 670  : 	CVAR_REGISTER ( &sk_hgrunt_gspeed2 );

	push	OFFSET FLAT:?sk_hgrunt_gspeed2@@3Ucvar_s@@A ; sk_hgrunt_gspeed2
	call	DWORD PTR ?g_engfuncs@@3Uenginefuncs_s@@A+224
	add	esp, 4

; 671  : 	CVAR_REGISTER ( &sk_hgrunt_gspeed3 );

	push	OFFSET FLAT:?sk_hgrunt_gspeed3@@3Ucvar_s@@A ; sk_hgrunt_gspeed3
	call	DWORD PTR ?g_engfuncs@@3Uenginefuncs_s@@A+224
	add	esp, 4

; 672  : 
; 673  : 	// Houndeye
; 674  : 	CVAR_REGISTER ( &sk_houndeye_health1 );// {"sk_houndeye_health1","0"};

	push	OFFSET FLAT:?sk_houndeye_health1@@3Ucvar_s@@A ; sk_houndeye_health1
	call	DWORD PTR ?g_engfuncs@@3Uenginefuncs_s@@A+224
	add	esp, 4

; 675  : 	CVAR_REGISTER ( &sk_houndeye_health2 );// {"sk_houndeye_health2","0"};

	push	OFFSET FLAT:?sk_houndeye_health2@@3Ucvar_s@@A ; sk_houndeye_health2
	call	DWORD PTR ?g_engfuncs@@3Uenginefuncs_s@@A+224
	add	esp, 4

; 676  : 	CVAR_REGISTER ( &sk_houndeye_health3 );// {"sk_houndeye_health3","0"};

	push	OFFSET FLAT:?sk_houndeye_health3@@3Ucvar_s@@A ; sk_houndeye_health3
	call	DWORD PTR ?g_engfuncs@@3Uenginefuncs_s@@A+224
	add	esp, 4

; 677  : 
; 678  : 	CVAR_REGISTER ( &sk_houndeye_dmg_blast1 );// {"sk_houndeye_dmg_blast1","0"};

	push	OFFSET FLAT:?sk_houndeye_dmg_blast1@@3Ucvar_s@@A ; sk_houndeye_dmg_blast1
	call	DWORD PTR ?g_engfuncs@@3Uenginefuncs_s@@A+224
	add	esp, 4

; 679  : 	CVAR_REGISTER ( &sk_houndeye_dmg_blast2 );// {"sk_houndeye_dmg_blast2","0"};

	push	OFFSET FLAT:?sk_houndeye_dmg_blast2@@3Ucvar_s@@A ; sk_houndeye_dmg_blast2
	call	DWORD PTR ?g_engfuncs@@3Uenginefuncs_s@@A+224
	add	esp, 4

; 680  : 	CVAR_REGISTER ( &sk_houndeye_dmg_blast3 );// {"sk_houndeye_dmg_blast3","0"};

	push	OFFSET FLAT:?sk_houndeye_dmg_blast3@@3Ucvar_s@@A ; sk_houndeye_dmg_blast3
	call	DWORD PTR ?g_engfuncs@@3Uenginefuncs_s@@A+224
	add	esp, 4

; 681  : 
; 682  : 
; 683  : 	// ISlave
; 684  : 	CVAR_REGISTER ( &sk_islave_health1 );// {"sk_islave_health1","0"};

	push	OFFSET FLAT:?sk_islave_health1@@3Ucvar_s@@A ; sk_islave_health1
	call	DWORD PTR ?g_engfuncs@@3Uenginefuncs_s@@A+224
	add	esp, 4

; 685  : 	CVAR_REGISTER ( &sk_islave_health2 );// {"sk_islave_health2","0"};

	push	OFFSET FLAT:?sk_islave_health2@@3Ucvar_s@@A ; sk_islave_health2
	call	DWORD PTR ?g_engfuncs@@3Uenginefuncs_s@@A+224
	add	esp, 4

; 686  : 	CVAR_REGISTER ( &sk_islave_health3 );// {"sk_islave_health3","0"};

	push	OFFSET FLAT:?sk_islave_health3@@3Ucvar_s@@A ; sk_islave_health3
	call	DWORD PTR ?g_engfuncs@@3Uenginefuncs_s@@A+224
	add	esp, 4

; 687  : 
; 688  : 	CVAR_REGISTER ( &sk_islave_dmg_claw1 );// {"sk_islave_dmg_claw1","0"};

	push	OFFSET FLAT:?sk_islave_dmg_claw1@@3Ucvar_s@@A ; sk_islave_dmg_claw1
	call	DWORD PTR ?g_engfuncs@@3Uenginefuncs_s@@A+224
	add	esp, 4

; 689  : 	CVAR_REGISTER ( &sk_islave_dmg_claw2 );// {"sk_islave_dmg_claw2","0"};

	push	OFFSET FLAT:?sk_islave_dmg_claw2@@3Ucvar_s@@A ; sk_islave_dmg_claw2
	call	DWORD PTR ?g_engfuncs@@3Uenginefuncs_s@@A+224
	add	esp, 4

; 690  : 	CVAR_REGISTER ( &sk_islave_dmg_claw3 );// {"sk_islave_dmg_claw3","0"};

	push	OFFSET FLAT:?sk_islave_dmg_claw3@@3Ucvar_s@@A ; sk_islave_dmg_claw3
	call	DWORD PTR ?g_engfuncs@@3Uenginefuncs_s@@A+224
	add	esp, 4

; 691  : 
; 692  : 	CVAR_REGISTER ( &sk_islave_dmg_clawrake1	);// {"sk_islave_dmg_clawrake1","0"};

	push	OFFSET FLAT:?sk_islave_dmg_clawrake1@@3Ucvar_s@@A ; sk_islave_dmg_clawrake1
	call	DWORD PTR ?g_engfuncs@@3Uenginefuncs_s@@A+224
	add	esp, 4

; 693  : 	CVAR_REGISTER ( &sk_islave_dmg_clawrake2	);// {"sk_islave_dmg_clawrake2","0"};

	push	OFFSET FLAT:?sk_islave_dmg_clawrake2@@3Ucvar_s@@A ; sk_islave_dmg_clawrake2
	call	DWORD PTR ?g_engfuncs@@3Uenginefuncs_s@@A+224
	add	esp, 4

; 694  : 	CVAR_REGISTER ( &sk_islave_dmg_clawrake3	);// {"sk_islave_dmg_clawrake3","0"};

	push	OFFSET FLAT:?sk_islave_dmg_clawrake3@@3Ucvar_s@@A ; sk_islave_dmg_clawrake3
	call	DWORD PTR ?g_engfuncs@@3Uenginefuncs_s@@A+224
	add	esp, 4

; 695  : 
; 696  : 	CVAR_REGISTER ( &sk_islave_dmg_zap1 );// {"sk_islave_dmg_zap1","0"};

	push	OFFSET FLAT:?sk_islave_dmg_zap1@@3Ucvar_s@@A ; sk_islave_dmg_zap1
	call	DWORD PTR ?g_engfuncs@@3Uenginefuncs_s@@A+224
	add	esp, 4

; 697  : 	CVAR_REGISTER ( &sk_islave_dmg_zap2 );// {"sk_islave_dmg_zap2","0"};

	push	OFFSET FLAT:?sk_islave_dmg_zap2@@3Ucvar_s@@A ; sk_islave_dmg_zap2
	call	DWORD PTR ?g_engfuncs@@3Uenginefuncs_s@@A+224
	add	esp, 4

; 698  : 	CVAR_REGISTER ( &sk_islave_dmg_zap3 );// {"sk_islave_dmg_zap3","0"};

	push	OFFSET FLAT:?sk_islave_dmg_zap3@@3Ucvar_s@@A ; sk_islave_dmg_zap3
	call	DWORD PTR ?g_engfuncs@@3Uenginefuncs_s@@A+224
	add	esp, 4

; 699  : 
; 700  : 
; 701  : 	// Icthyosaur
; 702  : 	CVAR_REGISTER ( &sk_ichthyosaur_health1	);// {"sk_ichthyosaur_health1","0"};

	push	OFFSET FLAT:?sk_ichthyosaur_health1@@3Ucvar_s@@A ; sk_ichthyosaur_health1
	call	DWORD PTR ?g_engfuncs@@3Uenginefuncs_s@@A+224
	add	esp, 4

; 703  : 	CVAR_REGISTER ( &sk_ichthyosaur_health2	);// {"sk_ichthyosaur_health2","0"};

	push	OFFSET FLAT:?sk_ichthyosaur_health2@@3Ucvar_s@@A ; sk_ichthyosaur_health2
	call	DWORD PTR ?g_engfuncs@@3Uenginefuncs_s@@A+224
	add	esp, 4

; 704  : 	CVAR_REGISTER ( &sk_ichthyosaur_health3	);// {"sk_ichthyosaur_health3","0"};

	push	OFFSET FLAT:?sk_ichthyosaur_health3@@3Ucvar_s@@A ; sk_ichthyosaur_health3
	call	DWORD PTR ?g_engfuncs@@3Uenginefuncs_s@@A+224
	add	esp, 4

; 705  : 
; 706  : 	CVAR_REGISTER ( &sk_ichthyosaur_shake1	);// {"sk_ichthyosaur_health3","0"};

	push	OFFSET FLAT:?sk_ichthyosaur_shake1@@3Ucvar_s@@A ; sk_ichthyosaur_shake1
	call	DWORD PTR ?g_engfuncs@@3Uenginefuncs_s@@A+224
	add	esp, 4

; 707  : 	CVAR_REGISTER ( &sk_ichthyosaur_shake2	);// {"sk_ichthyosaur_health3","0"};

	push	OFFSET FLAT:?sk_ichthyosaur_shake2@@3Ucvar_s@@A ; sk_ichthyosaur_shake2
	call	DWORD PTR ?g_engfuncs@@3Uenginefuncs_s@@A+224
	add	esp, 4

; 708  : 	CVAR_REGISTER ( &sk_ichthyosaur_shake3	);// {"sk_ichthyosaur_health3","0"};

	push	OFFSET FLAT:?sk_ichthyosaur_shake3@@3Ucvar_s@@A ; sk_ichthyosaur_shake3
	call	DWORD PTR ?g_engfuncs@@3Uenginefuncs_s@@A+224
	add	esp, 4

; 709  : 
; 710  : 
; 711  : 
; 712  : 	// Leech
; 713  : 	CVAR_REGISTER ( &sk_leech_health1 );// {"sk_leech_health1","0"};

	push	OFFSET FLAT:?sk_leech_health1@@3Ucvar_s@@A ; sk_leech_health1
	call	DWORD PTR ?g_engfuncs@@3Uenginefuncs_s@@A+224
	add	esp, 4

; 714  : 	CVAR_REGISTER ( &sk_leech_health2 );// {"sk_leech_health2","0"};

	push	OFFSET FLAT:?sk_leech_health2@@3Ucvar_s@@A ; sk_leech_health2
	call	DWORD PTR ?g_engfuncs@@3Uenginefuncs_s@@A+224
	add	esp, 4

; 715  : 	CVAR_REGISTER ( &sk_leech_health3 );// {"sk_leech_health3","0"};

	push	OFFSET FLAT:?sk_leech_health3@@3Ucvar_s@@A ; sk_leech_health3
	call	DWORD PTR ?g_engfuncs@@3Uenginefuncs_s@@A+224
	add	esp, 4

; 716  : 
; 717  : 	CVAR_REGISTER ( &sk_leech_dmg_bite1 );// {"sk_leech_dmg_bite1","0"};

	push	OFFSET FLAT:?sk_leech_dmg_bite1@@3Ucvar_s@@A ; sk_leech_dmg_bite1
	call	DWORD PTR ?g_engfuncs@@3Uenginefuncs_s@@A+224
	add	esp, 4

; 718  : 	CVAR_REGISTER ( &sk_leech_dmg_bite2 );// {"sk_leech_dmg_bite2","0"};

	push	OFFSET FLAT:?sk_leech_dmg_bite2@@3Ucvar_s@@A ; sk_leech_dmg_bite2
	call	DWORD PTR ?g_engfuncs@@3Uenginefuncs_s@@A+224
	add	esp, 4

; 719  : 	CVAR_REGISTER ( &sk_leech_dmg_bite3 );// {"sk_leech_dmg_bite3","0"};

	push	OFFSET FLAT:?sk_leech_dmg_bite3@@3Ucvar_s@@A ; sk_leech_dmg_bite3
	call	DWORD PTR ?g_engfuncs@@3Uenginefuncs_s@@A+224
	add	esp, 4

; 720  : 
; 721  : 
; 722  : 	// Controller
; 723  : 	CVAR_REGISTER ( &sk_controller_health1 );

	push	OFFSET FLAT:?sk_controller_health1@@3Ucvar_s@@A ; sk_controller_health1
	call	DWORD PTR ?g_engfuncs@@3Uenginefuncs_s@@A+224
	add	esp, 4

; 724  : 	CVAR_REGISTER ( &sk_controller_health2 );

	push	OFFSET FLAT:?sk_controller_health2@@3Ucvar_s@@A ; sk_controller_health2
	call	DWORD PTR ?g_engfuncs@@3Uenginefuncs_s@@A+224
	add	esp, 4

; 725  : 	CVAR_REGISTER ( &sk_controller_health3 );

	push	OFFSET FLAT:?sk_controller_health3@@3Ucvar_s@@A ; sk_controller_health3
	call	DWORD PTR ?g_engfuncs@@3Uenginefuncs_s@@A+224
	add	esp, 4

; 726  : 
; 727  : 	CVAR_REGISTER ( &sk_controller_dmgzap1 );

	push	OFFSET FLAT:?sk_controller_dmgzap1@@3Ucvar_s@@A ; sk_controller_dmgzap1
	call	DWORD PTR ?g_engfuncs@@3Uenginefuncs_s@@A+224
	add	esp, 4

; 728  : 	CVAR_REGISTER ( &sk_controller_dmgzap2 );

	push	OFFSET FLAT:?sk_controller_dmgzap2@@3Ucvar_s@@A ; sk_controller_dmgzap2
	call	DWORD PTR ?g_engfuncs@@3Uenginefuncs_s@@A+224
	add	esp, 4

; 729  : 	CVAR_REGISTER ( &sk_controller_dmgzap3 );

	push	OFFSET FLAT:?sk_controller_dmgzap3@@3Ucvar_s@@A ; sk_controller_dmgzap3
	call	DWORD PTR ?g_engfuncs@@3Uenginefuncs_s@@A+224
	add	esp, 4

; 730  : 
; 731  : 	CVAR_REGISTER ( &sk_controller_speedball1 );

	push	OFFSET FLAT:?sk_controller_speedball1@@3Ucvar_s@@A ; sk_controller_speedball1
	call	DWORD PTR ?g_engfuncs@@3Uenginefuncs_s@@A+224
	add	esp, 4

; 732  : 	CVAR_REGISTER ( &sk_controller_speedball2 );

	push	OFFSET FLAT:?sk_controller_speedball2@@3Ucvar_s@@A ; sk_controller_speedball2
	call	DWORD PTR ?g_engfuncs@@3Uenginefuncs_s@@A+224
	add	esp, 4

; 733  : 	CVAR_REGISTER ( &sk_controller_speedball3 );

	push	OFFSET FLAT:?sk_controller_speedball3@@3Ucvar_s@@A ; sk_controller_speedball3
	call	DWORD PTR ?g_engfuncs@@3Uenginefuncs_s@@A+224
	add	esp, 4

; 734  : 
; 735  : 	CVAR_REGISTER ( &sk_controller_dmgball1 );

	push	OFFSET FLAT:?sk_controller_dmgball1@@3Ucvar_s@@A ; sk_controller_dmgball1
	call	DWORD PTR ?g_engfuncs@@3Uenginefuncs_s@@A+224
	add	esp, 4

; 736  : 	CVAR_REGISTER ( &sk_controller_dmgball2 );

	push	OFFSET FLAT:?sk_controller_dmgball2@@3Ucvar_s@@A ; sk_controller_dmgball2
	call	DWORD PTR ?g_engfuncs@@3Uenginefuncs_s@@A+224
	add	esp, 4

; 737  : 	CVAR_REGISTER ( &sk_controller_dmgball3 );

	push	OFFSET FLAT:?sk_controller_dmgball3@@3Ucvar_s@@A ; sk_controller_dmgball3
	call	DWORD PTR ?g_engfuncs@@3Uenginefuncs_s@@A+224
	add	esp, 4

; 738  : 
; 739  : 	// Nihilanth
; 740  : 	CVAR_REGISTER ( &sk_nihilanth_health1 );// {"sk_nihilanth_health1","0"};

	push	OFFSET FLAT:?sk_nihilanth_health1@@3Ucvar_s@@A ; sk_nihilanth_health1
	call	DWORD PTR ?g_engfuncs@@3Uenginefuncs_s@@A+224
	add	esp, 4

; 741  : 	CVAR_REGISTER ( &sk_nihilanth_health2 );// {"sk_nihilanth_health2","0"};

	push	OFFSET FLAT:?sk_nihilanth_health2@@3Ucvar_s@@A ; sk_nihilanth_health2
	call	DWORD PTR ?g_engfuncs@@3Uenginefuncs_s@@A+224
	add	esp, 4

; 742  : 	CVAR_REGISTER ( &sk_nihilanth_health3 );// {"sk_nihilanth_health3","0"};

	push	OFFSET FLAT:?sk_nihilanth_health3@@3Ucvar_s@@A ; sk_nihilanth_health3
	call	DWORD PTR ?g_engfuncs@@3Uenginefuncs_s@@A+224
	add	esp, 4

; 743  : 
; 744  : 	CVAR_REGISTER ( &sk_nihilanth_zap1 );

	push	OFFSET FLAT:?sk_nihilanth_zap1@@3Ucvar_s@@A ; sk_nihilanth_zap1
	call	DWORD PTR ?g_engfuncs@@3Uenginefuncs_s@@A+224
	add	esp, 4

; 745  : 	CVAR_REGISTER ( &sk_nihilanth_zap2 );

	push	OFFSET FLAT:?sk_nihilanth_zap2@@3Ucvar_s@@A ; sk_nihilanth_zap2
	call	DWORD PTR ?g_engfuncs@@3Uenginefuncs_s@@A+224
	add	esp, 4

; 746  : 	CVAR_REGISTER ( &sk_nihilanth_zap3 );

	push	OFFSET FLAT:?sk_nihilanth_zap3@@3Ucvar_s@@A ; sk_nihilanth_zap3
	call	DWORD PTR ?g_engfuncs@@3Uenginefuncs_s@@A+224
	add	esp, 4

; 747  : 
; 748  : 	// Scientist
; 749  : 	CVAR_REGISTER ( &sk_scientist_health1 );// {"sk_scientist_health1","0"};

	push	OFFSET FLAT:?sk_scientist_health1@@3Ucvar_s@@A ; sk_scientist_health1
	call	DWORD PTR ?g_engfuncs@@3Uenginefuncs_s@@A+224
	add	esp, 4

; 750  : 	CVAR_REGISTER ( &sk_scientist_health2 );// {"sk_scientist_health2","0"};

	push	OFFSET FLAT:?sk_scientist_health2@@3Ucvar_s@@A ; sk_scientist_health2
	call	DWORD PTR ?g_engfuncs@@3Uenginefuncs_s@@A+224
	add	esp, 4

; 751  : 	CVAR_REGISTER ( &sk_scientist_health3 );// {"sk_scientist_health3","0"};

	push	OFFSET FLAT:?sk_scientist_health3@@3Ucvar_s@@A ; sk_scientist_health3
	call	DWORD PTR ?g_engfuncs@@3Uenginefuncs_s@@A+224
	add	esp, 4

; 752  : 
; 753  : 
; 754  : 	// Snark
; 755  : 	CVAR_REGISTER ( &sk_snark_health1 );// {"sk_snark_health1","0"};

	push	OFFSET FLAT:?sk_snark_health1@@3Ucvar_s@@A ; sk_snark_health1
	call	DWORD PTR ?g_engfuncs@@3Uenginefuncs_s@@A+224
	add	esp, 4

; 756  : 	CVAR_REGISTER ( &sk_snark_health2 );// {"sk_snark_health2","0"};

	push	OFFSET FLAT:?sk_snark_health2@@3Ucvar_s@@A ; sk_snark_health2
	call	DWORD PTR ?g_engfuncs@@3Uenginefuncs_s@@A+224
	add	esp, 4

; 757  : 	CVAR_REGISTER ( &sk_snark_health3 );// {"sk_snark_health3","0"};

	push	OFFSET FLAT:?sk_snark_health3@@3Ucvar_s@@A ; sk_snark_health3
	call	DWORD PTR ?g_engfuncs@@3Uenginefuncs_s@@A+224
	add	esp, 4

; 758  : 
; 759  : 	CVAR_REGISTER ( &sk_snark_dmg_bite1 );// {"sk_snark_dmg_bite1","0"};

	push	OFFSET FLAT:?sk_snark_dmg_bite1@@3Ucvar_s@@A ; sk_snark_dmg_bite1
	call	DWORD PTR ?g_engfuncs@@3Uenginefuncs_s@@A+224
	add	esp, 4

; 760  : 	CVAR_REGISTER ( &sk_snark_dmg_bite2 );// {"sk_snark_dmg_bite2","0"};

	push	OFFSET FLAT:?sk_snark_dmg_bite2@@3Ucvar_s@@A ; sk_snark_dmg_bite2
	call	DWORD PTR ?g_engfuncs@@3Uenginefuncs_s@@A+224
	add	esp, 4

; 761  : 	CVAR_REGISTER ( &sk_snark_dmg_bite3 );// {"sk_snark_dmg_bite3","0"};

	push	OFFSET FLAT:?sk_snark_dmg_bite3@@3Ucvar_s@@A ; sk_snark_dmg_bite3
	call	DWORD PTR ?g_engfuncs@@3Uenginefuncs_s@@A+224
	add	esp, 4

; 762  : 
; 763  : 	CVAR_REGISTER ( &sk_snark_dmg_pop1 );// {"sk_snark_dmg_pop1","0"};

	push	OFFSET FLAT:?sk_snark_dmg_pop1@@3Ucvar_s@@A ; sk_snark_dmg_pop1
	call	DWORD PTR ?g_engfuncs@@3Uenginefuncs_s@@A+224
	add	esp, 4

; 764  : 	CVAR_REGISTER ( &sk_snark_dmg_pop2 );// {"sk_snark_dmg_pop2","0"};

	push	OFFSET FLAT:?sk_snark_dmg_pop2@@3Ucvar_s@@A ; sk_snark_dmg_pop2
	call	DWORD PTR ?g_engfuncs@@3Uenginefuncs_s@@A+224
	add	esp, 4

; 765  : 	CVAR_REGISTER ( &sk_snark_dmg_pop3 );// {"sk_snark_dmg_pop3","0"};

	push	OFFSET FLAT:?sk_snark_dmg_pop3@@3Ucvar_s@@A ; sk_snark_dmg_pop3
	call	DWORD PTR ?g_engfuncs@@3Uenginefuncs_s@@A+224
	add	esp, 4

; 766  : 
; 767  : 
; 768  : 
; 769  : 	// Zombie
; 770  : 	CVAR_REGISTER ( &sk_zombie_health1 );// {"sk_zombie_health1","0"};

	push	OFFSET FLAT:?sk_zombie_health1@@3Ucvar_s@@A ; sk_zombie_health1
	call	DWORD PTR ?g_engfuncs@@3Uenginefuncs_s@@A+224
	add	esp, 4

; 771  : 	CVAR_REGISTER ( &sk_zombie_health2 );// {"sk_zombie_health3","0"};

	push	OFFSET FLAT:?sk_zombie_health2@@3Ucvar_s@@A ; sk_zombie_health2
	call	DWORD PTR ?g_engfuncs@@3Uenginefuncs_s@@A+224
	add	esp, 4

; 772  : 	CVAR_REGISTER ( &sk_zombie_health3 );// {"sk_zombie_health3","0"};

	push	OFFSET FLAT:?sk_zombie_health3@@3Ucvar_s@@A ; sk_zombie_health3
	call	DWORD PTR ?g_engfuncs@@3Uenginefuncs_s@@A+224
	add	esp, 4

; 773  : 
; 774  : 	CVAR_REGISTER ( &sk_zombie_dmg_one_slash1 );// {"sk_zombie_dmg_one_slash1","0"};

	push	OFFSET FLAT:?sk_zombie_dmg_one_slash1@@3Ucvar_s@@A ; sk_zombie_dmg_one_slash1
	call	DWORD PTR ?g_engfuncs@@3Uenginefuncs_s@@A+224
	add	esp, 4

; 775  : 	CVAR_REGISTER ( &sk_zombie_dmg_one_slash2 );// {"sk_zombie_dmg_one_slash2","0"};

	push	OFFSET FLAT:?sk_zombie_dmg_one_slash2@@3Ucvar_s@@A ; sk_zombie_dmg_one_slash2
	call	DWORD PTR ?g_engfuncs@@3Uenginefuncs_s@@A+224
	add	esp, 4

; 776  : 	CVAR_REGISTER ( &sk_zombie_dmg_one_slash3 );// {"sk_zombie_dmg_one_slash3","0"};

	push	OFFSET FLAT:?sk_zombie_dmg_one_slash3@@3Ucvar_s@@A ; sk_zombie_dmg_one_slash3
	call	DWORD PTR ?g_engfuncs@@3Uenginefuncs_s@@A+224
	add	esp, 4

; 777  : 
; 778  : 	CVAR_REGISTER ( &sk_zombie_dmg_both_slash1 );// {"sk_zombie_dmg_both_slash1","0"};

	push	OFFSET FLAT:?sk_zombie_dmg_both_slash1@@3Ucvar_s@@A ; sk_zombie_dmg_both_slash1
	call	DWORD PTR ?g_engfuncs@@3Uenginefuncs_s@@A+224
	add	esp, 4

; 779  : 	CVAR_REGISTER ( &sk_zombie_dmg_both_slash2 );// {"sk_zombie_dmg_both_slash2","0"};

	push	OFFSET FLAT:?sk_zombie_dmg_both_slash2@@3Ucvar_s@@A ; sk_zombie_dmg_both_slash2
	call	DWORD PTR ?g_engfuncs@@3Uenginefuncs_s@@A+224
	add	esp, 4

; 780  : 	CVAR_REGISTER ( &sk_zombie_dmg_both_slash3 );// {"sk_zombie_dmg_both_slash3","0"};

	push	OFFSET FLAT:?sk_zombie_dmg_both_slash3@@3Ucvar_s@@A ; sk_zombie_dmg_both_slash3
	call	DWORD PTR ?g_engfuncs@@3Uenginefuncs_s@@A+224
	add	esp, 4

; 781  : 
; 782  : 
; 783  : 	//Turret
; 784  : 	CVAR_REGISTER ( &sk_turret_health1 );// {"sk_turret_health1","0"};

	push	OFFSET FLAT:?sk_turret_health1@@3Ucvar_s@@A ; sk_turret_health1
	call	DWORD PTR ?g_engfuncs@@3Uenginefuncs_s@@A+224
	add	esp, 4

; 785  : 	CVAR_REGISTER ( &sk_turret_health2 );// {"sk_turret_health2","0"};

	push	OFFSET FLAT:?sk_turret_health2@@3Ucvar_s@@A ; sk_turret_health2
	call	DWORD PTR ?g_engfuncs@@3Uenginefuncs_s@@A+224
	add	esp, 4

; 786  : 	CVAR_REGISTER ( &sk_turret_health3 );// {"sk_turret_health3","0"};

	push	OFFSET FLAT:?sk_turret_health3@@3Ucvar_s@@A ; sk_turret_health3
	call	DWORD PTR ?g_engfuncs@@3Uenginefuncs_s@@A+224
	add	esp, 4

; 787  : 
; 788  : 
; 789  : 	// MiniTurret
; 790  : 	CVAR_REGISTER ( &sk_miniturret_health1 );// {"sk_miniturret_health1","0"};

	push	OFFSET FLAT:?sk_miniturret_health1@@3Ucvar_s@@A ; sk_miniturret_health1
	call	DWORD PTR ?g_engfuncs@@3Uenginefuncs_s@@A+224
	add	esp, 4

; 791  : 	CVAR_REGISTER ( &sk_miniturret_health2 );// {"sk_miniturret_health2","0"};

	push	OFFSET FLAT:?sk_miniturret_health2@@3Ucvar_s@@A ; sk_miniturret_health2
	call	DWORD PTR ?g_engfuncs@@3Uenginefuncs_s@@A+224
	add	esp, 4

; 792  : 	CVAR_REGISTER ( &sk_miniturret_health3 );// {"sk_miniturret_health3","0"};

	push	OFFSET FLAT:?sk_miniturret_health3@@3Ucvar_s@@A ; sk_miniturret_health3
	call	DWORD PTR ?g_engfuncs@@3Uenginefuncs_s@@A+224
	add	esp, 4

; 793  : 
; 794  : 
; 795  : 	// Sentry Turret
; 796  : 	CVAR_REGISTER ( &sk_sentry_health1 );// {"sk_sentry_health1","0"};

	push	OFFSET FLAT:?sk_sentry_health1@@3Ucvar_s@@A ; sk_sentry_health1
	call	DWORD PTR ?g_engfuncs@@3Uenginefuncs_s@@A+224
	add	esp, 4

; 797  : 	CVAR_REGISTER ( &sk_sentry_health2 );// {"sk_sentry_health2","0"};

	push	OFFSET FLAT:?sk_sentry_health2@@3Ucvar_s@@A ; sk_sentry_health2
	call	DWORD PTR ?g_engfuncs@@3Uenginefuncs_s@@A+224
	add	esp, 4

; 798  : 	CVAR_REGISTER ( &sk_sentry_health3 );// {"sk_sentry_health3","0"};

	push	OFFSET FLAT:?sk_sentry_health3@@3Ucvar_s@@A ; sk_sentry_health3
	call	DWORD PTR ?g_engfuncs@@3Uenginefuncs_s@@A+224
	add	esp, 4

; 799  : 
; 800  : 
; 801  : 	// PLAYER WEAPONS
; 802  : 
; 803  : 	// Crowbar whack
; 804  : 	CVAR_REGISTER ( &sk_plr_crowbar1 );// {"sk_plr_crowbar1","0"};

	push	OFFSET FLAT:?sk_plr_crowbar1@@3Ucvar_s@@A ; sk_plr_crowbar1
	call	DWORD PTR ?g_engfuncs@@3Uenginefuncs_s@@A+224
	add	esp, 4

; 805  : 	CVAR_REGISTER ( &sk_plr_crowbar2 );// {"sk_plr_crowbar2","0"};

	push	OFFSET FLAT:?sk_plr_crowbar2@@3Ucvar_s@@A ; sk_plr_crowbar2
	call	DWORD PTR ?g_engfuncs@@3Uenginefuncs_s@@A+224
	add	esp, 4

; 806  : 	CVAR_REGISTER ( &sk_plr_crowbar3 );// {"sk_plr_crowbar3","0"};

	push	OFFSET FLAT:?sk_plr_crowbar3@@3Ucvar_s@@A ; sk_plr_crowbar3
	call	DWORD PTR ?g_engfuncs@@3Uenginefuncs_s@@A+224
	add	esp, 4

; 807  : 
; 808  : 	// Crowbar stab
; 809  : 	CVAR_REGISTER ( &sk_plr_crowbar_stab1 );// {"sk_plr_crowbar_stab1","0"};

	push	OFFSET FLAT:?sk_plr_crowbar_stab1@@3Ucvar_s@@A ; sk_plr_crowbar_stab1
	call	DWORD PTR ?g_engfuncs@@3Uenginefuncs_s@@A+224
	add	esp, 4

; 810  : 	CVAR_REGISTER ( &sk_plr_crowbar_stab2 );// {"sk_plr_crowbar_stab2","0"};

	push	OFFSET FLAT:?sk_plr_crowbar_stab2@@3Ucvar_s@@A ; sk_plr_crowbar_stab2
	call	DWORD PTR ?g_engfuncs@@3Uenginefuncs_s@@A+224
	add	esp, 4

; 811  : 	CVAR_REGISTER ( &sk_plr_crowbar_stab3 );// {"sk_plr_crowbar_stab3","0"};

	push	OFFSET FLAT:?sk_plr_crowbar_stab3@@3Ucvar_s@@A ; sk_plr_crowbar_stab3
	call	DWORD PTR ?g_engfuncs@@3Uenginefuncs_s@@A+224
	add	esp, 4

; 812  : 
; 813  : 	// Axe primary
; 814  : 	CVAR_REGISTER ( &sk_plr_axe1 );// {"sk_plr_axe1","0"};

	push	OFFSET FLAT:?sk_plr_axe1@@3Ucvar_s@@A	; sk_plr_axe1
	call	DWORD PTR ?g_engfuncs@@3Uenginefuncs_s@@A+224
	add	esp, 4

; 815  : 	CVAR_REGISTER ( &sk_plr_axe2 );// {"sk_plr_axe2","0"};

	push	OFFSET FLAT:?sk_plr_axe2@@3Ucvar_s@@A	; sk_plr_axe2
	call	DWORD PTR ?g_engfuncs@@3Uenginefuncs_s@@A+224
	add	esp, 4

; 816  : 	CVAR_REGISTER ( &sk_plr_axe3 );// {"sk_plr_axe3","0"};

	push	OFFSET FLAT:?sk_plr_axe3@@3Ucvar_s@@A	; sk_plr_axe3
	call	DWORD PTR ?g_engfuncs@@3Uenginefuncs_s@@A+224
	add	esp, 4

; 817  : 
; 818  : 	// Axe secondary
; 819  : 	CVAR_REGISTER ( &sk_plr_axe_sec1 );// {"sk_plr_axe_sec1","0"};

	push	OFFSET FLAT:?sk_plr_axe_sec1@@3Ucvar_s@@A ; sk_plr_axe_sec1
	call	DWORD PTR ?g_engfuncs@@3Uenginefuncs_s@@A+224
	add	esp, 4

; 820  : 	CVAR_REGISTER ( &sk_plr_axe_sec2 );// {"sk_plr_axe_sec2","0"};

	push	OFFSET FLAT:?sk_plr_axe_sec2@@3Ucvar_s@@A ; sk_plr_axe_sec2
	call	DWORD PTR ?g_engfuncs@@3Uenginefuncs_s@@A+224
	add	esp, 4

; 821  : 	CVAR_REGISTER ( &sk_plr_axe_sec3 );// {"sk_plr_axe_sec3","0"};

	push	OFFSET FLAT:?sk_plr_axe_sec3@@3Ucvar_s@@A ; sk_plr_axe_sec3
	call	DWORD PTR ?g_engfuncs@@3Uenginefuncs_s@@A+224
	add	esp, 4

; 822  : 
; 823  : 	// Chainsaw primary
; 824  : 	CVAR_REGISTER ( &sk_plr_chainsaw1 );// {"sk_plr_chainsaw1","0"};

	push	OFFSET FLAT:?sk_plr_chainsaw1@@3Ucvar_s@@A ; sk_plr_chainsaw1
	call	DWORD PTR ?g_engfuncs@@3Uenginefuncs_s@@A+224
	add	esp, 4

; 825  : 	CVAR_REGISTER ( &sk_plr_chainsaw2 );// {"sk_plr_chainsaw2","0"};

	push	OFFSET FLAT:?sk_plr_chainsaw2@@3Ucvar_s@@A ; sk_plr_chainsaw2
	call	DWORD PTR ?g_engfuncs@@3Uenginefuncs_s@@A+224
	add	esp, 4

; 826  : 	CVAR_REGISTER ( &sk_plr_chainsaw3 );// {"sk_plr_chainsaw3","0"};

	push	OFFSET FLAT:?sk_plr_chainsaw3@@3Ucvar_s@@A ; sk_plr_chainsaw3
	call	DWORD PTR ?g_engfuncs@@3Uenginefuncs_s@@A+224
	add	esp, 4

; 827  : 
; 828  : 	// Chainsaw secondary
; 829  : 	CVAR_REGISTER ( &sk_plr_chainsaw_sec1 );// {"sk_plr_chainsaw_sec1","0"};

	push	OFFSET FLAT:?sk_plr_chainsaw_sec1@@3Ucvar_s@@A ; sk_plr_chainsaw_sec1
	call	DWORD PTR ?g_engfuncs@@3Uenginefuncs_s@@A+224
	add	esp, 4

; 830  : 	CVAR_REGISTER ( &sk_plr_chainsaw_sec2 );// {"sk_plr_chainsaw_sec2","0"};

	push	OFFSET FLAT:?sk_plr_chainsaw_sec2@@3Ucvar_s@@A ; sk_plr_chainsaw_sec2
	call	DWORD PTR ?g_engfuncs@@3Uenginefuncs_s@@A+224
	add	esp, 4

; 831  : 	CVAR_REGISTER ( &sk_plr_chainsaw_sec3 );// {"sk_plr_chainsaw_sec3","0"};

	push	OFFSET FLAT:?sk_plr_chainsaw_sec3@@3Ucvar_s@@A ; sk_plr_chainsaw_sec3
	call	DWORD PTR ?g_engfuncs@@3Uenginefuncs_s@@A+224
	add	esp, 4

; 832  : 
; 833  : 	// Glock Round
; 834  : 	CVAR_REGISTER ( &sk_plr_9mm_bullet1 );// {"sk_plr_9mm_bullet1","0"};

	push	OFFSET FLAT:?sk_plr_9mm_bullet1@@3Ucvar_s@@A ; sk_plr_9mm_bullet1
	call	DWORD PTR ?g_engfuncs@@3Uenginefuncs_s@@A+224
	add	esp, 4

; 835  : 	CVAR_REGISTER ( &sk_plr_9mm_bullet2 );// {"sk_plr_9mm_bullet2","0"};

	push	OFFSET FLAT:?sk_plr_9mm_bullet2@@3Ucvar_s@@A ; sk_plr_9mm_bullet2
	call	DWORD PTR ?g_engfuncs@@3Uenginefuncs_s@@A+224
	add	esp, 4

; 836  : 	CVAR_REGISTER ( &sk_plr_9mm_bullet3 );// {"sk_plr_9mm_bullet3","0"};

	push	OFFSET FLAT:?sk_plr_9mm_bullet3@@3Ucvar_s@@A ; sk_plr_9mm_bullet3
	call	DWORD PTR ?g_engfuncs@@3Uenginefuncs_s@@A+224
	add	esp, 4

; 837  : 
; 838  : 	// 357 Round
; 839  : 	CVAR_REGISTER ( &sk_plr_357_bullet1 );// {"sk_plr_357_bullet1","0"};

	push	OFFSET FLAT:?sk_plr_357_bullet1@@3Ucvar_s@@A ; sk_plr_357_bullet1
	call	DWORD PTR ?g_engfuncs@@3Uenginefuncs_s@@A+224
	add	esp, 4

; 840  : 	CVAR_REGISTER ( &sk_plr_357_bullet2 );// {"sk_plr_357_bullet2","0"};

	push	OFFSET FLAT:?sk_plr_357_bullet2@@3Ucvar_s@@A ; sk_plr_357_bullet2
	call	DWORD PTR ?g_engfuncs@@3Uenginefuncs_s@@A+224
	add	esp, 4

; 841  : 	CVAR_REGISTER ( &sk_plr_357_bullet3 );// {"sk_plr_357_bullet3","0"};

	push	OFFSET FLAT:?sk_plr_357_bullet3@@3Ucvar_s@@A ; sk_plr_357_bullet3
	call	DWORD PTR ?g_engfuncs@@3Uenginefuncs_s@@A+224
	add	esp, 4

; 842  : 
; 843  : 	// MP5 Round
; 844  : 	CVAR_REGISTER ( &sk_plr_9mmAR_bullet1 );// {"sk_plr_9mmAR_bullet1","0"};

	push	OFFSET FLAT:?sk_plr_9mmAR_bullet1@@3Ucvar_s@@A ; sk_plr_9mmAR_bullet1
	call	DWORD PTR ?g_engfuncs@@3Uenginefuncs_s@@A+224
	add	esp, 4

; 845  : 	CVAR_REGISTER ( &sk_plr_9mmAR_bullet2 );// {"sk_plr_9mmAR_bullet2","0"};

	push	OFFSET FLAT:?sk_plr_9mmAR_bullet2@@3Ucvar_s@@A ; sk_plr_9mmAR_bullet2
	call	DWORD PTR ?g_engfuncs@@3Uenginefuncs_s@@A+224
	add	esp, 4

; 846  : 	CVAR_REGISTER ( &sk_plr_9mmAR_bullet3 );// {"sk_plr_9mmAR_bullet3","0"};

	push	OFFSET FLAT:?sk_plr_9mmAR_bullet3@@3Ucvar_s@@A ; sk_plr_9mmAR_bullet3
	call	DWORD PTR ?g_engfuncs@@3Uenginefuncs_s@@A+224
	add	esp, 4

; 847  : 
; 848  : 
; 849  : 	// M203 grenade
; 850  : 	CVAR_REGISTER ( &sk_plr_9mmAR_grenade1 );// {"sk_plr_9mmAR_grenade1","0"};

	push	OFFSET FLAT:?sk_plr_9mmAR_grenade1@@3Ucvar_s@@A ; sk_plr_9mmAR_grenade1
	call	DWORD PTR ?g_engfuncs@@3Uenginefuncs_s@@A+224
	add	esp, 4

; 851  : 	CVAR_REGISTER ( &sk_plr_9mmAR_grenade2 );// {"sk_plr_9mmAR_grenade2","0"};

	push	OFFSET FLAT:?sk_plr_9mmAR_grenade2@@3Ucvar_s@@A ; sk_plr_9mmAR_grenade2
	call	DWORD PTR ?g_engfuncs@@3Uenginefuncs_s@@A+224
	add	esp, 4

; 852  : 	CVAR_REGISTER ( &sk_plr_9mmAR_grenade3 );// {"sk_plr_9mmAR_grenade3","0"};

	push	OFFSET FLAT:?sk_plr_9mmAR_grenade3@@3Ucvar_s@@A ; sk_plr_9mmAR_grenade3
	call	DWORD PTR ?g_engfuncs@@3Uenginefuncs_s@@A+224
	add	esp, 4

; 853  : 
; 854  : 
; 855  : 	// Shotgun buckshot
; 856  : 	CVAR_REGISTER ( &sk_plr_buckshot1 );// {"sk_plr_buckshot1","0"};

	push	OFFSET FLAT:?sk_plr_buckshot1@@3Ucvar_s@@A ; sk_plr_buckshot1
	call	DWORD PTR ?g_engfuncs@@3Uenginefuncs_s@@A+224
	add	esp, 4

; 857  : 	CVAR_REGISTER ( &sk_plr_buckshot2 );// {"sk_plr_buckshot2","0"};

	push	OFFSET FLAT:?sk_plr_buckshot2@@3Ucvar_s@@A ; sk_plr_buckshot2
	call	DWORD PTR ?g_engfuncs@@3Uenginefuncs_s@@A+224
	add	esp, 4

; 858  : 	CVAR_REGISTER ( &sk_plr_buckshot3 );// {"sk_plr_buckshot3","0"};

	push	OFFSET FLAT:?sk_plr_buckshot3@@3Ucvar_s@@A ; sk_plr_buckshot3
	call	DWORD PTR ?g_engfuncs@@3Uenginefuncs_s@@A+224
	add	esp, 4

; 859  : 
; 860  : 
; 861  : 	// Crossbow
; 862  : 	CVAR_REGISTER ( &sk_plr_xbow_bolt_monster1 );// {"sk_plr_xbow_bolt1","0"};

	push	OFFSET FLAT:?sk_plr_xbow_bolt_monster1@@3Ucvar_s@@A ; sk_plr_xbow_bolt_monster1
	call	DWORD PTR ?g_engfuncs@@3Uenginefuncs_s@@A+224
	add	esp, 4

; 863  : 	CVAR_REGISTER ( &sk_plr_xbow_bolt_monster2 );// {"sk_plr_xbow_bolt2","0"};

	push	OFFSET FLAT:?sk_plr_xbow_bolt_monster2@@3Ucvar_s@@A ; sk_plr_xbow_bolt_monster2
	call	DWORD PTR ?g_engfuncs@@3Uenginefuncs_s@@A+224
	add	esp, 4

; 864  : 	CVAR_REGISTER ( &sk_plr_xbow_bolt_monster3 );// {"sk_plr_xbow_bolt3","0"};

	push	OFFSET FLAT:?sk_plr_xbow_bolt_monster3@@3Ucvar_s@@A ; sk_plr_xbow_bolt_monster3
	call	DWORD PTR ?g_engfuncs@@3Uenginefuncs_s@@A+224
	add	esp, 4

; 865  : 
; 866  : 	CVAR_REGISTER ( &sk_plr_xbow_bolt_client1 );// {"sk_plr_xbow_bolt1","0"};

	push	OFFSET FLAT:?sk_plr_xbow_bolt_client1@@3Ucvar_s@@A ; sk_plr_xbow_bolt_client1
	call	DWORD PTR ?g_engfuncs@@3Uenginefuncs_s@@A+224
	add	esp, 4

; 867  : 	CVAR_REGISTER ( &sk_plr_xbow_bolt_client2 );// {"sk_plr_xbow_bolt2","0"};

	push	OFFSET FLAT:?sk_plr_xbow_bolt_client2@@3Ucvar_s@@A ; sk_plr_xbow_bolt_client2
	call	DWORD PTR ?g_engfuncs@@3Uenginefuncs_s@@A+224
	add	esp, 4

; 868  : 	CVAR_REGISTER ( &sk_plr_xbow_bolt_client3 );// {"sk_plr_xbow_bolt3","0"};

	push	OFFSET FLAT:?sk_plr_xbow_bolt_client3@@3Ucvar_s@@A ; sk_plr_xbow_bolt_client3
	call	DWORD PTR ?g_engfuncs@@3Uenginefuncs_s@@A+224
	add	esp, 4

; 869  : 
; 870  : 
; 871  : 	// RPG
; 872  : 	CVAR_REGISTER ( &sk_plr_rpg1 );// {"sk_plr_rpg1","0"};

	push	OFFSET FLAT:?sk_plr_rpg1@@3Ucvar_s@@A	; sk_plr_rpg1
	call	DWORD PTR ?g_engfuncs@@3Uenginefuncs_s@@A+224
	add	esp, 4

; 873  : 	CVAR_REGISTER ( &sk_plr_rpg2 );// {"sk_plr_rpg2","0"};

	push	OFFSET FLAT:?sk_plr_rpg2@@3Ucvar_s@@A	; sk_plr_rpg2
	call	DWORD PTR ?g_engfuncs@@3Uenginefuncs_s@@A+224
	add	esp, 4

; 874  : 	CVAR_REGISTER ( &sk_plr_rpg3 );// {"sk_plr_rpg3","0"};

	push	OFFSET FLAT:?sk_plr_rpg3@@3Ucvar_s@@A	; sk_plr_rpg3
	call	DWORD PTR ?g_engfuncs@@3Uenginefuncs_s@@A+224
	add	esp, 4

; 875  : 
; 876  : 
; 877  : 	// Gauss Gun
; 878  : 	CVAR_REGISTER ( &sk_plr_gauss1 );// {"sk_plr_gauss1","0"};

	push	OFFSET FLAT:?sk_plr_gauss1@@3Ucvar_s@@A	; sk_plr_gauss1
	call	DWORD PTR ?g_engfuncs@@3Uenginefuncs_s@@A+224
	add	esp, 4

; 879  : 	CVAR_REGISTER ( &sk_plr_gauss2 );// {"sk_plr_gauss2","0"};

	push	OFFSET FLAT:?sk_plr_gauss2@@3Ucvar_s@@A	; sk_plr_gauss2
	call	DWORD PTR ?g_engfuncs@@3Uenginefuncs_s@@A+224
	add	esp, 4

; 880  : 	CVAR_REGISTER ( &sk_plr_gauss3 );// {"sk_plr_gauss3","0"};

	push	OFFSET FLAT:?sk_plr_gauss3@@3Ucvar_s@@A	; sk_plr_gauss3
	call	DWORD PTR ?g_engfuncs@@3Uenginefuncs_s@@A+224
	add	esp, 4

; 881  : 
; 882  : 
; 883  : 	// Egon Gun
; 884  : 	CVAR_REGISTER ( &sk_plr_egon_narrow1 );// {"sk_plr_egon_narrow1","0"};

	push	OFFSET FLAT:?sk_plr_egon_narrow1@@3Ucvar_s@@A ; sk_plr_egon_narrow1
	call	DWORD PTR ?g_engfuncs@@3Uenginefuncs_s@@A+224
	add	esp, 4

; 885  : 	CVAR_REGISTER ( &sk_plr_egon_narrow2 );// {"sk_plr_egon_narrow2","0"};

	push	OFFSET FLAT:?sk_plr_egon_narrow2@@3Ucvar_s@@A ; sk_plr_egon_narrow2
	call	DWORD PTR ?g_engfuncs@@3Uenginefuncs_s@@A+224
	add	esp, 4

; 886  : 	CVAR_REGISTER ( &sk_plr_egon_narrow3 );// {"sk_plr_egon_narrow3","0"};

	push	OFFSET FLAT:?sk_plr_egon_narrow3@@3Ucvar_s@@A ; sk_plr_egon_narrow3
	call	DWORD PTR ?g_engfuncs@@3Uenginefuncs_s@@A+224
	add	esp, 4

; 887  : 
; 888  : 	CVAR_REGISTER ( &sk_plr_egon_wide1 );// {"sk_plr_egon_wide1","0"};

	push	OFFSET FLAT:?sk_plr_egon_wide1@@3Ucvar_s@@A ; sk_plr_egon_wide1
	call	DWORD PTR ?g_engfuncs@@3Uenginefuncs_s@@A+224
	add	esp, 4

; 889  : 	CVAR_REGISTER ( &sk_plr_egon_wide2 );// {"sk_plr_egon_wide2","0"};

	push	OFFSET FLAT:?sk_plr_egon_wide2@@3Ucvar_s@@A ; sk_plr_egon_wide2
	call	DWORD PTR ?g_engfuncs@@3Uenginefuncs_s@@A+224
	add	esp, 4

; 890  : 	CVAR_REGISTER ( &sk_plr_egon_wide3 );// {"sk_plr_egon_wide3","0"};

	push	OFFSET FLAT:?sk_plr_egon_wide3@@3Ucvar_s@@A ; sk_plr_egon_wide3
	call	DWORD PTR ?g_engfuncs@@3Uenginefuncs_s@@A+224
	add	esp, 4

; 891  : 
; 892  : 
; 893  : 	// Hand Grendade
; 894  : 	CVAR_REGISTER ( &sk_plr_hand_grenade1 );// {"sk_plr_hand_grenade1","0"};

	push	OFFSET FLAT:?sk_plr_hand_grenade1@@3Ucvar_s@@A ; sk_plr_hand_grenade1
	call	DWORD PTR ?g_engfuncs@@3Uenginefuncs_s@@A+224
	add	esp, 4

; 895  : 	CVAR_REGISTER ( &sk_plr_hand_grenade2 );// {"sk_plr_hand_grenade2","0"};

	push	OFFSET FLAT:?sk_plr_hand_grenade2@@3Ucvar_s@@A ; sk_plr_hand_grenade2
	call	DWORD PTR ?g_engfuncs@@3Uenginefuncs_s@@A+224
	add	esp, 4

; 896  : 	CVAR_REGISTER ( &sk_plr_hand_grenade3 );// {"sk_plr_hand_grenade3","0"};

	push	OFFSET FLAT:?sk_plr_hand_grenade3@@3Ucvar_s@@A ; sk_plr_hand_grenade3
	call	DWORD PTR ?g_engfuncs@@3Uenginefuncs_s@@A+224
	add	esp, 4

; 897  : 
; 898  : 
; 899  : 	// Satchel Charge
; 900  : 	CVAR_REGISTER ( &sk_plr_satchel1 );// {"sk_plr_satchel1","0"};

	push	OFFSET FLAT:?sk_plr_satchel1@@3Ucvar_s@@A ; sk_plr_satchel1
	call	DWORD PTR ?g_engfuncs@@3Uenginefuncs_s@@A+224
	add	esp, 4

; 901  : 	CVAR_REGISTER ( &sk_plr_satchel2 );// {"sk_plr_satchel2","0"};

	push	OFFSET FLAT:?sk_plr_satchel2@@3Ucvar_s@@A ; sk_plr_satchel2
	call	DWORD PTR ?g_engfuncs@@3Uenginefuncs_s@@A+224
	add	esp, 4

; 902  : 	CVAR_REGISTER ( &sk_plr_satchel3 );// {"sk_plr_satchel3","0"};

	push	OFFSET FLAT:?sk_plr_satchel3@@3Ucvar_s@@A ; sk_plr_satchel3
	call	DWORD PTR ?g_engfuncs@@3Uenginefuncs_s@@A+224
	add	esp, 4

; 903  : 
; 904  : 
; 905  : 	// Tripmine
; 906  : 	CVAR_REGISTER ( &sk_plr_tripmine1 );// {"sk_plr_tripmine1","0"};

	push	OFFSET FLAT:?sk_plr_tripmine1@@3Ucvar_s@@A ; sk_plr_tripmine1
	call	DWORD PTR ?g_engfuncs@@3Uenginefuncs_s@@A+224
	add	esp, 4

; 907  : 	CVAR_REGISTER ( &sk_plr_tripmine2 );// {"sk_plr_tripmine2","0"};

	push	OFFSET FLAT:?sk_plr_tripmine2@@3Ucvar_s@@A ; sk_plr_tripmine2
	call	DWORD PTR ?g_engfuncs@@3Uenginefuncs_s@@A+224
	add	esp, 4

; 908  : 	CVAR_REGISTER ( &sk_plr_tripmine3 );// {"sk_plr_tripmine3","0"};

	push	OFFSET FLAT:?sk_plr_tripmine3@@3Ucvar_s@@A ; sk_plr_tripmine3
	call	DWORD PTR ?g_engfuncs@@3Uenginefuncs_s@@A+224
	add	esp, 4

; 909  : 
; 910  : 
; 911  : 	// WORLD WEAPONS
; 912  : 	CVAR_REGISTER ( &sk_12mm_bullet1 );// {"sk_12mm_bullet1","0"};

	push	OFFSET FLAT:?sk_12mm_bullet1@@3Ucvar_s@@A ; sk_12mm_bullet1
	call	DWORD PTR ?g_engfuncs@@3Uenginefuncs_s@@A+224
	add	esp, 4

; 913  : 	CVAR_REGISTER ( &sk_12mm_bullet2 );// {"sk_12mm_bullet2","0"};

	push	OFFSET FLAT:?sk_12mm_bullet2@@3Ucvar_s@@A ; sk_12mm_bullet2
	call	DWORD PTR ?g_engfuncs@@3Uenginefuncs_s@@A+224
	add	esp, 4

; 914  : 	CVAR_REGISTER ( &sk_12mm_bullet3 );// {"sk_12mm_bullet3","0"};

	push	OFFSET FLAT:?sk_12mm_bullet3@@3Ucvar_s@@A ; sk_12mm_bullet3
	call	DWORD PTR ?g_engfuncs@@3Uenginefuncs_s@@A+224
	add	esp, 4

; 915  : 
; 916  : 	CVAR_REGISTER ( &sk_9mmAR_bullet1 );// {"sk_9mm_bullet1","0"};

	push	OFFSET FLAT:?sk_9mmAR_bullet1@@3Ucvar_s@@A ; sk_9mmAR_bullet1
	call	DWORD PTR ?g_engfuncs@@3Uenginefuncs_s@@A+224
	add	esp, 4

; 917  : 	CVAR_REGISTER ( &sk_9mmAR_bullet2 );// {"sk_9mm_bullet1","0"};

	push	OFFSET FLAT:?sk_9mmAR_bullet2@@3Ucvar_s@@A ; sk_9mmAR_bullet2
	call	DWORD PTR ?g_engfuncs@@3Uenginefuncs_s@@A+224
	add	esp, 4

; 918  : 	CVAR_REGISTER ( &sk_9mmAR_bullet3 );// {"sk_9mm_bullet1","0"};

	push	OFFSET FLAT:?sk_9mmAR_bullet3@@3Ucvar_s@@A ; sk_9mmAR_bullet3
	call	DWORD PTR ?g_engfuncs@@3Uenginefuncs_s@@A+224
	add	esp, 4

; 919  : 
; 920  : 	CVAR_REGISTER ( &sk_9mm_bullet1 );// {"sk_9mm_bullet1","0"};

	push	OFFSET FLAT:?sk_9mm_bullet1@@3Ucvar_s@@A ; sk_9mm_bullet1
	call	DWORD PTR ?g_engfuncs@@3Uenginefuncs_s@@A+224
	add	esp, 4

; 921  : 	CVAR_REGISTER ( &sk_9mm_bullet2 );// {"sk_9mm_bullet2","0"};

	push	OFFSET FLAT:?sk_9mm_bullet2@@3Ucvar_s@@A ; sk_9mm_bullet2
	call	DWORD PTR ?g_engfuncs@@3Uenginefuncs_s@@A+224
	add	esp, 4

; 922  : 	CVAR_REGISTER ( &sk_9mm_bullet3 );// {"sk_9mm_bullet3","0"};

	push	OFFSET FLAT:?sk_9mm_bullet3@@3Ucvar_s@@A ; sk_9mm_bullet3
	call	DWORD PTR ?g_engfuncs@@3Uenginefuncs_s@@A+224
	add	esp, 4

; 923  : 
; 924  : 
; 925  : 	// HORNET
; 926  : 	CVAR_REGISTER ( &sk_hornet_dmg1 );// {"sk_hornet_dmg1","0"};

	push	OFFSET FLAT:?sk_hornet_dmg1@@3Ucvar_s@@A ; sk_hornet_dmg1
	call	DWORD PTR ?g_engfuncs@@3Uenginefuncs_s@@A+224
	add	esp, 4

; 927  : 	CVAR_REGISTER ( &sk_hornet_dmg2 );// {"sk_hornet_dmg2","0"};

	push	OFFSET FLAT:?sk_hornet_dmg2@@3Ucvar_s@@A ; sk_hornet_dmg2
	call	DWORD PTR ?g_engfuncs@@3Uenginefuncs_s@@A+224
	add	esp, 4

; 928  : 	CVAR_REGISTER ( &sk_hornet_dmg3 );// {"sk_hornet_dmg3","0"};

	push	OFFSET FLAT:?sk_hornet_dmg3@@3Ucvar_s@@A ; sk_hornet_dmg3
	call	DWORD PTR ?g_engfuncs@@3Uenginefuncs_s@@A+224
	add	esp, 4

; 929  : 
; 930  : 	// HEALTH/SUIT CHARGE DISTRIBUTION
; 931  : 	CVAR_REGISTER ( &sk_suitcharger1 );

	push	OFFSET FLAT:?sk_suitcharger1@@3Ucvar_s@@A ; sk_suitcharger1
	call	DWORD PTR ?g_engfuncs@@3Uenginefuncs_s@@A+224
	add	esp, 4

; 932  : 	CVAR_REGISTER ( &sk_suitcharger2 );

	push	OFFSET FLAT:?sk_suitcharger2@@3Ucvar_s@@A ; sk_suitcharger2
	call	DWORD PTR ?g_engfuncs@@3Uenginefuncs_s@@A+224
	add	esp, 4

; 933  : 	CVAR_REGISTER ( &sk_suitcharger3 );

	push	OFFSET FLAT:?sk_suitcharger3@@3Ucvar_s@@A ; sk_suitcharger3
	call	DWORD PTR ?g_engfuncs@@3Uenginefuncs_s@@A+224
	add	esp, 4

; 934  : 
; 935  : 	CVAR_REGISTER ( &sk_battery1 );

	push	OFFSET FLAT:?sk_battery1@@3Ucvar_s@@A	; sk_battery1
	call	DWORD PTR ?g_engfuncs@@3Uenginefuncs_s@@A+224
	add	esp, 4

; 936  : 	CVAR_REGISTER ( &sk_battery2 );

	push	OFFSET FLAT:?sk_battery2@@3Ucvar_s@@A	; sk_battery2
	call	DWORD PTR ?g_engfuncs@@3Uenginefuncs_s@@A+224
	add	esp, 4

; 937  : 	CVAR_REGISTER ( &sk_battery3 );

	push	OFFSET FLAT:?sk_battery3@@3Ucvar_s@@A	; sk_battery3
	call	DWORD PTR ?g_engfuncs@@3Uenginefuncs_s@@A+224
	add	esp, 4

; 938  : 
; 939  : 	CVAR_REGISTER ( &sk_healthcharger1 );

	push	OFFSET FLAT:?sk_healthcharger1@@3Ucvar_s@@A ; sk_healthcharger1
	call	DWORD PTR ?g_engfuncs@@3Uenginefuncs_s@@A+224
	add	esp, 4

; 940  : 	CVAR_REGISTER ( &sk_healthcharger2 );

	push	OFFSET FLAT:?sk_healthcharger2@@3Ucvar_s@@A ; sk_healthcharger2
	call	DWORD PTR ?g_engfuncs@@3Uenginefuncs_s@@A+224
	add	esp, 4

; 941  : 	CVAR_REGISTER ( &sk_healthcharger3 );

	push	OFFSET FLAT:?sk_healthcharger3@@3Ucvar_s@@A ; sk_healthcharger3
	call	DWORD PTR ?g_engfuncs@@3Uenginefuncs_s@@A+224
	add	esp, 4

; 942  : 
; 943  : 	CVAR_REGISTER ( &sk_healthkit1 );

	push	OFFSET FLAT:?sk_healthkit1@@3Ucvar_s@@A	; sk_healthkit1
	call	DWORD PTR ?g_engfuncs@@3Uenginefuncs_s@@A+224
	add	esp, 4

; 944  : 	CVAR_REGISTER ( &sk_healthkit2 );

	push	OFFSET FLAT:?sk_healthkit2@@3Ucvar_s@@A	; sk_healthkit2
	call	DWORD PTR ?g_engfuncs@@3Uenginefuncs_s@@A+224
	add	esp, 4

; 945  : 	CVAR_REGISTER ( &sk_healthkit3 );

	push	OFFSET FLAT:?sk_healthkit3@@3Ucvar_s@@A	; sk_healthkit3
	call	DWORD PTR ?g_engfuncs@@3Uenginefuncs_s@@A+224
	add	esp, 4

; 946  : 
; 947  : 	CVAR_REGISTER ( &sk_scientist_heal1 );

	push	OFFSET FLAT:?sk_scientist_heal1@@3Ucvar_s@@A ; sk_scientist_heal1
	call	DWORD PTR ?g_engfuncs@@3Uenginefuncs_s@@A+224
	add	esp, 4

; 948  : 	CVAR_REGISTER ( &sk_scientist_heal2 );

	push	OFFSET FLAT:?sk_scientist_heal2@@3Ucvar_s@@A ; sk_scientist_heal2
	call	DWORD PTR ?g_engfuncs@@3Uenginefuncs_s@@A+224
	add	esp, 4

; 949  : 	CVAR_REGISTER ( &sk_scientist_heal3 );

	push	OFFSET FLAT:?sk_scientist_heal3@@3Ucvar_s@@A ; sk_scientist_heal3
	call	DWORD PTR ?g_engfuncs@@3Uenginefuncs_s@@A+224
	add	esp, 4

; 950  : 
; 951  : // monster damage adjusters
; 952  : 	CVAR_REGISTER ( &sk_monster_head1 );

	push	OFFSET FLAT:?sk_monster_head1@@3Ucvar_s@@A ; sk_monster_head1
	call	DWORD PTR ?g_engfuncs@@3Uenginefuncs_s@@A+224
	add	esp, 4

; 953  : 	CVAR_REGISTER ( &sk_monster_head2 );

	push	OFFSET FLAT:?sk_monster_head2@@3Ucvar_s@@A ; sk_monster_head2
	call	DWORD PTR ?g_engfuncs@@3Uenginefuncs_s@@A+224
	add	esp, 4

; 954  : 	CVAR_REGISTER ( &sk_monster_head3 );

	push	OFFSET FLAT:?sk_monster_head3@@3Ucvar_s@@A ; sk_monster_head3
	call	DWORD PTR ?g_engfuncs@@3Uenginefuncs_s@@A+224
	add	esp, 4

; 955  : 
; 956  : 	CVAR_REGISTER ( &sk_monster_chest1 );

	push	OFFSET FLAT:?sk_monster_chest1@@3Ucvar_s@@A ; sk_monster_chest1
	call	DWORD PTR ?g_engfuncs@@3Uenginefuncs_s@@A+224
	add	esp, 4

; 957  : 	CVAR_REGISTER ( &sk_monster_chest2 );

	push	OFFSET FLAT:?sk_monster_chest2@@3Ucvar_s@@A ; sk_monster_chest2
	call	DWORD PTR ?g_engfuncs@@3Uenginefuncs_s@@A+224
	add	esp, 4

; 958  : 	CVAR_REGISTER ( &sk_monster_chest3 );

	push	OFFSET FLAT:?sk_monster_chest3@@3Ucvar_s@@A ; sk_monster_chest3
	call	DWORD PTR ?g_engfuncs@@3Uenginefuncs_s@@A+224
	add	esp, 4

; 959  : 
; 960  : 	CVAR_REGISTER ( &sk_monster_stomach1 );

	push	OFFSET FLAT:?sk_monster_stomach1@@3Ucvar_s@@A ; sk_monster_stomach1
	call	DWORD PTR ?g_engfuncs@@3Uenginefuncs_s@@A+224
	add	esp, 4

; 961  : 	CVAR_REGISTER ( &sk_monster_stomach2 );

	push	OFFSET FLAT:?sk_monster_stomach2@@3Ucvar_s@@A ; sk_monster_stomach2
	call	DWORD PTR ?g_engfuncs@@3Uenginefuncs_s@@A+224
	add	esp, 4

; 962  : 	CVAR_REGISTER ( &sk_monster_stomach3 );

	push	OFFSET FLAT:?sk_monster_stomach3@@3Ucvar_s@@A ; sk_monster_stomach3
	call	DWORD PTR ?g_engfuncs@@3Uenginefuncs_s@@A+224
	add	esp, 4

; 963  : 
; 964  : 	CVAR_REGISTER ( &sk_monster_arm1 );

	push	OFFSET FLAT:?sk_monster_arm1@@3Ucvar_s@@A ; sk_monster_arm1
	call	DWORD PTR ?g_engfuncs@@3Uenginefuncs_s@@A+224
	add	esp, 4

; 965  : 	CVAR_REGISTER ( &sk_monster_arm2 );

	push	OFFSET FLAT:?sk_monster_arm2@@3Ucvar_s@@A ; sk_monster_arm2
	call	DWORD PTR ?g_engfuncs@@3Uenginefuncs_s@@A+224
	add	esp, 4

; 966  : 	CVAR_REGISTER ( &sk_monster_arm3 );

	push	OFFSET FLAT:?sk_monster_arm3@@3Ucvar_s@@A ; sk_monster_arm3
	call	DWORD PTR ?g_engfuncs@@3Uenginefuncs_s@@A+224
	add	esp, 4

; 967  : 
; 968  : 	CVAR_REGISTER ( &sk_monster_leg1 );

	push	OFFSET FLAT:?sk_monster_leg1@@3Ucvar_s@@A ; sk_monster_leg1
	call	DWORD PTR ?g_engfuncs@@3Uenginefuncs_s@@A+224
	add	esp, 4

; 969  : 	CVAR_REGISTER ( &sk_monster_leg2 );

	push	OFFSET FLAT:?sk_monster_leg2@@3Ucvar_s@@A ; sk_monster_leg2
	call	DWORD PTR ?g_engfuncs@@3Uenginefuncs_s@@A+224
	add	esp, 4

; 970  : 	CVAR_REGISTER ( &sk_monster_leg3 );

	push	OFFSET FLAT:?sk_monster_leg3@@3Ucvar_s@@A ; sk_monster_leg3
	call	DWORD PTR ?g_engfuncs@@3Uenginefuncs_s@@A+224
	add	esp, 4

; 971  : 
; 972  : // player damage adjusters
; 973  : 	CVAR_REGISTER ( &sk_player_head1 );

	push	OFFSET FLAT:?sk_player_head1@@3Ucvar_s@@A ; sk_player_head1
	call	DWORD PTR ?g_engfuncs@@3Uenginefuncs_s@@A+224
	add	esp, 4

; 974  : 	CVAR_REGISTER ( &sk_player_head2 );

	push	OFFSET FLAT:?sk_player_head2@@3Ucvar_s@@A ; sk_player_head2
	call	DWORD PTR ?g_engfuncs@@3Uenginefuncs_s@@A+224
	add	esp, 4

; 975  : 	CVAR_REGISTER ( &sk_player_head3 );

	push	OFFSET FLAT:?sk_player_head3@@3Ucvar_s@@A ; sk_player_head3
	call	DWORD PTR ?g_engfuncs@@3Uenginefuncs_s@@A+224
	add	esp, 4

; 976  : 
; 977  : 	CVAR_REGISTER ( &sk_player_chest1 );

	push	OFFSET FLAT:?sk_player_chest1@@3Ucvar_s@@A ; sk_player_chest1
	call	DWORD PTR ?g_engfuncs@@3Uenginefuncs_s@@A+224
	add	esp, 4

; 978  : 	CVAR_REGISTER ( &sk_player_chest2 );

	push	OFFSET FLAT:?sk_player_chest2@@3Ucvar_s@@A ; sk_player_chest2
	call	DWORD PTR ?g_engfuncs@@3Uenginefuncs_s@@A+224
	add	esp, 4

; 979  : 	CVAR_REGISTER ( &sk_player_chest3 );

	push	OFFSET FLAT:?sk_player_chest3@@3Ucvar_s@@A ; sk_player_chest3
	call	DWORD PTR ?g_engfuncs@@3Uenginefuncs_s@@A+224
	add	esp, 4

; 980  : 
; 981  : 	CVAR_REGISTER ( &sk_player_stomach1 );

	push	OFFSET FLAT:?sk_player_stomach1@@3Ucvar_s@@A ; sk_player_stomach1
	call	DWORD PTR ?g_engfuncs@@3Uenginefuncs_s@@A+224
	add	esp, 4

; 982  : 	CVAR_REGISTER ( &sk_player_stomach2 );

	push	OFFSET FLAT:?sk_player_stomach2@@3Ucvar_s@@A ; sk_player_stomach2
	call	DWORD PTR ?g_engfuncs@@3Uenginefuncs_s@@A+224
	add	esp, 4

; 983  : 	CVAR_REGISTER ( &sk_player_stomach3 );

	push	OFFSET FLAT:?sk_player_stomach3@@3Ucvar_s@@A ; sk_player_stomach3
	call	DWORD PTR ?g_engfuncs@@3Uenginefuncs_s@@A+224
	add	esp, 4

; 984  : 
; 985  : 	CVAR_REGISTER ( &sk_player_arm1 );

	push	OFFSET FLAT:?sk_player_arm1@@3Ucvar_s@@A ; sk_player_arm1
	call	DWORD PTR ?g_engfuncs@@3Uenginefuncs_s@@A+224
	add	esp, 4

; 986  : 	CVAR_REGISTER ( &sk_player_arm2 );

	push	OFFSET FLAT:?sk_player_arm2@@3Ucvar_s@@A ; sk_player_arm2
	call	DWORD PTR ?g_engfuncs@@3Uenginefuncs_s@@A+224
	add	esp, 4

; 987  : 	CVAR_REGISTER ( &sk_player_arm3 );

	push	OFFSET FLAT:?sk_player_arm3@@3Ucvar_s@@A ; sk_player_arm3
	call	DWORD PTR ?g_engfuncs@@3Uenginefuncs_s@@A+224
	add	esp, 4

; 988  : 
; 989  : 	CVAR_REGISTER ( &sk_player_leg1 );

	push	OFFSET FLAT:?sk_player_leg1@@3Ucvar_s@@A ; sk_player_leg1
	call	DWORD PTR ?g_engfuncs@@3Uenginefuncs_s@@A+224
	add	esp, 4

; 990  : 	CVAR_REGISTER ( &sk_player_leg2 );

	push	OFFSET FLAT:?sk_player_leg2@@3Ucvar_s@@A ; sk_player_leg2
	call	DWORD PTR ?g_engfuncs@@3Uenginefuncs_s@@A+224
	add	esp, 4

; 991  : 	CVAR_REGISTER ( &sk_player_leg3 );

	push	OFFSET FLAT:?sk_player_leg3@@3Ucvar_s@@A ; sk_player_leg3
	call	DWORD PTR ?g_engfuncs@@3Uenginefuncs_s@@A+224
	add	esp, 4

; 992  : // END REGISTER CVARS FOR SKILL LEVEL STUFF
; 993  : 
; 994  : 	SERVER_COMMAND( "exec skill.cfg\n" );

	push	OFFSET FLAT:??_C@_0BA@HNAG@exec?5skill?4cfg?6?$AA@ ; `string'
	call	DWORD PTR ?g_engfuncs@@3Uenginefuncs_s@@A+156
	add	esp, 4

; 995  : 
; 996  : 	WorldPhysic->InitPhysic();	// initialize physic world

	mov	eax, DWORD PTR ?WorldPhysic@@3PAVIPhysicLayer@@A ; WorldPhysic
	mov	edx, DWORD PTR [eax]
	mov	ecx, DWORD PTR ?WorldPhysic@@3PAVIPhysicLayer@@A ; WorldPhysic
	call	DWORD PTR [edx]

; 997  : 
; 998  : 	// Yes in the Xash3D we can register messages here
; 999  : 	LinkUserMessages();

	call	?LinkUserMessages@@YAXXZ		; LinkUserMessages

; 1000 : }

	pop	edi
	pop	esi
	pop	ebx
	mov	esp, ebp
	pop	ebp
	ret	0
?GameDLLInit@@YAXXZ ENDP				; GameDLLInit
_TEXT	ENDS
PUBLIC	?GameDLLShutdown@@YAXXZ				; GameDLLShutdown
;	COMDAT ?GameDLLShutdown@@YAXXZ
_TEXT	SEGMENT
?GameDLLShutdown@@YAXXZ PROC NEAR			; GameDLLShutdown, COMDAT

; 1003 : {

	push	ebp
	mov	ebp, esp
	sub	esp, 64					; 00000040H
	push	ebx
	push	esi
	push	edi

; 1004 : 	WorldPhysic->FreePhysic();	// release physic world

	mov	eax, DWORD PTR ?WorldPhysic@@3PAVIPhysicLayer@@A ; WorldPhysic
	mov	edx, DWORD PTR [eax]
	mov	ecx, DWORD PTR ?WorldPhysic@@3PAVIPhysicLayer@@A ; WorldPhysic
	call	DWORD PTR [edx+4]

; 1005 : }

	pop	edi
	pop	esi
	pop	ebx
	mov	esp, ebp
	pop	ebp
	ret	0
?GameDLLShutdown@@YAXXZ ENDP				; GameDLLShutdown
_TEXT	ENDS
END
